Fc:_glClearStencil
Ece:_Array_InternalArray__ICollection_Add_TisMark_t2724874473_m1613484179_gshared
mmg:__ZL80Graphic_t2426225576_CustomAttributesCacheGenerator_Graphic_OnFillVBO_m1723985607P21CustomAttributesCache
zyg:_RuntimeTypeHandle_GetObjectData_m3567098501
cCj:__ZN6il2cpp2vm5Array13GetByteLengthEP11Il2CppArray
Wsh:_Raycast3DCallback_BeginInvoke_m3028685017
ETf:__ZL61IRemotingFormatter_t4112065742_CustomAttributesCacheGeneratorP21CustomAttributesCache
GF:__Z102Register_UnityEngine_Experimental_Director_AnimatorControllerPlayable_INTERNAL_CALL_ResetTriggerStringv
JSe:_Comparison_1_Invoke_m353639462_gshared
zbh:_UInt64_System_IConvertible_ToDecimal_m4205696037
i_d:_GraphicRegistry_RegisterGraphicForCanvas_m2284226562
QBa:__Z21SourceMipLevelForBlitiiii
Ukb:__ZN31CanvasBatchIntermediateRenderer15AddAsRenderNodeER15RenderNodeQueueRK20DeprecatedSourceData
dHg:_GenericTypeParameterBuilder_GetEvent_m4210567427
Tyd:_Enumerator_get_Key_m2908810861
Jci:__Z55RuntimeInvoker_ILTokenInfo_t149559338_Int32_t2071877448PK10MethodInfoPvPS2_
B3c:__ZN11UnityEngine7Connect14AppUpdateEventD0Ev
IU:__ZdlPv
CD:__ZN23AnimationOffsetPlayable11SetRotationE11Quaternionf
BB:__ZN11UnityEngine9Animation28GenericAnimationBindingCacheD2Ev
LTf:__ZL68RemotingSurrogateSelector_t2821375126_CustomAttributesCacheGeneratorP21CustomAttributesCache
zoh:_EqualityComparer_1__cctor_m968537130_gshared
Zoe:_List_1_System_Collections_IList_IndexOf_m39706221_gshared
wBd:_Decimal_op_Implicit_m2971610317
qMi:_TextGenerator_get_lineCount_m4287181941
U_d:_Graphic_UnregisterDirtyVerticesCallback_m1526739224
D3a:__Z18RestoreRenderStateR20CameraRenderOldStateR17ShaderPassContext
yud:_SynchronizedArrayListWrapper_get_Item_m3309425850
oNb:__Z18Transfer_BlittableI18StreamedBinaryReadILb1EELb1E5RectTIfEEvRK29SerializationCommandArgumentsR31RuntimeSerializationCommandInfo
_Jb:__Z18Transfer_BlittableI24GenerateTypeTreeTransferLb0E11ColorRGBA32EvRK29SerializationCommandArgumentsR31RuntimeSerializationCommandInfo
z3:__Z25scripting_class_from_name17ScriptingImagePtrPKcS1_
Loj:__ZN14dense_hash_mapI10KeyWrapperINSt3__24pairIPK12PropertyInfoP11Il2CppClassEEEj17ReflectionMapHashIS8_ENS9_14EqualsComparerINS1_8equal_toIS8_EEEENS1_9allocatorINS2_IKS9_jEEEEE15set_deleted_keyERSH_
PDb:__Z29scripting_class_enum_basetype17ScriptingClassPtr
b$d:_GraphicRaycaster_get_ignoreReversedGraphics_m2757724367
qZj:_emscripten_glDeleteBuffers__wrapper
WFj:__ZN6il2cpp8metadata26Il2CppTypeEqualityComparer8AreEqualEPK10Il2CppTypeS4_
QHg:_GenericTypeParameterBuilder_GetHashCode_m867619899
Ibi:__Z79RuntimeInvoker_Void_t1841601450_Int32_t2071877448_ParameterModifier_t1820634920PK10MethodInfoPvPS2_
E7g:_TimeSpan_ToString_m2947282901
Snh:_EqualityComparer_1__cctor_m3397254040_gshared
RW:__ZNK20LocalFileSystemPosix6ParentERK13FileEntryDataRN4core12basic_stringIcNS3_20StringStorageDefaultIcEEEE
d$h:__Z37RuntimeInvoker_ContentType_t859870085PK10MethodInfoPvPS2_
kMi:_TextGenerator_get_verts_m3124035267
H7e:_MonoType_CheckMethodSecurity_m4116906190
LOi:_Vector2_get_one_m3174311904
Nhe:_Array_Sort_TisVector2_t2243707579_m1307634946_gshared
e8h:__Z37RuntimeInvoker_Enumerator_t1593300101PK10MethodInfoPvPS2_
nra:__ZN17PersistentManager22CheckInstanceIDsLoadedEPii
Iza:__ZN7ApiGLES17CopyBufferSubDataEjjlll
Zri:_AnimatorControllerPlayable_IsInTransition_m4064534331
D6i:__ZN15dense_hashtableINSt3__24pairIK10KeyWrapperIPKcEP11Il2CppClassEES5_N6il2cpp5utils11StringUtils12StringHasherIS4_EEN14dense_hash_mapIS5_S8_SE_NS5_14EqualsComparerINSC_21CaseSensitiveComparerEEENS0_9allocatorIS9_EEE9SelectKeyESI_SK_E13set_empty_keyERKS9_
c7f:__ZL99Sprite_t309593783_CustomAttributesCacheGenerator_Sprite_get_associatedAlphaSplitTexture_m3617241169P21CustomAttributesCache
R0i:__ZNSt3__26vectorIPK10Il2CppTypeNS_9allocatorIS3_EEE7reserveEj
lRi:_U3CCreateWhereIteratorU3Ec__Iterator1D_1_Reset_m1773515612_gshared
vXa:__ZN25CameraStackRenderingState20GetOrCreateBuiltinRTE24BuiltinRenderTextureTypeii17DepthBufferFormat19RenderTextureFormatj22RenderTextureReadWrite14VRTextureUsagei
E2d:_InputField_get_caretPosition_m1005871812
Yhh:_Dictionary_2__ctor_m3111963761_gshared
SQi:_AesManaged_CreateEncryptor_m1729287824
Lsb:__ZNK14Texture2DArray26CanReuploadDataToGfxDeviceEv
X$a:__ZN17PrePassRenderLoop14RenderBasePassEP13RenderTextureRK14LightingLayersR13dynamic_arrayI16RenderObjectDataLj4EERbR10MinMaxAABB
nhb:__ZN17GlobalGameManager23VirtualRedirectTransferER17RemapPPtrTransfer
LPc:_sfnt_stream_close
Crd:_Char_System_IConvertible_ToInt16_m2741348777_AdjustorThunk
fkc:__ZN5IMGUI18RepaintModalWindowER8GUIState
w3i:__ZL25UnresolvedVirtualCall_129P12Il2CppObject17Color_t2020392075PK10MethodInfo
kgb:__ZN21ArchiveStorageCreator10InitializeERKN4core12basic_stringIcNS0_20StringStorageDefaultIcEEEEb
FZd:_FontData_get_verticalOverflow_m83665814
xLe:_ReadOnlyCollection_1_System_Collections_Generic_IListU3CTU3E_set_Item_m1547026160_gshared
aNf:__ZL61MarshalAsAttribute_t2900773360_CustomAttributesCacheGeneratorP21CustomAttributesCache
Qrb:__Z23SetSpriteMeshIndexCountP14SharedMeshDataj
lca:__ZN7Texture13SetFilterModeEi
oac:__Z46Register_UnityEngine_Application_get_isPlayingv
kEj:__ZN6il2cpp8metadata13GenericMethod9GetMethodEPK19Il2CppGenericMethod
Eq:__ZNSt3__26vectorIN4core12basic_stringIcNS1_20StringStorageDefaultIcEEEENS_9allocatorIS5_EEE7reserveEj
RDd:_Convert_ToUInt16_m2130758075
Tkj:__ZN15dense_hashtableINSt3__24pairIK10KeyWrapperINS1_IPK11Il2CppImageP11Il2CppClassEEEjEES9_17ReflectionMapHashIS8_EN14dense_hash_mapIS9_jSD_NS9_14EqualsComparerINS0_8equal_toIS8_EEEENS0_9allocatorISB_EEE9SelectKeyESI_SK_E3endEv
uDf:_X509BasicConstraintsExtension_Encode_m3505127076
bWc:_Round_Up_To_Grid
sua:__ZN13GfxDeviceGLES11SetViewportERK5RectTIiE
H0d:_Image_get_pixelsPerUnit_m4104195799
rzh:_Toggle_InternalToggle_m2323729210
IHd:_Decimal_System_IConvertible_ToInt64_m2504363272
Kmd:_Array_GetValue_m3182152438
Xd:_emscripten_glDepthRange
zAg:_DESTransform_CipherFunct_m3559419566
L8h:__Z91RuntimeInvoker_Boolean_t3825574718_TouchScreenKeyboardTypeU26_t2194866306_Int32_t2071877448PK10MethodInfoPvPS2_
mch:_UIntPtr_get_Size_m537421489
g9c:_Rijndael_Create_m113171669
pRg:_GUILayoutGroup_CalcWidth_m4107152934
cyg:_RuntimeFieldHandle_get_Value_m3963757144
ySb:__Z14resize_trimmedINSt3__26vectorIN9ShaderLab20SerializedSubProgram12UAVParameterENS0_9allocatorIS4_EEEEEvRT_j
Atg:_SerializationInfo_AddValue_m1781549036
irf:_TlsServerKeyExchange_verifySignature_m3641534563
zHe:_Collection_1_Clear_m445145071_gshared
Fxh:_Slider_FindSelectableOnLeft_m3136767885
KSh:__Z75RuntimeInvoker_Void_t1841601450_Il2CppObject_RuntimeFieldHandle_t2331729674PK10MethodInfoPvPS2_
oBa:__ZN4crndL20crnd_default_reallocEPvjPjbS0_
p_d:__ZN21InterfaceFuncInvoker1IP19Material_t193706927S1_E6InvokeEjP11Il2CppClassP12Il2CppObjectS1_
C9d:_Array_BinarySearch_TisInt32_t2071877448_m51233948_gshared
y6b:__ZN7Texture11SetWrapModeEi
gRj:__ZNSt3__212basic_stringIcNS_11char_traitsIcEENS_9allocatorIcEEEC2ERKS5_
Xtg:_ProviderData_CopyFrom_m431414335
q3g:_UTF32Encoding_GetPreamble_m767706727
lhc:__Z33Texture_CUSTOM_Internal_GetHeightP12Il2CppObject
tEe:_Collection_1_System_Collections_IList_Add_m1953936885_gshared
X4d:_LayoutGroup_get_preferredHeight_m3901163825
WVa:__ZN23ScriptableRenderContextC2Ev
Mib:__ZN4PPtrI13RenderTextureE8TransferI18StreamedBinaryReadILb0EEEEvRT_
gBd:_DateTime_AbsoluteDays_m3061694073
o9h:__Z56RuntimeInvoker_Boolean_t3825574718_LabelData_t3712112744PK10MethodInfoPvPS2_
Bpi:_AnimationClipPlayable_set_speed_m3332297554
IWc:_UNITY_FT_Stream_GetChar
KNb:__Z18Transfer_BlittableI18StreamedBinaryReadILb1EELb1EdEvRK29SerializationCommandArgumentsR31RuntimeSerializationCommandInfo
ieh:_Enumerator_System_Collections_IEnumerator_get_Current_m229223308_gshared
g2f:__ZL202U3CCreateWhereIteratorU3Ec__Iterator1D_1_t2523986802_CustomAttributesCacheGenerator_U3CCreateWhereIteratorU3Ec__Iterator1D_1_System_Collections_Generic_IEnumerableU3CTSourceU3E_GetEnumerator_m2392330777P21CustomAttributesCache
$Db:__Z26BuildSerializationCacheFor17ScriptingClassPtrRb
pfj:_il2cpp_class_get_name
osi:_AnimatorControllerPlayable_CrossFadeInFixedTimeInternal_m3729673154
dSf:__ZL55GCHandleType_t1970708122_CustomAttributesCacheGeneratorP21CustomAttributesCache
Uni:_Event_Init_m3901382626
Zeb:__ZN10FileSystem12MountHandlerEP17FileSystemHandler
hud:_FixedSizeArrayListWrapper_AddRange_m2071800418
TB:__ZN13ProduceHelperI8AnimatorLb0EE7ProduceE18MemLabelIdentifier18ObjectCreationMode
naa:__Z9InitInputv
lLi:_StateMachineBehaviour_OnStateUpdate_m2021794605
Mne:_Enumerator_VerifyState_m2358705882_AdjustorThunk
SKb:__Z29Transfer_Blittable_ArrayFieldI24GenerateTypeTreeTransfer11ColorRGBA32EvRT_R9ArrayInfoRK23StaticTransferFieldInfo
Vth:_Selectable_Navigate_m915280351
Ujf:_AppDomain_getCurDomain_m591611373
aab:__ZN16MemoryFileSystem6DeleteER13FileEntryDatab
bPi:_Vector3_get_normalized_m936072361
lpa:__ZL21BlitScaleStbImageImplRK14ImageReferenceRS_NS_10ColorSpaceE
Pxf:_TlsStream_set_Position_m378064217
tB:__ZN18StreamedBinaryReadILb0EE21TransferSTLStyleArrayI13dynamic_arrayIjLj4EEEEvRT_17TransferMetaFlags
uEc:__ZNSt3__26__sortIR31RayHitsByInverseDepthComparitorP12RaycastHit2DEEvT0_S5_T_
HGb:__Z29Transfer_Blittable_ArrayFieldI14SafeBinaryReadyEvRT_R9ArrayInfoRK23StaticTransferFieldInfo
rM:__ZN20SoundChannelInstance15setChannelGroupEPN4FMOD12ChannelGroupE
ued:_Evidence_Equals_m2325859915
_Cg:_Default__ctor_m172834064
tc:invoke_vifffii
Dkg:__ZL77StandaloneInputModule_t70867863_CustomAttributesCacheGenerator_m_VerticalAxisP21CustomAttributesCache
$Ab:__ZN20ArchiveStorageReader17MakeStorageUnusedEv
fDi:_Regex_IsMatch_m2159202025
DKa:__ZNK25MultiBlocksMemoryFileData5CloneEv
XIj:_GC_add_ext_descriptor
jKj:__ZN6il2cpp2os14WindowsRuntime22GetRestrictedErrorInfoEv
Z0d:_Image_CalculateLayoutInputHorizontal_m3275149860
Rug:_RemotingServices_GetMethodBaseFromName_m3271095947
l_h:__Z71RuntimeInvoker_TimeSpan_t3430258949_Double_t4078015681_Int64_t909078037PK10MethodInfoPvPS2_
tMa:__ZN17ArchiveFileSystem11CreateAsDirER13FileEntryData
h3i:__ZL25UnresolvedVirtualCall_114P12Il2CppObjectssaaaPK10MethodInfo
kTj:dynCall_iiiiiiiiiiii
Rjd:_ASCIIEncoding_GetBytes_m3617160053
sJh:_InternalEnumerator_1_MoveNext_m2289229080_AdjustorThunk
mqf:_CipherSuiteCollection_System_Collections_IList_RemoveAt_m143866082
SC:__ZN26AnimatorControllerPlayable26ParameterControlledByCurveEi
pta:__ZN22VertexDeclarationCacheD0Ev
KWb:__ZL26KeywordSetToStringDontSortRKNSt3__26vectorIN4core12basic_stringIcNS1_20StringStorageDefaultIcEEEENS_9allocatorIS5_EEEERS5_
F2c:__Z54Register_UnityEngine_Analytics_CustomEventData_AddCharv
wka:__ZN6prcoreL17RemapGenericFloatI16TexFormatRGFloat17TexFormatRGBAHalfEEvPKNS_9InnerInfoE
ufb:__ZNK21AssetBundleFileSystem8PositionERK13FileEntryData
UG:__ZN12AudioManager22CreateFMODSoundFromWWWEP10IWWWStream15FMOD_SOUND_TYPE17FMOD_SOUND_FORMATjjbbP10SampleClip
w1b:__ZNK32RendererMaterialAnimationBinding15GenerateBindingERKN4core12basic_stringIcNS0_20StringStorageDefaultIcEEEEbRN11UnityEngine9Animation14GenericBindingE
rlj:__ZN24dense_hashtable_iteratorINSt3__24pairIK10KeyWrapperINS1_IPK11Il2CppImageP11Il2CppClassEEEjEES9_17ReflectionMapHashIS8_EN14dense_hash_mapIS9_jSD_NS9_14EqualsComparerINS0_8equal_toIS8_EEEENS0_9allocatorISB_EEE9SelectKeyESI_SK_E30advance_past_empty_and_deletedEv
npi:_UnityEventBase_UnityEngine_ISerializationCallbackReceiver_OnBeforeSerialize_m1773826808
Olh:_DefaultComparer_GetHashCode_m361278435_gshared
P2:__ZN8Remapper23GetOrGenerateInstanceIDERK26SerializedObjectIdentifier
s4e:_StreamWriter_Flush_m3426120024
zMa:__ZN17FileSystemHandler10AtomicMoveER13FileEntryDataS1_
Ya:invoke_iiiiiifffiiifii
Y1e:_MemoryStream__ctor_m1489366847
Ped:_SecurityElement_IsValidTag_m64902195
leh:_Enumerator_System_Collections_IEnumerator_get_Current_m229223308_AdjustorThunk
QNg:_PropertyInfo_SetValue_m2961483868
EQg:_GUILayoutEntry_set_style_m70917293
Eue:_List_1_System_Collections_IList_Contains_m4193366963_gshared
sVi:_UnityEvent_3_FindMethod_Impl_m1889846153_gshared
Jrg:_DictionaryEnumerator_get_Value_m1915638953
wDg:_ConstructorInfo_Invoke_m2144827141
T7f:__ZL82Object_t1021602117_CustomAttributesCacheGenerator_Object_get_hideFlags_m4158950869P21CustomAttributesCache
bsb:__ZN6Sprite8TransferI24GenerateTypeTreeTransferEEvRT_
tic:__Z48Register_UnityEngine_Transform_SetAsFirstSiblingv
NOg:_Font_get_fontSize_m1732593415
dsb:__ZN7SubMesh8TransferI24GenerateTypeTreeTransferEEvRT_
inj:__ZN14dense_hash_mapI10KeyWrapperIPK14Il2CppAssemblyEPK16MonoAssemblyNameN6il2cpp5utils11PointerHashIS2_EENS4_14EqualsComparerINSt3__28equal_toIS3_EEEENSD_9allocatorINSD_4pairIKS4_S7_EEEEE13set_empty_keyERSJ_
UMg:_MonoProperty_get_CanWrite_m2124922514
spf:_CipherSuite_get_HashAlgorithmType_m3902365773
g8h:__Z36RuntimeInvoker_Enumerator_t132208513PK10MethodInfoPvPS2_
J9h:__Z112RuntimeInvoker_Int32_t2071877448_Il2CppObject_Int32_t2071877448_Int32_t2071877448_Int32_t2071877448_Il2CppObjectPK10MethodInfoPvPS2_
iQj:_poll
K1e:_Stream_BeginRead_m1985960185
rTg:_GUIStyle_GetFontInternalDuringLoadingThread_m229734483
k$b:__ZN13ProduceHelperI14Texture2DArrayLb0EE7ProduceE18MemLabelIdentifier18ObjectCreationMode
Cnf:_MD4Managed_GG_m1462438360
Jec:__Z46Mesh_CUSTOM_PrintErrorCantAccessMeshForIndicesP12Il2CppObject
Q9b:__ZN9Transform23SetSiblingIndexInternalEib
Ovh:_ScrollRect_get_minWidth_m3151814267
y$e:_BinaryReader_CheckBuffer_m1059275266
Fua:__ZN13GfxDeviceGLES17DestroySubProgramEPN9ShaderLab10SubProgramE
Fx:__ZN7mecanim5human12HumanPoseSubERNS0_9HumanPoseERKS1_S4_
onf:_MD4_Create_m2582504069
w_i:_HashSet_1_System_Collections_IEnumerable_GetEnumerator_m2498631708_gshared
xwj:__ZN6il2cpp8metadata15GenericMetadata15GetGenericClassEiPK17Il2CppGenericInst
npd:_Boolean_System_IConvertible_ToInt16_m977801621
AFb:__Z18Transfer_BlittableI14SafeBinaryReadLb0E10Matrix4x4fEvRK29SerializationCommandArgumentsR31RuntimeSerializationCommandInfo
mOa:__Z24GetFixedBehaviourManagerv
tUa:__ZN12FlareManager9UpdateJobEP25FlareManagerUpdateJobData
kcj:__ZN6il2cpp2vm10ThreadPool4WaitEP17Il2CppAsyncResultPPv
tOj:_vfprintf
Ctg:_SerializationException__ctor_m1019897788
Ugi:_Debug_get_logger_m4173808038
zia:__ZL13SortTexByNameRKNSt3__24pairIN9ShaderLab16FastPropertyNameEN18UnityPropertySheet11UnityTexEnvEEES7_
gVa:__ZN20DynamicPropertySheetD0Ev
Q7a:__ZN14SafeBinaryRead17RegisterConverterEPKcS1_PFbPvRS_E
mZ:__ZN35RegisterRuntimeInitializeAndCleanup8RegisterEPFvPvES2_iS0_
pqj:__ZNSt3__26vectorIN6il2cpp8metadata18GenericArrayMethodENS_9allocatorIS3_EEE7reserveEj
eod:_AsyncCallback__ctor_m3071689932
eRe:_ReadOnlyCollection_1_System_Collections_IList_Clear_m2600246370_gshared
YAc:__ZN4PPtrI17PhysicsMaterial2DE8TransferI18StreamedBinaryReadILb0EEEEvRT_
s3h:__Z74RuntimeInvoker_Void_t1841601450_PlayableHandleU26_t3483893774_Il2CppObjectPK10MethodInfoPvPS2_
q2h:__Z135RuntimeInvoker_RaycastHit2D_t4063908774_Vector2_t2243707579_Vector2_t2243707579_Single_t2076509932_Int32_t2071877448_Single_t2076509932PK10MethodInfoPvPS2_
e4h:__Z41RuntimeInvoker_EventModifiers_t2690251474PK10MethodInfoPvPS2_
Lef:_DSAManaged_NormalizeArray_m2287089393
Cic:__Z21Object_CUSTOM_DestroyP12Il2CppObjectf
bKh:_InternalEnumerator_1_System_Collections_IEnumerator_get_Current_m2389982234_AdjustorThunk
qOa:__ZN8Material26ResetAllCachedMaterialDataEP6Shader
kwh:_Selectable_get_interactable_m1725029500
TWc:_UNITY_TT_Get_MM_Var
yXi:__ZN6il2cpp6icalls8mscorlib6System7Decimal13decimal2Int64EP19il2cpp_decimal_reprPx
ba:invoke_diddi
PQd:_ExecuteEvents__cctor_m288775360
jYc:__ZNK2UI6Canvas13GetRenderModeEv
lCd:_Double_TryParseStringConstant_m2585405703
_Eb:__Z18Transfer_BlittableI14SafeBinaryReadLb0EiEvRK29SerializationCommandArgumentsR31RuntimeSerializationCommandInfo
_aj:__ZN6il2cpp2vm13MetadataCache30GetPropertyDefinitionFromIndexEi
qti:_ResourceEnumerator__ctor_m1679839941
r9c:_RijndaelTransform_Clear_m1652144089
_ie:_BaseInvokableCall_ThrowOnInvalidArg_TisIl2CppObject_m1349548392_gshared
r5c:__ZN22BaseUnityConnectClient17InitializeSessionERKN4core12basic_stringIcNS0_20StringStorageDefaultIcEEEES6_N19CloudServiceHandler13InitModeFlagsE
uOh:__Z57RuntimeInvoker_Void_t1841601450_Il2CppObject_Il2CppObjectPK10MethodInfoPvPS2_
b9e:_NumberFormatter_get_IsZero_m1325357749
wLd:_Enum_ToObject_m322320225
DNh:_Enumerator_get_Current_m2754383612_gshared
vfc:__ZN13MonoBehaviour34StopCoroutineFromEnumeratorManagedE18ScriptingObjectPtr
add:_X509Certificate__ctor_m3860837120
nOc:_gray_raster_reset
EF:__Z100Register_UnityEngine_Experimental_Director_AnimatorControllerPlayable_INTERNAL_CALL_SetTriggerStringv
TOg:_GameObject_Internal_CreateGameObject_m3428198595
Rji:_Camera_RaycastTry2D_m755036866
$Qe:_ReadOnlyCollection_1_System_Collections_Generic_IListU3CTU3E_set_Item_m3663361643_gshared
fC:__ZN7mecanim9animation14AvatarConstant15InitializeClassEv
lvc:__ZN11UnityEngine9Analytics18SceneLoadTimeEvent12SetSceneLoadERKN4core12basic_stringIcNS2_20StringStorageDefaultIcEEEEiyyyy
zri:_AnimatorControllerPlayable_GetCurrentAnimatorStateInfo_m689786022
DAb:__ZN30RuntimeInitializeOnLoadManager8TransferI18StreamedBinaryReadILb0EEEEvRT_
ukh:_Dictionary_2__ctor_m1206668798_gshared
_Fg:_TypeBuilder_not_supported_m3178173643
YOc:_UNITY_tt_face_load_pclt
CBb:__ZN21ArchiveStorageCreator14StoreDirectoryEv
H8b:__ZL34GetComponentsImplementationRecurseILb1ELi0ELi2EEbR10GameObjectbRK17CompareParametersRK39GetComponentsImplementation_ReturnValue
ZBc:__ZN10ClipperLib7Clipper24InsertLocalMinimaIntoAELEx
FLj:__ZN6il2cpp6icalls8mscorlib6System9Threading5Mutex20CreateMutex_internalEbP12Il2CppStringPb
$uc:__ZNK27PerformanceReportingManager26GetTypeInfoVirtualInternalEv
jYh:__Z50RuntimeInvoker_Int16_t4041245914_Int16_t4041245914PK10MethodInfoPvPS2_
Qtd:_ArrayListWrapper_Remove_m1105489978
uUa:__ZNK6Camera18WorldToScreenPointERK8Vector3fPb
n1c:__ZN14UnityAnalyticsD0Ev
Mpd:_Boolean_CompareTo_m3691698947_AdjustorThunk
_jg:__ZL109PointerEventData_t1599784723_CustomAttributesCacheGenerator_PointerEventData_get_eligibleForClick_m2497780621P21CustomAttributesCache
Ixd:_HashKeys_CopyTo_m3566668422
GFh:_InternalEnumerator_1_Dispose_m549215360_AdjustorThunk
Krd:_Convert_ToSByte_m2665932200
c2:__ZNSt3__227__insertion_sort_incompleteIRPFbRKN18AwakeFromLoadQueue4ItemES4_EPS2_EEbT0_S9_T_
XHi:_PKCS12_Encrypt_m2154408631
VEg:_ILGenerator_label_fixup_m1325994348
Dhh:_ValueCollection_System_Collections_ICollection_get_IsSynchronized_m45572582_gshared
l9d:_Array_InternalArray__IEnumerable_GetEnumerator_TisContactPoint2D_t3659330976_m478005999_gshared
_rh:_Navigation_Equals_m4214630671_AdjustorThunk
lOe:_ReadOnlyCollection_1_System_Collections_Generic_IListU3CTU3E_set_Item_m257196015_gshared
gKg:_FieldInfo_GetPseudoCustomAttributes_m2500972355
bpb:__ZN26EnlightenSystemInformation8TransferI14SafeBinaryReadEEvRT_
Mje:_Array_InternalArray__get_Item_TisLink_t2723257478_m2281261655_gshared
kvb:__ZN12MeshRendererD0Ev
FEi:_ExpressionAssertion_IsComplex_m783019628
Jwd:_Hashtable__ctor_m2702360557
Gh:_utime
RUe:_DateTimeFormatInfo_get_RawAbbreviatedDayNames_m3998113647
Umh:_DefaultComparer_GetHashCode_m2596628120_gshared
amf:_PrimalityTest_Invoke_m4058801829
Fug:_RemotingConfiguration_SetCustomErrorsMode_m1844153208
zn:FUNCTION_TABLE_viiiiii
V9h:__Z84RuntimeInvoker_Int32_t2071877448_Il2CppObject_CustomAttributeNamedArgument_t94157543PK10MethodInfoPvPS2_
E9f:__ZL98Physics2D_t2540166467_CustomAttributesCacheGenerator_Physics2D_GetColliderFromInstanceID_m95920619P21CustomAttributesCache
SNd:_CultureInfo_GetFormat_m3560116485
SA:__ZN7mecanim9animation22DestroyAvatarWorkspaceEPNS0_15AvatarWorkspaceERNS_6memory9AllocatorE
bKi:_ScriptableObject_CreateInstance_m3271154163
Ksd:__ZN21InterfaceFuncInvoker0IiE6InvokeEjP11Il2CppClassP12Il2CppObject
SGf:_FactoryCache__ctor_m254400436
HDi:_AnchorInfo_get_IsPosition_m3791659233
lbe:_Array_InternalArray__IndexOf_TisResourceCacheItem_t333236149_m761772858_gshared
akc:__ZNSt3__210__list_impIN10GUIManager12SortedScriptE11memory_poolIS2_EE5clearEv
oZf:__ZL76Convert_t2607082565_CustomAttributesCacheGenerator_Convert_ToInt64_m44696721P21CustomAttributesCache
nmb:__ZN14PlayableOutput17SetSourcePlayableEP8Playable
$ug:_TrackingServices__cctor_m3639412334
XSi:_InvokableCall_1_add_Delegate_m3068046591_gshared
Imc:__Z32GUIStyle_Set_Custom_PropRichTextP12Il2CppObjecth
Hu:__ZN7mecanim9animation29MotionOutputGetDeltaTransformEPKNS0_12MotionOutputE
gZb:__Z13RegisterClassI16GraphicsSettingsEvv
LVi:_GameManager_Start_m2655388892
Phh:_ValueCollection_System_Collections_IEnumerable_GetEnumerator_m1773104428_gshared
kvc:__ZN27PerformanceReportingManager21OnSceneTimingCallbackERK15SceneLoadTimingRKN4core12basic_stringIcNS3_20StringStorageDefaultIcEEEE
CC:__ZN8Animator14OnAddComponentEPN5Unity9ComponentE
JAe:_List_1_CheckMatch_m1184924052_gshared
Ohc:__Z43Transform_CUSTOM_INTERNAL_get_localRotationP12Il2CppObjectP11Quaternionf
IMi:_Touch_get_fingerId_m4109475843_AdjustorThunk
wXj:_glGetShaderInfoLog__wrapper
hi:_emscripten_glGetTexParameteriv
que:_List_1_ToArray_m3752387798_gshared
xuh:_ScrollRect_get_elasticity_m3987376518
xof:_RSAManaged_ImportParameters_m3060955884
zif:_DeriveBytes__ctor_m3089550878
Lvi:_ChannelData_CopyFrom_m4049054607
mZb:__Z13RegisterClassI4MeshEvv
tjg:__ZL94AxisEventData_t1524870173_CustomAttributesCacheGenerator_AxisEventData_get_moveDir_m3968662359P21CustomAttributesCache
rae:_Array_FindLastIndex_TisIl2CppObject_m869210470_gshared
Tlb:__ZN8PlayableD0Ev
jI:__ZN12AudioManager8TransferI19StreamedBinaryWriteILb0EEEEvRT_
p2e:_WriteDelegate_Invoke_m2103848735
pve:_List_1_get_Capacity_m4262042666_gshared
wJi:_X509Crl_get_IssuerName_m756409840
zOb:__ZN18StreamedBinaryReadILb1EE21TransferSTLStyleArrayI13dynamic_arrayI11ColorRGBA32Lj4EEEEvRT_17TransferMetaFlags
Xfh:_Transform_1_EndInvoke_m687617772_gshared
Nbi:__Z66RuntimeInvoker_Void_t1841601450_Int32_t2071877448_Mark_t2724874473PK10MethodInfoPvPS2_
kQi:_Locale_GetText_m512920887
v1b:__ZNK32RendererMaterialAnimationBinding12GetPPtrValueERKN11UnityEngine9Animation10BoundCurveE
mPb:__Z18Transfer_BlittableI18StreamedBinaryReadILb0EELb0E8Vector2fEvRK29SerializationCommandArgumentsR31RuntimeSerializationCommandInfo
nug:_RemotingConfiguration_get_ProcessId_m3870172209
Q_c:__ZN2UI11CanvasGroup12CleanupClassEv
rWe:_SortKey_ToString_m2406913228
hX:__ZN22LocalFileSystemHandler9MakeLocalER13FileEntryDatab
pFj:__ZN6il2cpp2vm8Profiler10AllocationEP12Il2CppObjectP11Il2CppClass
rBd:_Convert_ToDateTime_m1020507389
T3b:__ZNK9HPlayable7IsValidEv
QLc:__ZNSt3__23mapIN20TextRenderingPrivate7FontRefENS1_6OSFontENS_4lessIS2_EENS_9allocatorINS_4pairIKS2_S3_EEEEEixERS8_
k0e:_Path_IsPathRooted_m1347207448
lwg:_ObjectManager_RegisterObjectInternal_m879109503
U5d:_Array_get_swapper_TisVector4_t2243707581_m97441823_gshared
pra:__ZNSt3__26__sortIRNS_4lessIiEEPiEEvT0_S5_T_
ZIc:__ZN14SafeBinaryRead21TransferSTLStyleArrayI10vector_mapINSt3__24pairIttEEfN20TextRenderingPrivate8FontImpl14KerningCompareENS2_9allocatorINS3_IS4_fEEEEEEEvRT_17TransferMetaFlags
JZb:__Z13RegisterClassI15QualitySettingsEvv
BEj:__ZN6il2cpp2vm6String21InitializeEmptyStringEP11Il2CppClass
M$a:__ZN25DeferredRenderLoopScratchD0Ev
Ly:__ZN27AnimationLayerMixerPlayable14SetInputWeightEif
Bx:__ZN7mecanim9animation17EvaluateHumanPoseERKNS0_18ClipMuscleConstantERKNS0_15ClipMuscleInputEPKfRKNS0_12MotionOutputERNS_5human9HumanPoseE
pXf:__ZL90UTF7Encoding_t741406939_CustomAttributesCacheGenerator_UTF7Encoding_GetHashCode_m359766848P21CustomAttributesCache
sRh:__Z52RuntimeInvoker_Decimal_t724701077_Single_t2076509932PK10MethodInfoPvPS2_
bHc:__ZN14dense_hash_mapINSt3__24pairIPK10Collider2DS4_EE11Collision2DNS2_23ColliderPairHashFunctorENS0_8equal_toIS5_EE13stl_allocatorINS1_IKS5_S6_EEL18MemLabelIdentifier65ELi16EEE15set_deleted_keyERSB_
lSb:__ZN15dense_hashtableINSt3__24pairIKiN4core17string_with_labelILi1EEEEEi18SInt32HashFunctionN14dense_hash_mapIiS5_S7_NS0_8equal_toIiEE13stl_allocatorIS6_L18MemLabelIdentifier1ELi16EEE9SelectKeyESA_SD_E9copy_fromERKSG_j
Aea:__ZN6Camera11ResetAspectEv
G0f:__ZL62SecurityProtocolType_t155967584_CustomAttributesCacheGeneratorP21CustomAttributesCache
tTa:__ZNSt3__227__insertion_sort_incompleteIRPFbP10GUIElementS2_EPS2_EEbT0_S7_T_
wDf:_X509BasicConstraintsExtension_get_HasPathLengthConstraint_m3788532759
Rkb:__ZNK17InstancedPropInfo22FillInstancePropertiesER19ShaderPropertySheetjPK17BatchInstanceDatajRK15RenderNodeQueue
Zfa:__ZN22CreateGpuProgramOutputD2Ev
ALb:__Z18Transfer_BlittableI19StreamedBinaryWriteILb0EELb1EsEvRK29SerializationCommandArgumentsR31RuntimeSerializationCommandInfo
Cad:_RSACryptoServiceProvider_EncryptValue_m802714447
Auj:__ZN6il2cpp6icalls8mscorlib6System2IO6MonoIO9SetLengthE12Il2CppIntPtrxPi
xMj:__ZN6il2cpp8metadata22Il2CppSignatureCompare6EqualsERK13dynamic_arrayIPK10Il2CppTypeLj4EES8_
NYf:__ZL76Convert_t2607082565_CustomAttributesCacheGenerator_Convert_ToByte_m932798552P21CustomAttributesCache
zO:__ZN13ProduceHelperI13AudioListenerLb0EE7ProduceE18MemLabelIdentifier18ObjectCreationMode
_pe:_List_1_System_Collections_ICollection_get_SyncRoot_m1594235606_gshared
wTe:_DateTimeFormatInfo_GetInstance_m3133223810
ulf:_ModulusRing_BarrettReduction_m2802101099
XSh:__Z57RuntimeInvoker_ExtenderType_t1556892101_Int32_t2071877448PK10MethodInfoPvPS2_
eLa:__ZN12HandlerChain4OpenER13FileEntryData14FilePermission16FileAutoBehavior
dfi:__Z76RuntimeInvoker_Il2CppObject_UILineInfo_t3621277874_Il2CppObject_Il2CppObjectPK10MethodInfoPvPS2_
oph:_EqualityComparer_1_get_Default_m2134906921_gshared
$Kg:_MonoMethodInfo_GetParametersInfo_m3456861922
Adi:__Z37RuntimeInvoker_UILineInfo_t3621277874PK10MethodInfoPvPS2_
tvc:__ZN27PerformanceReportingManager29OnSceneLoadedAfterAwakeStaticEPS_iR18AwakeFromLoadQueueN19RuntimeSceneManager11LoadingModeE
Q4:__ZN14FileCacherReadD2Ev
uqa:__ZN13RendererScene23UpdatePreviousFrameDataEii
Wad:_RSAPKCS1SignatureDeformatter_VerifySignature_m1825067195
q3i:__ZL25UnresolvedVirtualCall_123P12Il2CppObjectffPK10MethodInfo
dcc:__Z50Register_UnityEngine_CullingGroup_FinalizerFailurev
dme:_KeyValuePair_2_ToString_m2613351884_gshared
dma:__ZN27UnloadUnusedAssetsOperationD0Ev
_ib:__ZN6Camera15ThreadedCleanupEv
mz:__ZN26AnimatorControllerPlayable6MemoryD2Ev
slg:__ZL69ColorBlock_t2652774230_CustomAttributesCacheGenerator_m_DisabledColorP21CustomAttributesCache
vpf:_CipherSuite_get_Code_m3902213587
ath:_Scrollbar__ctor_m2244981801
wuj:__ZN6il2cpp6icalls8mscorlib6System2IO6MonoIO9GetLengthE12Il2CppIntPtrPi
oxg:_ObjectRecord_get_HasPendingFixups_m670959802
zbd:_SHA256Managed_HashCore_m4111458495
INd:_CultureInfo_get_CompareInfo_m3085280862
MNf:__ZL55Dictionary_2_t2276497324_CustomAttributesCacheGeneratorP21CustomAttributesCache
mxg:_ObjectManager_RecordDelayedFixup_m1895730844
Hvj:__ZNK15dense_hashtableINSt3__24pairIK10KeyWrapperIP14Il2CppIUnknownEjEES5_N6il2cpp5utils11PointerHashIS3_EEN14dense_hash_mapIS5_jSB_NS5_14EqualsComparerINS0_8equal_toIS4_EEEENS0_9allocatorIS7_EEE9SelectKeyESG_SI_E12test_deletedERK24dense_hashtable_iteratorIS7_S5_SB_SK_SG_SI_E
ind:_ArrayTypeMismatchException__ctor_m1898555879
Fwe:_List_1_System_Collections_IList_get_IsFixedSize_m3522184224_gshared
jG:__ZN9AudioClip23VirtualRedirectTransferER18StreamedBinaryReadILb0EE
Orf:_ClientSessionInfo_CheckDisposed_m1394638186
ozg:_SByte_Parse_m2544167007
Ggd:_Single_CompareTo_m2081476257
wJd:_StackFrame_GetILOffset_m115192054
_4h:__Z61RuntimeInvoker_Boolean_t3825574718_Int32_t2071877448_IntPtr_tPK10MethodInfoPvPS2_
rdb:__ZN24GenerateTypeTreeTransfer8TransferIN11AssetBundle9AssetInfoEEEvRT_PKc17TransferMetaFlags
Dyg:_RuntimeTypeHandle_GetHashCode_m3697629454_AdjustorThunk
_bf:_BigInteger__ctor_m2945783161
ytf:_TlsClientHello_Update_m1723542631
UTf:__ZL96ProxyAttribute_t4031752430_CustomAttributesCacheGenerator_ProxyAttribute_IsContextOK_m2391079277P21CustomAttributesCache
wXe:_IndexOutOfRangeException__ctor_m3497760912
JPe:_ReadOnlyCollection_1_CopyTo_m1652036789_gshared
Gj:_glCopyTexSubImage2D
ieg:__ZL61GUISkin_t1436893342_CustomAttributesCacheGenerator_m_textAreaP21CustomAttributesCache
E1b:__ZNK24RendererAnimationBinding13GetFloatValueERKN11UnityEngine9Animation10BoundCurveE
pDe:_Collection_1_Insert_m3594407958_gshared
dQa:_UNITY_png_write_zTXt
cW:__ZN18ScreenManagerWebGL13SetShowCursorEb
mFj:__ZN6il2cpp6icalls8mscorlib6System7Convert24InternalFromBase64StringEP12Il2CppStringb
ANa:__ZZ23InitPlayerLoopCallbacksvEN37EarlyUpdateProcessMouseInWindowstruct7ForwardEv
Pyh:_Text_get_preferredWidth_m3352156860
xCg:_AssemblyCompanyAttribute__ctor_m1217508649
T_c:__ZN2UI13CanvasManager14GetRenderOrderEPKNS_6CanvasE
yFb:__Z18Transfer_BlittableI14SafeBinaryReadLb0E5RectTIfEEvRK29SerializationCommandArgumentsR31RuntimeSerializationCommandInfo
Vei:__Z93RuntimeInvoker_Il2CppObject_Vector2_t2243707579_Vector2_t2243707579_Il2CppObject_Il2CppObjectPK10MethodInfoPvPS2_
pPe:_ReadOnlyCollection_1_System_Collections_Generic_IListU3CTU3E_RemoveAt_m878653284_gshared
CTe:_DateTimeFormatInfo_GetFormat_m3676195179
fAa:__ZN14GfxContextGLES14GetFramebufferEv
HZj:_emscripten_glGenVertexArrays__wrapper
_1h:__Z36RuntimeInvoker_HideFlags_t1434274199PK10MethodInfoPvPS2_
lja:__ZN6prcoreL21CreateRemapAnyBlitterE13TextureFormatS0_
nNj:__ZN6il2cpp2os5Event4WaitEjb
f7b:__ZN17AnimationCurveTplIfE16StripInvalidKeysEv
fce:_Array_InternalArray__ICollection_Add_TisKeyValuePair_2_t3716250094_m2381539361_gshared
jjf:_X509Extension_WriteLine_m2850991173
LZc:__ZNK2UI6Canvas17GetSortingLayerIDEv
OKf:__ZL40UIntPtr_t_CustomAttributesCacheGeneratorP21CustomAttributesCache
sEc:__ZN14Raycast2DQuery8RunQueryEb
s3b:__Z13RegisterClassI17GlobalGameManagerEvv
spg:__ZL70GridLayoutGroup_t1515633077_CustomAttributesCacheGenerator_m_StartAxisP21CustomAttributesCache
o7d:_Array_InternalArray__ICollection_Remove_TisInt64_t909078037_m2653583130_gshared
Xse:_List_1_AddCollection_m2628217188_gshared
E4g:_Thread_get_ExecutionContext_m922067206
rS:__ZN11UnityEngine15CloudWebService13WWWRestClient18GetEditableHeadersEv
yrf:_RecordProtocol_get_Context_m2688493529
kha:__ZN4PPtrI7TextureE8TransferI14SafeBinaryReadEEvRT_
n4b:__ZN14PlayableOutput6HandleEv
mKj:__ZN6il2cpp5utils10MemoryPool9AddRegionEj
Fuh:_ScrollRect_get_viewport_m3177057249
un:FUNCTION_TABLE_iiiiiiiiiiiiii
bni:_CustomYieldInstruction_get_Current_m1743233962
w5c:__ZN19UnityConnectService18OnPlayerQuitStaticEPS_
w7h:__Z35RuntimeInvoker_ScaleMode_t987318053PK10MethodInfoPvPS2_
OPc:_UNITY_tt_get_cmap_info
pkd:_DecoderExceptionFallback_GetHashCode_m2972426052
I5a:__ZN16ReflectionProbes8ScheduleEN18ReflectionProbeJob7JobTypeEP15ReflectionProbei
EIe:_Collection_1_IsFixedSize_m3675221982_gshared
xZf:__ZL77Convert_t2607082565_CustomAttributesCacheGenerator_Convert_ToSByte_m883113940P21CustomAttributesCache
J5:__ZN16MessageForwarder13HandleMessageEPviR11MessageData
Poe:_Enumerator_MoveNext_m3293920409_AdjustorThunk
xX:__Z18IsDirectoryCreatedRKN4core12basic_stringIcNS_20StringStorageDefaultIcEEEE
EHg:_GenericTypeParameterBuilder_get_DeclaringType_m1652924692
rMh:_Comparer_1__cctor_m3112251759_gshared
eog:__ZL73ScrollRect_t1199013257_CustomAttributesCacheGenerator_m_VerticalScrollbarP21CustomAttributesCache
GCf:_X509KeyUsageExtension_ToString_m1992050580
vLc:_UNITY_FT_GlyphLoader_Done
uvi:_ConstructionCall__ctor_m1143766850
uVg:_GUIStyleState_Init_m2434147050
sMh:_Comparer_1_System_Collections_IComparer_Compare_m3203078743_gshared
xwg:_ObjectReader_ReadArrayOfString_m3752210963
_Ec:__ZN19OverlapPointQuery2D14InitializeAABBER6b2AABB
meg:__ZL67GUISkin_t1436893342_CustomAttributesCacheGenerator_m_verticalSliderP21CustomAttributesCache
nei:__Z56RuntimeInvoker_Int32_t2071877448_SpriteState_t1353336012PK10MethodInfoPvPS2_
z6i:__ZNK15dense_hashtableINSt3__24pairIK10KeyWrapperIPKcEP11Il2CppClassEES5_N6il2cpp5utils11StringUtils12StringHasherIS4_EEN14dense_hash_mapIS5_S8_SE_NS5_14EqualsComparerINSC_21CaseSensitiveComparerEEENS0_9allocatorIS9_EEE9SelectKeyESI_SK_E10test_emptyERK30dense_hashtable_const_iteratorIS9_S5_SE_SM_SI_SK_E
CQc:_tt_cmap14_char_var_index
m_h:__Z77RuntimeInvoker_TimeSpan_t3430258949_TimeSpan_t3430258949_TimeSpan_t3430258949PK10MethodInfoPvPS2_
$Rc:_psh_globals_new
d2e:_FileStream_Seek_m950719389
ISd:_StandaloneInputModule_set_allowActivationOnMobileDevice_m2631121618
DBd:_Decimal_stripStyles_m294582157
x4g:_UTF8Decoder_GetChars_m3819660582
Nta:__ZN9GfxDevice20SetMaxBufferedFramesEi
ive:_List_1_RemoveAll_m4125997475_gshared
aAc:__ZN10Collider2D19WakeAllBodyContactsEv
$K:__ZN24AudioScriptBufferManagerD2Ev
BTj:dynCall_vdd
o_c:__ZN2UIL17UnloadAllCanvasesEv
j9a:__Z23ConvertIntegerToTypePtrIsEbPvR14SafeBinaryRead
Wxc:__ZN12b2MouseJoint11ShiftOriginERK6b2Vec2
kph:_EqualityComparer_1__ctor_m99476293_gshared
Glf:_BigInteger_Incr2_m505983313
Bii:_PCMReaderCallback_BeginInvoke_m3119095492
Rsd:_ArrayList_get_Count_m523955479
T9h:__Z85RuntimeInvoker_Int32_t2071877448_Vector3_t2243707580_Vector3_t2243707580_Il2CppObjectPK10MethodInfoPvPS2_
lud:_FixedSizeArrayListWrapper_Remove_m1359458911
tja:__ZN6prcoreL29inner_stretch_rgb565_bilinearEPKNS_9InnerInfoE
oFi:_Uri__ctor_m3927533881
Bij:__ZNK15dense_hashtableINSt3__24pairIK10KeyWrapperINS1_IPK14Il2CppAssemblyP11Il2CppClassEEEjEES9_17ReflectionMapHashIS8_EN14dense_hash_mapIS9_jSD_NS9_14EqualsComparerINS0_8equal_toIS8_EEEENS0_9allocatorISB_EEE9SelectKeyESI_SK_E12test_deletedEj
hoh:_EqualityComparer_1_System_Collections_IEqualityComparer_Equals_m3724603646_gshared
mPd:_EventSystem_get_current_m319019811
byh:_Text_get_mainTexture_m813502234
m$h:__Z47RuntimeInvoker_SecurityProtocolType_t3099771628PK10MethodInfoPvPS2_
U_a:__ZNK14RenderSettings19GetFlatAmbientColorEv
E5a:__ZN6prcoreL10inner_flipILj4EEEvPhS1_j
lyb:__ZN18StreamedBinaryReadILb0EE21TransferSTLStyleArrayI10vector_mapIPKN5Unity4TypeE7Hash128NSt3__24lessIS6_EENS8_9allocatorINS8_4pairIS6_S7_EEEEEEEvRT_17TransferMetaFlags
Yu:__ZNK27StateMachineBehaviourPlayer15IsSenderEnabledEv
fgi:_CustomEventData_Add_m1028036439
oNh:_Enumerator_VerifyState_m2118679243_gshared
r1d:_InputField_get_shouldHideMobileInput_m3694613599
nic:__Z40Register_UnityEngine_Transform_SetParentv
Iii:_AudioConfigurationChangeHandler_Invoke_m635374412
owf:_SslClientStream_get_HaveRemoteValidation2Callback_m3555576758
Tsb:__ZN14Texture2DArray17UploadToGfxDeviceEv
LOe:_ReadOnlyCollection_1_System_Collections_Generic_IListU3CTU3E_Insert_m4216310986_gshared
VKe:_ReadOnlyCollection_1_System_Collections_Generic_IListU3CTU3E_set_Item_m1532495847_gshared
WJ:__Z14FMODMemoryFreePvjPKc
yBh:_InternalEnumerator_1_System_Collections_IEnumerator_Reset_m3731327620_AdjustorThunk
cfb:__ZN15dense_hashtableINSt3__24pairIKN4core12basic_stringIcNS2_20StringStorageDefaultIcEEEES6_EES6_20StringHash32FunctionIS6_EN14dense_hash_mapIS6_S6_SA_NS0_8equal_toIS6_EE13stl_allocatorIS8_L18MemLabelIdentifier54ELi16EEE9SelectKeyESD_SG_EC2ERKSJ_j
kkg:__ZL104PointerEventData_t1599784723_CustomAttributesCacheGenerator_PointerEventData_get_worldNormal_m1704987468P21CustomAttributesCache
_Pi:_YieldInstruction_t3462875981_marshal_pinvoke_cleanup
U0d:_Image_AddQuad_m1600600902
sTc:_cf2_glyphpath_moveTo
AKi:_SharedBetweenAnimatorsAttribute__ctor_m1221241062
UTd:_AnimationTriggers_set_disabledTrigger_m609579531
mPf:__ZL47File_t1930543328_CustomAttributesCacheGeneratorP21CustomAttributesCache
qGd:_DateTimeOffset__ctor_m1796624924
sRg:_GUILayoutUtility_get_spaceStyle_m1918520192
jPd:_BaseRaycaster_OnDisable_m1716508791
e7d:_Array_InternalArray__ICollection_Remove_TisKeyValuePair_2_t3716250094_m2566517826_gshared
zHh:_InternalEnumerator_1_MoveNext_m1741571735_gshared
ykc:__ZN5IMGUI14GUIWindowStateD2Ev
_Kf:__ZL82Enum_t2459695545_CustomAttributesCacheGenerator_Enum_GetUnderlyingType_m3513899012P21CustomAttributesCache
dJj:_GC_is_heap_ptr
isj:__GLOBAL__sub_I_Assembly_cpp
Ztf:_TlsServerSettings_set_CertificateRequest_m3419519893
Wt:__ZN7mecanim5human10RetargetToEPKNS0_5HumanEPKNS0_9HumanPoseES6_RKN4math4trsXEPS4_PNS_8skeleton13SkeletonPoseTIS8_EESF_
Yx:__ZN7mecanim9animation8SeekClipERKNS0_12StreamedClipERNS0_18StreamedClipMemoryEf
n9g:_Type_get_IsGenericParameter_m161434704
hIg:_MethodBuilder_get_Attributes_m3678061338
km:_emscripten_glIsTexture
xXg:_Mathf_Clamp_m3542052159
Ttd:_ArrayListWrapper_CopyTo_m793444109
LZf:__ZL79Convert_t2607082565_CustomAttributesCacheGenerator_Convert_ToUInt16_m3265369225P21CustomAttributesCache
Rk:_emscripten_glHint
GWc:_ft_var_readpackeddeltas
JFd:_DateTime_AddMilliseconds_m1813199744_AdjustorThunk
Wyg:_SByte_System_IConvertible_ToSByte_m108774324_AdjustorThunk
lIg:_MethodBuilder_GetParameterCount_m467267889
CJg:_TypeBuilder_IsValueTypeImpl_m1499671481
Hgi:_AnimationEvent_set_intParameter_m1174062029
WFf:_X509ChainStatus_t4278378721_marshal_pinvoke
nof:_RSAManaged__ctor_m1680944437
nm:_SDL_UpperBlit
yUg:_GUIStyle_op_Implicit_m781448948
z$a:__Z35GetTextureDecodeValuesWithIntensity16TextureUsageMode17TextureColorSpace10ColorSpacef
Wqd:_Byte_GetHashCode_m2885528842_AdjustorThunk
Eoj:__ZN15dense_hashtableINSt3__24pairIK10KeyWrapperINS1_IPK9EventInfoP11Il2CppClassEEEjEES9_17ReflectionMapHashIS8_EN14dense_hash_mapIS9_jSD_NS9_14EqualsComparerINS0_8equal_toIS8_EEEENS0_9allocatorISB_EEE9SelectKeyESI_SK_E15set_deleted_keyERKSB_
Dih:_Dictionary_2_OnDeserialization_m2092139626_gshared
Rxc:__ZNK12b2MouseJoint10GetAnchorAEv
Vxj:__ZNK6il2cpp2os6Socket12GetLastErrorEv
rDb:__ZN14SafeBinaryRead20OverrideRootTypeNameEPKc
U_i:__ZNK10KeyWrapperIPK22Il2CppGenericParameterE14EqualsComparerINSt3__28equal_toIS2_EEEclERKS3_SA_
U4:__ZN14FileCacherRead16UnlockCacheBlockEj
nif:_X509Certificate_GetUnsignedBigInteger_m3491353542
lJc:__ZNSt3__26vectorIN4core12basic_stringIcNS1_20StringStorageDefaultIcEEEE13stl_allocatorIS5_L18MemLabelIdentifier34ELi16EEE6assignINS_11__wrap_iterIPS5_EEEENS_9enable_ifIXaasr21__is_forward_iteratorIT_EE5valuesr16is_constructibleIS5_NS_15iterator_traitsISF_E9referenceEEE5valueEvE4typeESF_SF_
Edg:__ZL90Event_t3028476042_CustomAttributesCacheGenerator_Event_Internal_GetMousePosition_m38523489P21CustomAttributesCache
jIb:__Z18Transfer_BlittableI17RemapPPtrTransferLb1E8Vector3fEvRK29SerializationCommandArgumentsR31RuntimeSerializationCommandInfo
a2a:__ZN6Camera6RenderER11CullResultsR17ShaderPassContextPK21CameraRenderingParamsNS_10RenderFlagE
iQf:__ZL57StackBehaviour_t1390406961_CustomAttributesCacheGeneratorP21CustomAttributesCache
Rc:_emscripten_glUniform1f
wYb:__ZN13dynamic_arrayIS_I8Vector2fLj4EELj4EE18resize_initializedEjRKS1_12ResizePolicy
Nwf:_SslStreamBase_get_MightNeedHandshake_m3432170694
WLc:__Z20ParseImageParametersR11UTF16StringRiRN20TextRenderingPrivate16TextFormatChangeE
Wc:_emscripten_glUniform1i
WFh:_InternalEnumerator_1_System_Collections_IEnumerator_Reset_m651165750_AdjustorThunk
iDb:__ZN13MonoBehaviour9CallAwakeEv
zRg:__Z14bankers_roundff
zTh:__Z66RuntimeInvoker_Void_t1841601450_Int32_t2071877448_SByte_t454417549PK10MethodInfoPvPS2_
HTb:__ZN9ShaderLab16SerializedTagMapaSERKS0_
OTh:__Z75RuntimeInvoker_Void_t1841601450_Il2CppObject_Int32_t2071877448_Il2CppObjectPK10MethodInfoPvPS2_
k8d:_SetPropertyUtility_SetStruct_TisFillMethod_t1640962579_m1867757822_gshared
cR:__ZN11UnityEngine15CloudWebService16SessionContainer20RestoreSessionHeaderERKN4core12basic_stringIcNS2_20StringStorageDefaultIcEEEES8_RNS0_13SessionHeaderE
eGd:_DateTime_ToString_m1117481977
G9b:__ZN8Material28ApplyMaterialPropertyDrawersEv
IHg:_GenericTypeParameterBuilder_GetGenericArguments_m277381309
y$i:__ZN24dense_hashtable_iteratorINSt3__24pairIK10KeyWrapperIPK22Il2CppGenericParameterEP11Il2CppClassEES6_N6il2cpp5utils11PointerHashIS4_EEN14dense_hash_mapIS6_S9_SE_NS6_14EqualsComparerINS0_8equal_toIS5_EEEENS0_9allocatorISA_EEE9SelectKeyESJ_SL_E30advance_past_empty_and_deletedEv
GA:__ZN11UnityEngine9Animation27CreateAvatarBindingConstantER9TransformPKN7mecanim9animation14AvatarConstantERNS3_6memory9AllocatorE
aAb:__ZN14SafeBinaryRead21TransferSTLStyleArrayINSt3__26vectorIN30RuntimeInitializeOnLoadManager9ClassInfoE13stl_allocatorIS4_L18MemLabelIdentifier12ELi16EEEEEEvRT_17TransferMetaFlags
Xch:_UnitySerializationHolder_GetObjectData_m2280028722
bBi:_PatternCompiler_EmitFalse_m1188949782
xbh:_UInt64_System_IConvertible_ToDateTime_m2412118561
t9b:__ZN9BlobWriteC2ER13dynamic_arrayIhLj16EE24TransferInstructionFlags19BuildTargetPlatform
n3:__ZN14MessageHandler3GetEv
RSg:_GUISkin_set_verticalScrollbarThumb_m2647835739
GAa:__ZN10DynamicVBO9DrawChunkERK21DynamicVBOChunkHandle17ShaderChannelMaskS3_P17VertexDeclarationPKNS_10DrawParamsEi
id:_emscripten_glAttachShader
CNe:_ReadOnlyCollection_1__ctor_m1539890895_gshared
Mta:__ZN9GfxDevice13SetActiveTierE12GraphicsTier
zne:_Enumerator_System_Collections_IEnumerator_get_Current_m3079057684_AdjustorThunk
yye:_List_1_System_Collections_ICollection_get_SyncRoot_m1804424478_gshared
Uwb:__ZNSt3__26vectorIN4core12basic_stringIcNS1_20StringStorageDefaultIcEEEENS_9allocatorIS5_EEE6assignIPS5_EENS_9enable_ifIXaasr21__is_forward_iteratorIT_EE5valuesr16is_constructibleIS5_NS_15iterator_traitsISC_E9referenceEEE5valueEvE4typeESC_SC_
dff:_KeyPairPersistence_get_UserPath_m3433052783
tFe:_Collection_1_ClearItems_m1410275009_gshared
mKf:__ZL58Decimal_t724701077_CustomAttributesCacheGenerator_MinusOneP21CustomAttributesCache
n9d:_Array_InternalArray__IEnumerable_GetEnumerator_TisKeyframe_t1449471340_m3949799719_gshared
kFb:__Z18Transfer_BlittableI14SafeBinaryReadLb0E11QuaternionfEvRK29SerializationCommandArgumentsR31RuntimeSerializationCommandInfo
kAc:__ZN13BoxCollider2D16CheckConsistencyEv
w$h:__Z45RuntimeInvoker_X509RevocationMode_t2065307963PK10MethodInfoPvPS2_
LPb:__Z18Transfer_BlittableI18StreamedBinaryReadILb0EELb1E12PropertyNameEvRK29SerializationCommandArgumentsR31RuntimeSerializationCommandInfo
M6f:__ZL99MonoBehaviour_t1158329972_CustomAttributesCacheGenerator_MonoBehaviour_set_useGUILayout_m2666356651P21CustomAttributesCache
n2d:_InputField_get_inputType_m2187991661
pV:_tlsf_walk_heap
Nhf:_PKCS12_Decode_m731190390
Rqj:__ZNK15dense_hashtableINSt3__24pairIK10KeyWrapperIP11Il2CppClassES4_EES5_N6il2cpp8metadata16SZArrayClassHashEN14dense_hash_mapIS5_S4_SA_NS5_14EqualsComparerINS9_19SZArrayClassCompareEEENS0_9allocatorIS7_EEE9SelectKeyESE_SG_E10test_emptyERK24dense_hashtable_iteratorIS7_S5_SA_SI_SE_SG_E
cHh:_InternalEnumerator_1_get_Current_m1550231132_gshared
TDi:_Reference_get_IgnoreCase_m2810892634
idh:_Version_CheckedSet_m76493673
mb:invoke_vif
$gg:__ZL99SendMouseEvents_t3505065032_CustomAttributesCacheGenerator_SendMouseEvents_SetMouseMoved_m532965689P21CustomAttributesCache
nb:invoke_vid
xRj:__ZNSt3__212basic_stringIcNS_11char_traitsIcEENS_9allocatorIcEEE6insertEjPKc
PWf:__ZL67UnverifiableCodeAttribute_t765455733_CustomAttributesCacheGeneratorP21CustomAttributesCache
pb:invoke_vii
P3f:__ZL86Component_t3819376471_CustomAttributesCacheGenerator_Component_SendMessage_m3615678587P21CustomAttributesCache
hog:__ZL82ScrollRect_t1199013257_CustomAttributesCacheGenerator_m_HorizontalScrollbarSpacingP21CustomAttributesCache
G$d:_LayoutGroup_get_padding_m1653511445
uNi:_Transform_get_localRotation_m4001487205
hbb:__ZN12TLSAllocatorI14StackAllocatorE16ThreadInitializeEP13BaseAllocator
ptd:_ArrayList_Sort_m2778059513
nhg:__ZL107StackTraceUtility_t1881293839_CustomAttributesCacheGenerator_StackTraceUtility_SetProjectFolder_m2154926761P21CustomAttributesCache
L$d:_LayoutGroup_SetChildAlongAxis_m2732017156
K$c:__Z41CanvasRenderer_CUSTOM_DisableRectClippingP12Il2CppObject
enf:_MD2_Create_m539024737
vyd:_SortedList_get_SyncRoot_m3299704254
Rpe:_List_1_System_Collections_ICollection_CopyTo_m2020941110_gshared
Xyd:_Slot_t2267560602_marshal_pinvoke
HYh:__Z51RuntimeInvoker_UInt16_t986882611_Single_t2076509932PK10MethodInfoPvPS2_
Fsg:_SoapAttribute_get_XmlNamespace_m1436066016
TKa:__ZN25SingleBlockMemoryFileDataD0Ev
jdb:__ZNSt3__26vectorI14ConstantStringNS_9allocatorIS1_EEE6assignINS_11__wrap_iterIPS1_EEEENS_9enable_ifIXaasr21__is_forward_iteratorIT_EE5valuesr16is_constructibleIS1_NS_15iterator_traitsISA_E9referenceEEE5valueEvE4typeESA_SA_
ZQ:__ZN11UnityEngine15CloudWebService16SessionContainer21ConvertFromFolderTimeERKN4core12basic_stringIcNS2_20StringStorageDefaultIcEEEEPjPt
zGb:__ZNSt3__26vectorI8GUIStyle13stl_allocatorIS1_L18MemLabelIdentifier1ELi16EEE7reserveEj
esj:__ZN6il2cpp6icalls8mscorlib6System9Threading6Thread27GetSerializedCurrentCultureEP12Il2CppThread
ube:_Array_InternalArray__IndexOf_TisUInt32_t2149682021_m3231515987_gshared
PYi:_ListPool_1__cctor_m709904475_gshared
s1h:__Z83RuntimeInvoker_Void_t1841601450_QuaternionU26_t4187826802_QuaternionU26_t4187826802PK10MethodInfoPvPS2_
d$b:__Z31CalculateHierarchyTransformType23TransformAccessReadOnly
r8i:__ZN15dense_hashtableINSt3__24pairIK10KeyWrapperI13dynamic_arrayIPK10Il2CppTypeLj4EEEPFvvEEES8_N6il2cpp8metadata19Il2CppSignatureHashEN14dense_hash_mapIS8_SB_SF_NS8_14EqualsComparerINSE_22Il2CppSignatureCompareEEENS0_9allocatorISC_EEE9SelectKeyESJ_SL_E12resize_deltaEjj
CZb:__Z13RegisterClassI11TimeManagerEvv
MJ:__ZN4FMOD8ChannelI11setPositionEjj
TAc:__ZN10Collider2D12SetPolygon2DEP9Polygon2D
rmi:_Component_SendMessage_m913946877
Yog:__ZL75ToggleGroup_t1030026315_CustomAttributesCacheGenerator_U3CU3Ef__amU24cache1P21CustomAttributesCache
qyi:_SynchronizedClientContextSink__ctor_m978504596
j9:__ZN17BaseObjectManager13StaticDestroyEPv
HLi:_TextGenerationSettings_CompareVector2_m592645251
Bbg:__ZL137AnimatorControllerPlayable_t4078305555_CustomAttributesCacheGenerator_AnimatorControllerPlayable_INTERNAL_CALL_GetFloatString_m4205749063P21CustomAttributesCache
ohg:__ZL108StackTraceUtility_t1881293839_CustomAttributesCacheGenerator_StackTraceUtility_ExtractStackTrace_m1593581205P21CustomAttributesCache
TGd:_DBNull_System_IConvertible_ToChar_m3344298044
_if:_X509Certificate_GetObjectData_m3888130484
Ezb:__ZNSt3__26vectorIN15ResourceManager10DependencyE13stl_allocatorIS2_L18MemLabelIdentifier51ELi16EEEC2INS_11__wrap_iterIPS2_EEEET_SB_RKS5_PNS_9enable_ifIXaasr21__is_forward_iteratorISB_EE5valuesr16is_constructibleIS2_NS_15iterator_traitsISB_E9referenceEEE5valueEvE4typeE
e1h:__Z45RuntimeInvoker_IMECompositionMode_t1898275508PK10MethodInfoPvPS2_
dni:_CustomYieldInstruction_Reset_m3409422382
qAi:_LinkStack_Push_m2660199875
GI:__ZN4FMOD6Reverb13setPropertiesEPK22FMOD_REVERB_PROPERTIES
Cfi:_CustomEventData_AddChar_m1103619816
QVa:__ZN9DepthPass13PrepareSubsetEjRK10RenderNodeifRK17ShaderReplaceData
lWg:_Input_get_compositionString_m636835668
wHi:_X509CertificateCollection_Add_m4008705157
Urg:_MonoMethodMessage_set_Uri_m3218581120
U5b:__Z35SetMeshComponentFromArrayFromScriptR4Mesh30InternalScriptingShaderChannel34InternalScriptingVertexChannelTypei17ScriptingArrayPtri
x7b:__Z18ExtractTagThrowingR11ICallString
Yha:__ZN4PPtrI6ShaderE8TransferI19StreamedBinaryWriteILb0EEEEvRT_
MFe:_Collection_1_IsFixedSize_m1816795498_gshared
HNa:__ZZ23InitPlayerLoopCallbacksvEN40EarlyUpdatePlayerCleanupCachedDatastruct7ForwardEv
xq:__ZN4core20StringStorageDefaultIcE6assignEPKcj
eSg:_GUIStyleState_GetBackgroundInternal_m439046630
xxj:__ZN15dense_hashtableINSt3__24pairIK10KeyWrapperIP12Il2CppObjectEN6il2cpp2gc9CachedCCWEEES5_NS7_5utils11PointerHashIS3_EEN14dense_hash_mapIS5_S9_SD_NS5_14EqualsComparerINS0_8equal_toIS4_EEEENS0_9allocatorISA_EEE9SelectKeyESI_SK_E3endEv
dAb:__Z14resize_trimmedINSt3__26vectorIi13stl_allocatorIiL18MemLabelIdentifier12ELi16EEEEEvRT_j
sSd:_MouseButtonEventData_ReleasedThisFrame_m482758300
wpj:__ZN15dense_hashtableINSt3__24pairIK10KeyWrapperINS1_IP11Il2CppClassjEEES4_EES6_N6il2cpp8metadata14ArrayClassHashEN14dense_hash_mapIS6_S4_SB_NS6_14EqualsComparerINSA_17ArrayClassCompareEEENS0_9allocatorIS8_EEE9SelectKeyESF_SH_E9copy_fromERKSK_j
qud:_ReadOnlyArrayListWrapper_set_Item_m2199017141
r3a:__ZN6Camera6SetFarEf
rHi:_DeriveBytes_DeriveIV_m3343375195
tNc:_UNITY_FT_Init_Class_ft_bitmap_glyph_class
had:_RNGCryptoServiceProvider_GetBytes_m167497991
_ja:__ZN6prcoreL12RemapGenericI17TexFormatABGR888817TexFormatARGB8888EEvPKNS_9InnerInfoE
Zgb:__ZN11GameManager17MainThreadCleanupEv
hqi:_AnimatorControllerPlayable_INTERNAL_CALL_GetAnimatorControllerInternal_m239716681
k5i:__ZL25UnresolvedVirtualCall_225P12Il2CppObjecti22UICharInfo_t3056636800PK10MethodInfo
Ddj:__ZN6il2cpp6icalls8mscorlib6System18CollectTypeMethodsINS_5utils10functional6FilterINSt3__212basic_stringIcNS7_11char_traitsIcEENS7_9allocatorIcEEEENS4_11StringUtils23CaseInsensitiveComparerEEEEEvP11Il2CppClassPKSH_jRKT_RNS7_6vectorIPK10MethodInfoNSB_ISR_EEEERA65535_b
IFg:_TypeBuilder_get_Assembly_m492491492
$3i:__ZL25UnresolvedVirtualCall_160P12Il2CppObject23RaycastResult_t21186376PK10MethodInfo
GHe:_Collection_1_InsertItem_m1225429801_gshared
vAc:__ZN10Collider2D12AddToManagerEv
tVc:_UNITY_tt_slot_init
U7c:_HMACSHA512__cctor_m1167457383
YQb:__Z25scripting_array_class_get17ScriptingClassPtrj
zqc:__ZL22Transfer_ManagedObjectI9JSONWriteLb1EEvRK29SerializationCommandArgumentsR31RuntimeSerializationCommandInfo
gva:__ZN9GfxDevice20DestroyRenderSurfaceER12ObjectHandleI17RenderSurface_TagP17RenderSurfaceBaseE
E$b:__ZL24PrepareSpriteRenderNodesILb1EEvR35RenderNodeQueuePrepareThreadContext
HIa:__ZN9GfxDevice22UpdateComputeResourcesEjPK9TextureIDPK16TextureDimensionPKijPKjjPK15ComputeBufferIDS7_PK20ComputeBufferCounterjSC_S2_S5_S9_SF_
a3b:__ZN12_GLOBAL__N_15qAsinEff
yie:_Dictionary_2_Do_ICollectionCopyTo_TisKeyValuePair_2_t3749587448_m2536766696_gshared
ibb:__ZN12TLSAllocatorI14StackAllocatorE13ThreadCleanupEv
mO:__Z18GetAudioManagerPtrv
qqe:_List_1_GetEnumerator_m2837081829_gshared
o0h:__Z67RuntimeInvoker_Void_t1841601450_Int16_t4041245914_Int16_t4041245914PK10MethodInfoPvPS2_
cFj:__ZThn4_N6il2cpp2vm13ComObjectBase16MarshalInterfaceEP13Il2CppIStreamRK10Il2CppGuidPvjS7_j
Mtb:__ZN4Mesh27SwizzleVertexColorsIfNeededEb
Qbb:__Z27FindActiveTransformWithPathPKc
NTh:__Z63RuntimeInvoker_DSAParameters_t1872138834_BooleanU26_t3168250738PK10MethodInfoPvPS2_
Mag:__ZL151AnimatorControllerPlayable_t4078305555_CustomAttributesCacheGenerator_AnimatorControllerPlayable_INTERNAL_CALL_CrossFadeInFixedTimeInternal_m3528719771P21CustomAttributesCache
wki:_CanvasGroup_get_alpha_m1304564441
bib:__ZN12BaseRendererD0Ev
a9a:__Z29StdTemplateConversionFunctionIbyEbPvR14SafeBinaryRead
jlh:_DefaultComparer__ctor_m899694595_gshared
iii:_AsyncOperation_Finalize_m67522446
g_h:__Z56RuntimeInvoker_TimeSpan_t3430258949_TimeSpan_t3430258949PK10MethodInfoPvPS2_
jPa:_UNITY_png_write_info
WXa:__ZNK6Camera7GetNearEv
Pza:__ZN7ApiGLES11UnmapBufferEjN2gl12BufferTargetE
RAj:__ZN6il2cpp5utilsL24Utf32CharToSurrogatePairEjRA2_Ds
Vnb:__Z25GetNextAllowedTextureSizeib13TextureFormat
eX:__ZN20LocalFileSystemWebGL4CopyER13FileEntryDataS1_
bwe:_List_1_CheckIndex_m4231572822_gshared
ZS:__ZN19CloudServiceHandler6RetainEv
UMj:__ZN6il2cpp2os9Semaphore4WaitEb
vxc:__ZN15b2FrictionJointD0Ev
Wed:_StrongName_Equals_m67226644
jib:__ZN12BaseRenderer20FlattenToRenderQueueER15RenderNodeQueueRK20DeprecatedSourceData
KGg:_FieldBuilder_get_Attributes_m2174064290
P5e:_UnmanagedMemoryStream_get_Length_m587008850
Ema:__Z34scripting_liveness_calculation_endPv
lDj:__ZN6il2cpp2os6ThreadC2Ev
Lfd:_SecurityFrame_InitFromRuntimeFrame_m45195821
HPf:__ZL53TextReader_t1561828458_CustomAttributesCacheGeneratorP21CustomAttributesCache
KEf:_X509Chain_IsSignedWith_m292245392
iBj:__ZNK6il2cpp2os10SocketImpl12GetLastErrorEv
j7d:_Array_InternalArray__ICollection_Remove_TisDateTime_t693205669_m1275668216_gshared
Oih:_Dictionary_2__ctor_m871840915_gshared
GNe:_ReadOnlyCollection_1_System_Collections_Generic_ICollectionU3CTU3E_Remove_m3751131234_gshared
Trc:__Z18Transfer_BlittableI8JSONReadLb0E8Vector3fEvRK29SerializationCommandArgumentsR31RuntimeSerializationCommandInfo
Pvi:_ChannelServices__cctor_m3534779830
Zqj:__ZN6il2cpp2vm6Thread6DetachEP12Il2CppThread
jRc:_Render_Single_Pass
vCd:_Convert_ToInt16_m416789348
Nkd:_EncoderExceptionFallback_Equals_m762170768
g2i:__ZL24UnresolvedVirtualCall_59P12Il2CppObjectS0_aPK10MethodInfo
mqh:_EqualityComparer_1__cctor_m2666196678_gshared
cQg:_GUIStyle_Init_m3872198731
MA:__ZN7mecanim8skeleton30SkeletonBuildReverseIndexArrayEPiPKiPKNS0_8SkeletonES6_
xjc:__Z19GetGUIBlendMaterialv
HBj:__ZN6il2cpp2os10ThreadImpl5SleepEjb
QJi:_X509ExtensionCollection_System_Collections_IEnumerable_GetEnumerator_m2600902401
l2c:__ZN11UnityEngine9Analytics15UserCustomEvent3AddEPKcb
tBb:__ZN15FileSystemEntry4MoveERS_23FileSystemCopyMoveFlags
Cyf:_ListDictionary_FindEntry_m432748847
gZj:_glBindSampler__wrapper
HTi:_UnityAction_1_Invoke_m3523417209_gshared
Pf:_emscripten_set_mouseup_callback
uIa:__ZN9GfxDevice27SetRandomWriteTargetTextureEi9TextureID
oYh:__Z48RuntimeInvoker_Int64_t909078037_SByte_t454417549PK10MethodInfoPvPS2_
rbg:__ZL123AnimatorControllerPlayable_t4078305555_CustomAttributesCacheGenerator_AnimatorControllerPlayable_Play_m2286317581____layer1P21CustomAttributesCache
JKi:_SpaceAttribute__ctor_m1444406696
nW:__ZNK18ScreenManagerWebGL8GetWidthEv
MTj:dynCall_iiifii
Vaj:__ZN6il2cpp2vm13MetadataCache33GetFieldDefaultValueDataFromIndexEi
s$d:_GridLayoutGroup_set_startAxis_m1635162426
QF:__ZN10SampleClipD2Ev
vyi:_SynchronizationAttribute_EnterContext_m2984912761
jLf:__ZL73Enum_t2459695545_CustomAttributesCacheGenerator_Enum_ToObject_m2601523252P21CustomAttributesCache
UNd:_CultureInfo_construct_internal_locale_from_name_m971766383
GBj:__ZN6il2cpp2os10ThreadImpl13SetWaitObjectEPNS0_5posix15PosixWaitObjectE
Yqd:_Byte_Equals_m368616327_AdjustorThunk
Vce:_Array_InternalArray__ICollection_Add_TisUIVertex_t1204258818_m3869382594_gshared
TD:__Z56AnimationOffsetPlayable_CUSTOM_INTERNAL_CALL_GetPositionR9HPlayableR8Vector3f
PUc:_cff_cmap_unicode_init
NSa:__ZNSt3__224__buffered_inplace_mergeIRN10vector_mapIiN17InstancedPropInfo12PropertyTypeENS_4lessIiEE13stl_allocatorINS_4pairIiS3_EEL18MemLabelIdentifier1ELi16EEE13value_compareENS_11__wrap_iterIPS8_EEEEvT0_SH_SH_T_NS_15iterator_traitsISH_E15difference_typeESL_PNSK_10value_typeE
lgg:__ZL95CustomEventData_t1269126727_CustomAttributesCacheGenerator_CustomEventData_AddInt64_m1803231272P21CustomAttributesCache
lLd:_Enum_ToObject_m2460371738
Xcf:_PrimalityTests_Test_m1088386156
X4:__ZN14FileCacherRead13GetFileLengthEv
wlc:__Z36Event_CUSTOM_Internal_SetNativeEvent13Il2Cpp_IntPtr
YPj:_readlink
gmj:__ZN15dense_hashtableINSt3__24pairIK10KeyWrapperINS1_IPK9EventInfoP11Il2CppClassEEEjEES9_17ReflectionMapHashIS8_EN14dense_hash_mapIS9_jSD_NS9_14EqualsComparerINS0_8equal_toIS8_EEEENS0_9allocatorISB_EEE9SelectKeyESI_SK_E12resize_deltaEjj
Yge:_Array_Resize_TisVector3_t2243707580_m893658391_gshared
tDh:_InternalEnumerator_1_System_Collections_IEnumerator_get_Current_m4259662004_AdjustorThunk
rke:_Array_InternalArray__get_Item_TisKeyframe_t1449471340_m1003508933_gshared
_Kj:__ZN6il2cpp8metadata14Il2CppTypeHash4HashEPK10Il2CppType
Hhf:_StrongName_get_PublicKeyToken_m1968460885
Kwb:__ZNK6Sprite9GetBoundsE8Vector2fbb
uRa:__ZNK19RenderEventsContext21CleanupCommandBuffersEv
pya:__ZN11ContextGLES6CreateEi
u$e:_BinaryReader_Dispose_m4249456877
z8i:__ZN15dense_hashtableINSt3__24pairIK10KeyWrapperI13dynamic_arrayIPK10Il2CppTypeLj4EEEPFvvEEES8_N6il2cpp8metadata19Il2CppSignatureHashEN14dense_hash_mapIS8_SB_SF_NS8_14EqualsComparerINSE_22Il2CppSignatureCompareEEENS0_9allocatorISC_EEE9SelectKeyESJ_SL_E12maybe_shrinkEv
ABd:_Double_ToString_m1085043609
xQb:__Z19TransferField_ArrayI18StreamedBinaryReadILb0EE27Converter_SimpleNativeClassI17AnimationCurveTplIfEEEvRK23StaticTransferFieldInfoR31RuntimeSerializationCommandInfoRT0_
Ipf:_CipherSuite_createEncryptionCipher_m1926075645
Vab:__ZN14StackAllocator16FrameMaintenanceEb
K_d:_Graphic_Raycast_m3582517890
Eeb:__Z18ReadStringFromFilePN4core17string_with_labelILi1EEERKNS_12basic_stringIcNS_20StringStorageDefaultIcEEEE
t0:__ZNK10GameObject20QueryComponentByTypeEPKN5Unity4TypeE
Eoe:_Enumerator_MoveNext_m1367380970_AdjustorThunk
YIg:_OpCode_GetHashCode_m2974727122
Jpf:_CipherSuite_createDecryptionCipher_m1118350455
vBi:_PatternCompiler_EmitReference_m1381860071
WE:__Z78AnimatorControllerPlayable_CUSTOM_INTERNAL_CALL_IsParameterControlledByCurveIDR9HPlayablei
bKd:_Double_System_IConvertible_ToInt16_m4200640326
odc:__Z53Register_UnityEngine_GameObject_get_activeInHierarchyv
MHg:_GenericTypeParameterBuilder_get_IsGenericType_m1883522222
G1h:__Z90RuntimeInvoker_Single_t2076509932_Single_t2076509932_Single_t2076509932_Single_t2076509932PK10MethodInfoPvPS2_
v_:__ZL30InitializeCoreScriptingClassesv
CIe:_Collection_1_CheckWritable_m3938993573_gshared
Kg:_glBlitFramebuffer
DMa:__ZN17ArchiveFileSystem5TouchER13FileEntryData
huf:_SecurityParameters_set_Cipher_m3888132335
ddf:_BigInteger_GeneratePseudoPrime_m2606361440
$Ue:_DateTimeFormatInfo_get_ShortTimePattern_m20923983
ZHb:__Z35Transfer_Blittable_SingleValueFieldI14SafeBinaryReadhEvRT_R17GeneralMonoObjectRK23StaticTransferFieldInfo
ong:__ZL140U3CMouseDragOutsideRectU3Ec__Iterator1_t2599668326_CustomAttributesCacheGenerator_U3CMouseDragOutsideRectU3Ec__Iterator1_Dispose_m2134284531P21CustomAttributesCache
Jdg:__ZL90Event_t3028476042_CustomAttributesCacheGenerator_Event_Internal_SetNativeEvent_m1899228752P21CustomAttributesCache
E6c:__ZN22BaseUnityConnectClientC2ERN11UnityEngine7Connect20BasePersistentValuesE
pUh:__Z129RuntimeInvoker_Int32_t2071877448_Il2CppObject_Int32_t2071877448_Int32_t2071877448_Il2CppObject_Int32_t2071877448_SByte_t454417549PK10MethodInfoPvPS2_
ugf:_EncryptedPrivateKeyInfo_get_Algorithm_m2779196942
Asg:_RemotingServices_GetRealProxy_m620317996
qWa:__ZN13dynamic_arrayI11CulledLightLj4EE6insertEPS0_PKS0_S4_
aBh:_ArrayReadOnlyList_1_RemoveAt_m2270349795_gshared
K7i:__ZNK15dense_hashtableI10KeyWrapperIPK19Il2CppGenericMethodES4_N6il2cpp8metadata23Il2CppGenericMethodHashEN14dense_hash_setIS4_S7_NS4_14EqualsComparerINS6_26Il2CppGenericMethodCompareEEENSt3__29allocatorIS4_EEE8IdentityESB_SE_E3endEv
ORi:_Predicate_1_Invoke_m2060780095_gshared
Raj:__ZN6il2cpp2vm13MetadataCache23GetInterfaceOffsetIndexEi
Sn:FUNCTION_TABLE_vif
Tn:FUNCTION_TABLE_vid
Vn:FUNCTION_TABLE_vii
Qma:__Z40scripting_liveness_calculation_from_root18ScriptingObjectPtrPv
aPa:_UNITY_png_create_write_struct
nTh:__Z149RuntimeInvoker_Boolean_t3825574718_Int32_t2071877448_Il2CppObject_Int32_t2071877448_Int32_t2071877448_Il2CppObject_Int32_t2071877448_SByte_t454417549PK10MethodInfoPvPS2_
ffa:__ZN7Texture23VirtualRedirectTransferER24GenerateTypeTreeTransfer
AKc:_UNITY_FT_Set_Transform
u1b:__ZNK32RendererMaterialAnimationBinding12SetPPtrValueERKN11UnityEngine9Animation10BoundCurveEi
qAh:_ArrayReadOnlyList_1_Contains_m1266627404_gshared
NYj:_glDeleteFramebuffers__wrapper
k0d:_Image_get_overrideSprite_m706080347
hlf:_BigInteger_ModInverse_m1881894572
Acj:__ZN6il2cpp2vm7Runtime17GetDelegateInvokeEP11Il2CppClass
Dog:__ZL59Slider_t297367283_CustomAttributesCacheGenerator_m_FillRectP21CustomAttributesCache
Zse:_List_1_AddEnumerable_m3541747636_gshared
EYb:__Z22GenerateBoxTilingShapeP22GenerateTilingAreaInfo
dpb:__ZN28EnlightenRendererInformation8TransferI14SafeBinaryReadEEvRT_
MRf:__ZL69DefaultDependencyAttribute_t3858269114_CustomAttributesCacheGeneratorP21CustomAttributesCache
zJa:__ZNK15Lz4Decompressor16DecompressMemoryEPKvPjPvS2_
FPc:_UNITY_tt_face_build_cmaps
i$g:_Ray_ToString_m2019179238
oGc:__ZN11Rigidbody2D8TransferI24GenerateTypeTreeTransferEEvRT_
nab:__ZNSt3__26__treeINS_12__value_typeIN4core12basic_stringIcNS2_20StringStorageDefaultIcEEEEPN16MemoryFileSystem4NodeEEENS_19__map_value_compareIS6_SA_NS_4lessIS6_EELb1EEE13stl_allocatorISA_L18MemLabelIdentifier54ELi16EEE4findIS6_EENS_15__tree_iteratorISA_PNS_11__tree_nodeISA_PvEEiEERKT_
sHd:_Decimal_System_IConvertible_ToType_m3828527724_AdjustorThunk
A2d:_InputField_get_caretPositionInternal_m3011712053
SOc:_UNITY_tt_face_load_os2
Ymf:_HMAC_get_Key_m2528863640
oJe:_Collection_1_IsSynchronized_m1366278230_gshared
gXf:__ZL93StringBuilder_t1221177846_CustomAttributesCacheGenerator_StringBuilder_AppendLine_m1686706871P21CustomAttributesCache
AHb:__Z29Transfer_Blittable_ArrayFieldI14SafeBinaryRead8Vector4fEvRT_R9ArrayInfoRK23StaticTransferFieldInfo
I5d:_Array_get_swapper_TisInt32_t2071877448_m2837069166_gshared
kkj:__ZN6il2cpp2gc19AppendOnlyGCHashMapINSt3__24pairIPK10MethodInfoP11Il2CppClassEEP22Il2CppReflectionMethod17ReflectionMapHashIS9_ENS2_8equal_toIS9_EEE3AddERKS9_SB_
E0g:_RectTransform_INTERNAL_get_rect_m1177342209
HEe:_Collection_1_Clear_m268154422_gshared
MRd:_PointerEventData_IsScrolling_m1971908975
dDj:__ZN6il2cpp2os26LibraryNamePrefixAndSuffixD2Ev
zcg:__ZL53UILineInfo_t3621277874_CustomAttributesCacheGeneratorP21CustomAttributesCache
EHd:_Decimal_System_IConvertible_ToInt16_m3159038792
xx:__ZN7mecanim9animation12EvaluateClipEPKNS0_4ClipEPKNS0_9ClipInputEPNS0_10ClipMemoryEPNS0_10ClipOutputE
ppb:__ZN4PPtrI11LightProbesE8TransferI18StreamedBinaryReadILb0EEEEvRT_
qui:_ComVisibleAttribute__ctor_m1789587486
kMg:_MonoMethodInfo_GetReturnType_m2864247130
f0a:__ZN13RenderManager29SetCurrentCameraAndStackStateEP6CameraP25CameraStackRenderingState
Lqj:__ZN15dense_hashtableINSt3__24pairIK10KeyWrapperINS1_IP11Il2CppClassjEEES4_EES6_N6il2cpp8metadata14ArrayClassHashEN14dense_hash_mapIS6_S4_SB_NS6_14EqualsComparerINSA_17ArrayClassCompareEEENS0_9allocatorIS8_EEE9SelectKeyESF_SH_E12resize_deltaEjj
Zh:_JS_WebRequest_Release
H0e:_DirectoryNotFoundException__ctor_m2242202556
xR:__ZN11UnityEngine15CloudWebService14DataErrorEventD0Ev
wjd:_String_CreateString_m2448464375
pGf:_X509SubjectKeyIdentifierExtension__ctor_m2959112706
$Jg:_FieldInfo_get_IsNotSerialized_m2322769148
X_f:__ZL68Math_t2022911894_CustomAttributesCacheGenerator_Math_Max_m2671311541P21CustomAttributesCache
Hwj:__ZN6il2cpp8metadata15GenericMetadata7InflateEPK19Il2CppGenericMethodPK20Il2CppGenericContext
hSa:__ZN19ShaderPropertySheet16SetArrayPropertyEN9ShaderLab16FastPropertyNameENS_12PropertyTypeEPKvj
dMg:_MonoGenericCMethod_get_ReflectedType_m2689239043
pJe:_Collection_1_IsFixedSize_m499196375_gshared
DWd:_ColorTween_set_startColor_m3546206870_AdjustorThunk
dxj:__ZN15dense_hashtableINSt3__24pairIK10KeyWrapperIP12Il2CppObjectEN6il2cpp2gc9CachedCCWEEES5_NS7_5utils11PointerHashIS3_EEN14dense_hash_mapIS5_S9_SD_NS5_14EqualsComparerINS0_8equal_toIS4_EEEENS0_9allocatorISA_EEE9SelectKeyESI_SK_E16reset_thresholdsEv
y8f:__ZL96Transform_t3275118058_CustomAttributesCacheGenerator_Transform_INTERNAL_set_rotation_m3703763817P21CustomAttributesCache
VJf:__ZL63String_t_CustomAttributesCacheGenerator_String_Split_m394273024P21CustomAttributesCache
JYc:__ZN2UI11CanvasGroup23VirtualRedirectTransferER19StreamedBinaryWriteILb0EE
gGh:_InternalEnumerator_1_get_Current_m4083613828_gshared
Hkc:__ZN8GUIState8EndOnGUIEv
Y2g:_UnicodeEncoding_GetString_m542738941
AVc:_UNITY_TT_Get_VMetrics
g0e:_Path_InsecureGetFullPath_m2635272425
nzd:_Enumerator_Clone_m1124749523
oFd:_DateTime_System_IConvertible_ToUInt32_m1363211018
kyg:_RuntimeMethodHandle__ctor_m1162528746
qnj:__ZN15dense_hashtableINSt3__24pairIK10KeyWrapperIPK14Il2CppAssemblyEPK16MonoAssemblyNameEES6_N6il2cpp5utils11PointerHashIS4_EEN14dense_hash_mapIS6_SA_SF_NS6_14EqualsComparerINS0_8equal_toIS5_EEEENS0_9allocatorISB_EEE9SelectKeyESK_SM_E16reset_thresholdsEv
Kye:_List_1_AsReadOnly_m4108578222_gshared
EAg:_DSA__ctor_m613430209
f8d:_SetPropertyUtility_SetStruct_TisSingle_t2076509932_m3849235084_gshared
aBa:__ZN7Texture21GetMasterTextureLimitEv
H4a:__Z12CanAddScriptR10GameObject17ScriptingClassPtrPS1_S2_
fpj:__ZN6il2cpp2vm10Reflection12HasAttributeEP12Il2CppObjectP11Il2CppClass
yQa:_UNITY_png_write_sRGB
Ytc:__ZN8JSONRead21TransferSTLStyleArrayI13dynamic_arrayI4AABBLj4EEEEvRT_18MemLabelIdentifier17TransferMetaFlags
gTi:_InvokableCall_1__ctor_m121193486_gshared
D0:__ZN9ShaderLabL25StaticInitializeShaderLabEPv
okh:_Dictionary_2_ContainsKeyValuePair_m3818021458_gshared
U:Math_max
yJe:_Collection_1_System_Collections_IList_Insert_m1511106741_gshared
N2i:__ZL24UnresolvedVirtualCall_92P12Il2CppObjectPK10MethodInfo
ofj:_il2cpp_class_get_methods
j0e:_Path_CanonicalizePath_m383914732
mNh:_Enumerator_System_Collections_IEnumerator_get_Current_m1631145297_gshared
utd:_ArrayList_Synchronized_m2395071980
rDj:__ZN6il2cpp2os6Thread16GetCurrentThreadEv
v3b:__ZN10GameObject13ComponentPair15SetComponentPtrEPN5Unity9ComponentE
J5e:_UnexceptionalStreamWriter_Write_m3206913035
nZb:__Z13RegisterClassI10MeshFilterEvv
bD:__ZNK26AnimatorControllerPlayable24GetAnimatorClipInfoCountEib
Xhb:__ZN10TagManager8TransferI19StreamedBinaryWriteILb0EEEEvRT_
tEb:__ZN11PreloadData23VirtualRedirectTransferER18StreamedBinaryReadILb0EE
LEj:__ZN6il2cpp6icalls8mscorlib6System10ReflectionL40il2cpp_class_get_generic_type_definitionEP11Il2CppClass
CAg:_DESTransform_ProcessBlock_m2826669227
X$h:__Z115RuntimeInvoker_Void_t1841601450_Il2CppObject_Int32_t2071877448_Int32_t2071877448_SByte_t454417549_Int32_t2071877448PK10MethodInfoPvPS2_
bYe:_Int16_CompareTo_m3493496879
l7h:__Z36RuntimeInvoker_Direction_t1525323322PK10MethodInfoPvPS2_
t7f:__ZL56RenderTexture_t2666733923_CustomAttributesCacheGeneratorP21CustomAttributesCache
_gg:__ZL56ColorWriteMask_t926634530_CustomAttributesCacheGeneratorP21CustomAttributesCache
Drb:__ZN6Sprite17MainThreadCleanupEv
D1f:__ZL56OidCollection_t3790243618_CustomAttributesCacheGeneratorP21CustomAttributesCache
cWf:__ZL61SignatureDescription_t89145500_CustomAttributesCacheGeneratorP21CustomAttributesCache
IFh:_InternalEnumerator_1_MoveNext_m3389738333_AdjustorThunk
cL:__ZN10AudioMixer14UpdateMuteSoloEv
hRa:__Z17GetMonoManagerPtrv
gmi:_Component_GetComponents_m637589504
oBe:_Stack_1_System_Collections_ICollection_get_SyncRoot_m3151629354_gshared
Brh:_MaskableGraphic_UnityEngine_UI_IClippable_get_gameObject_m954171032
Tfa:__ZN9ShaderLab10SubProgram7CompileEv
dAa:__ZN7ApiGLES16SetPatchVerticesEi
f3e:_MonoIOStat_t1621921065_marshal_pinvoke
hKa:__ZN10MemoryFileC2E18MemLabelIdentifierP14MemoryFileData14FilePermission
Itg:_TrackingServices_NotifyUnmarshaledObject_m1794048369
o$i:__ZN6il2cpp2vm5Class20FromGenericParameterEPK22Il2CppGenericParameter
kUf:__ZL59RemotingServices_t2399536837_CustomAttributesCacheGeneratorP21CustomAttributesCache
zT:__ZN19CloudServiceHandler11FlushEventsEv
Kri:_AnimatorControllerPlayable_INTERNAL_CALL_GetAnimatorClipInfoInternal_m3180917212
J8:__ZN15GlobalCallbacksC2Ev
Vcb:__ZN11AssetBundle8TransferI14SafeBinaryReadEEvRT_
XOh:__Z76RuntimeInvoker_Int32_t2071877448_Il2CppObject_Int32_t2071877448_Il2CppObjectPK10MethodInfoPvPS2_
yfe:_Array_InternalArray__set_Item_TisLabelFixup_t4090909514_m565370771_gshared
JDc:__ZN7b2World10CreateBodyEPK9b2BodyDef
$Lc:_UNITY_FT_New_Memory_Face
u0f:__ZL74X509Crl_t1699034837_CustomAttributesCacheGenerator_U3CU3Ef__switchU24map13P21CustomAttributesCache
Axg:_SerializationEntry__ctor_m1619256036_AdjustorThunk
qE:__Z81AnimatorControllerPlayable_CUSTOM_INTERNAL_CALL_GetAnimatorTransitionInfoInternalR9HPlayablei
UNa:__ZZ23InitPlayerLoopCallbacksvEN43PostLateUpdatePlayerSendFrameCompletestruct7ForwardEv
kta:__ZN26VertexDeclarationCacheGLES24DestroyVertexDeclarationEP17VertexDeclaration
Oed:__Z15CastclassSealedP12Il2CppObjectP11Il2CppClass
NYb:__ZN15ApplicationInfo14GetSandboxTypeEv
eXg:_Material_HasProperty_m3175512802
dIb:__Z18Transfer_BlittableI17RemapPPtrTransferLb1EhEvRK29SerializationCommandArgumentsR31RuntimeSerializationCommandInfo
KDj:__ZNSt3__26vectorIjNS_9allocatorIjEEE26__swap_out_circular_bufferERNS_14__split_bufferIjRS2_EE
O2a:__ZN16ReflectionProbes40UpdateRealtimeReflectionProbesTimeslicedEv
BYi:_ListPool_1_Get_m529219189_gshared
qzj:__ZNSt3__26__treeINS_12__value_typeIP24Il2CppReflectionAssemblyPvEENS_19__map_value_compareIS3_S5_NS_4lessIS3_EELb1EEENS_9allocatorIS5_EEE16__insert_node_atEPNS_16__tree_node_baseIS4_EERSF_SF_
jIg:_MethodBuilder_GetBaseDefinition_m774166361
Jvg:_FormatterConverter__ctor_m3958982477
a1b:__ZN16ReflectionProbes15InitializeClassEv
sKj:__ZN6il2cpp5utils5MatchENSt3__212basic_stringIcNS1_11char_traitsIcEENS1_9allocatorIcEEEEjRKS7_j
TMc:_UNITY_FT_Destroy_Class_psnames_module_class
_yc:__ZNK12b2WheelJoint17GetReactionTorqueEf
L8f:__ZL81Transform_t3275118058_CustomAttributesCacheGenerator_Transform_Rotate_m1743927093P21CustomAttributesCache
ZAi:_MRUList_Evict_m2430323183
iOe:_ReadOnlyCollection_1_System_Collections_Generic_ICollectionU3CTU3E_Remove_m1060547576_gshared
qyj:__ZN6il2cpp2vm5Image9GetCorlibEv
w5e:_NullTextWriter_Write_m2306984725
yA:__ZN8Animator13BatchedFKPassERK13dynamic_arrayIP14PlayableOutputLj4EE
Ruf:_RecordProtocol_ProcessChangeCipherSpec_m3233959862
Yli:_Component_GetComponent_m4225719715
VZd:_Graphic_set_raycastTarget_m1229173591
Uhe:_Array_Sort_TisVector4_t2243707581_m474199742_gshared
kte:_List_1_CheckIndex_m2247532995_gshared
Kfg:__ZL93GUIUtility_t3275770671_CustomAttributesCacheGenerator_GUIUtility_set_guiIsExiting_m2362636745P21CustomAttributesCache
r5e:_TextWriter_Write_m576684782
jPi:_Vector3_Max_m2105825185
Vj:_glIsVertexArray
AF:__Z100Register_UnityEngine_Experimental_Director_AnimatorControllerPlayable_INTERNAL_CALL_SetIntegerStringv
wAb:__ZNSt3__26vectorIN4core12basic_stringIcNS1_20StringStorageDefaultIcEEEE13stl_allocatorIS5_L18MemLabelIdentifier12ELi16EEEC2INS_11__wrap_iterIPS5_EEEET_SE_RKS8_PNS_9enable_ifIXaasr21__is_forward_iteratorISE_EE5valuesr16is_constructibleIS5_NS_15iterator_traitsISE_E9referenceEEE5valueEvE4typeE
gKa:__ZN25SingleBlockMemoryFileDataC2E18MemLabelIdentifierPvjb
jcb:__ZN5Unity9Component8TransferI18StreamedBinaryReadILb0EEEEvRT_
fa:invoke_fff
tyh:_Text_get_fontSize_m3105730761
SVj:b14
guf:_TlsServerHello_Update_m1740270635
UXc:__ZN2UI6Canvas17MainThreadCleanupEv
$uh:_ScrollRect_Rebuild_m3423824761
Oye:_List_1_Find_m3862454845_gshared
VBc:__ZTv0_n12_N10ClipperLib7ClipperD1Ev
OAi:_MatchCollection_get_Item_m2609281578
WGa:__ZN7ApiGLES13CreateProgramEv
Ojb:__ZN11HaloManager7AddHaloEv
W3g:_UTF8Encoding__ctor_m100325490
nBa:__ZN4crnd12crn_unpackerD2Ev
Yxh:_StencilMaterial_ClearAll_m1372779118
fk:_emscripten_glTexImage2D
_rg:_ObjRefSurrogate_SetObjectData_m1873902916
lVc:_tt_driver_class_pic_init
n_:__ZN18ScriptingArguments9AddStringEPKc
hIj:_setup_header
LLe:_ReadOnlyCollection_1_System_Collections_IList_get_IsReadOnly_m1367736517_gshared
D3f:__ZL116Component_t3819376471_CustomAttributesCacheGenerator_Component_GetComponentsInParent_m1920178904____includeInactive1P21CustomAttributesCache
ySj:runPostSets
ujg:__ZL93AxisEventData_t1524870173_CustomAttributesCacheGenerator_AxisEventData_set_moveDir_m254243794P21CustomAttributesCache
qpa:__ZL23stbir__resize_arbitraryPvPKviiiS_iiiffffPfiij14stbir_datatype12stbir_filterS4_10stbir_edgeS5_16stbir_colorspace
Gue:_List_1_System_Collections_IList_Insert_m848656350_gshared
VJb:__Z18Transfer_BlittableI24GenerateTypeTreeTransferLb1E8Vector4fEvRK29SerializationCommandArgumentsR31RuntimeSerializationCommandInfo
BYe:_Int16_ToString_m3971652088_AdjustorThunk
i3i:__ZL25UnresolvedVirtualCall_115P12Il2CppObjecttaaPK10MethodInfo
qk:_pthread_detach
wbj:__ZN6il2cpp2vm19SocketPollingThread7RunLoopEv
Yle:_KeyValuePair_2__ctor_m1640124561_AdjustorThunk
dAi:_MethodDictionary_AllocInternalProperties_m3261295876
Ufc:__ZN15DirectorManager20ScheduleGraphDestroyERK14HPlayableGraph
_ra:__ZNSt3__213__stable_sortIRN10vector_mapI17ScriptingClassPtrPKN5Unity4TypeENS_4lessIS2_EENS_9allocatorINS_4pairIS2_S6_EEEEE13value_compareENS_11__wrap_iterIPSB_EEEEvT0_SJ_T_NS_15iterator_traitsISJ_E15difference_typeEPNSM_10value_typeEi
T1f:__ZL77U3CPrivateImplementationDetailsU3E_t1486305139_CustomAttributesCacheGeneratorP21CustomAttributesCache
sUb:__ZN9ShaderLab25SerializedTextureProperty8TransferI24GenerateTypeTreeTransferEEvRT_
Vdb:__ZN15dense_hashtableINSt3__24pairIKN4core12basic_stringIcNS2_20StringStorageDefaultIcEEEEP11AssetBundleEES6_20StringHash32FunctionIS6_EN14dense_hash_mapIS6_S9_SC_NS0_8equal_toIS6_EENS0_9allocatorISA_EEE9SelectKeyESF_SH_E12resize_deltaEjj
x1j:_emscripten_glIsShader__wrapper
Zmj:__ZN6il2cpp2gc19AppendOnlyGCHashMapINSt3__24pairIPK14Il2CppAssemblyP11Il2CppClassEEP24Il2CppReflectionAssembly17ReflectionMapHashIS9_ENS2_8equal_toIS9_EEEC2Ev
BQc:_tt_cmap14_char_next
KQf:__ZL69AssemblyTrademarkAttribute_t3740556705_CustomAttributesCacheGeneratorP21CustomAttributesCache
Uwa:__ZN13GfxDeviceGLES28GetNativeVertexBufferPointerEP9GfxBuffer
dea:__ZN11NamedObject8TransferI18StreamedBinaryReadILb0EEEEvRT_
UFa:__ZNK17GPUSkinPoseBuffer12GetBoneCountEv
Dmc:__Z32GUIStyle_Get_Custom_PropFontSizeP12Il2CppObject
rxg:_DelegatePInvokeWrapper_CallbackHandler_t362827733
r$f:__ZL59ResolveEventArgs_t1859808873_CustomAttributesCacheGeneratorP21CustomAttributesCache
QTi:_UnityAction_1_BeginInvoke_m3462722079_gshared
svj:__ZNK15dense_hashtableINSt3__24pairIK10KeyWrapperIP14Il2CppIUnknownEjEES5_N6il2cpp5utils11PointerHashIS3_EEN14dense_hash_mapIS5_jSB_NS5_14EqualsComparerINS0_8equal_toIS4_EEEENS0_9allocatorIS7_EEE9SelectKeyESG_SI_E12test_deletedEj
TJg:_EventInfo_get_MemberType_m3337516651
Esc:__Z18Transfer_BlittableI8JSONReadLb1EyEvRK29SerializationCommandArgumentsR31RuntimeSerializationCommandInfo
Nk:_emscripten_glMatrixMode
Tr:__ZN8Animator23VirtualRedirectTransferER18StreamedBinaryReadILb0EE
nQf:__ZL93TypeBuilder_t3308873219_CustomAttributesCacheGenerator_TypeBuilder_GetConstructors_m774120094P21CustomAttributesCache
v1e:_NotSupportedException__ctor_m836173213
Krg:_MethodReturnDictionary__ctor_m756139344
TQ:__ZN11UnityEngine15CloudWebService14DataDispatcher16PrepareDataBlockERNS0_16SessionContainerE
lHa:__ZN18GfxFramebufferGLES5ClearE13GfxClearFlagsRK10ColorRGBAffib
Nze:_List_1_GetIndex_m2513359832_gshared
CCh:_InternalEnumerator_1__ctor_m967618647_gshared
Kci:__Z62RuntimeInvoker_ParameterModifier_t1820634920_Int32_t2071877448PK10MethodInfoPvPS2_
QPb:__ZL26Transfer_SimpleNativeClassI18StreamedBinaryReadILb0EE10RectOffsetLb0EEvRK29SerializationCommandArgumentsR31RuntimeSerializationCommandInfo
QMc:_UNITY_ft_destroy_default_module_classes
lre:_List_1_CheckMatch_m1772343151_gshared
zVa:__ZL12DepthPassJobPN21GfxDeviceAsyncCommand10ArgScratchEPKNS_3ArgE
XSb:__ZNSt3__26vectorIN9ShaderLab20SerializedSubProgram16TextureParameterENS_9allocatorIS3_EEE6assignINS_11__wrap_iterIPS3_EEEENS_9enable_ifIXaasr21__is_forward_iteratorIT_EE5valuesr16is_constructibleIS3_NS_15iterator_traitsISC_E9referenceEEE5valueEvE4typeESC_SC_
V_e:_IntPtr_Equals_m1214967011_AdjustorThunk
Gxe:_List_1_Add_m3591975577_gshared
G$c:__Z55Register_UnityEngine_CanvasGroup_get_ignoreParentGroupsv
PZb:__Z13RegisterClassI19LowerResBlitTextureEvv
Ajg:__ZL100PointerEventData_t1599784723_CustomAttributesCacheGenerator_U3CpointerPressRaycastU3Ek__BackingFieldP21CustomAttributesCache
Rm:FUNCTION_TABLE_iiiiiiiiiiii
pjb:__ZN16GraphicsSettingsD0Ev
H8a:__Z29StdTemplateConversionFunctionIshEbPvR14SafeBinaryRead
F_j:_pthread_mutex_init__wrapper
F1a:__ZN15LODGroupManager21CalculateLODDataArrayERK13LODParametersPK6Cameraf
n:cttz_i8
eTc:_UNITY_FT_GlyphLoader_Add
HCh:_InternalEnumerator_1_System_Collections_IEnumerator_get_Current_m1004764375_AdjustorThunk
y9f:__ZL108Physics2D_t2540166467_CustomAttributesCacheGenerator_Physics2D_GetRayIntersectionAll_m253330691____distance1P21CustomAttributesCache
dVe:_DateTimeFormatInfo_get_FullDateTimePattern_m2607507656
Guf:_HttpsClientStream_RaiseServerCertificateValidation_m3356770426
sMf:__ZL73Il2CppArray_CustomAttributesCacheGenerator_Array_BinarySearch_m3052238307P21CustomAttributesCache
fJd:_DelegateSerializationHolder__ctor_m3915060553
zAb:__ZN15SerializeTraitsINSt3__26vectorIN30RuntimeInitializeOnLoadManager9ClassInfoE13stl_allocatorIS3_L18MemLabelIdentifier12ELi16EEEEE8TransferI24GenerateTypeTreeTransferEEvRS7_RT_
mie:_Array_swap_TisUIVertex_t1204258818_TisUIVertex_t1204258818_m1163375424_gshared
Jl:_emscripten_glViewport
sYb:__Z21GenerateTilingAreaJobP22GenerateTilingAreaInfoj
REj:__ZN6il2cpp6icalls8mscorlib6System15MonoCustomAttrs17IsDefinedInternalEP12Il2CppObjectP20Il2CppReflectionType
wtb:__ZN4Mesh21UnswizzleVertexColorsEb
Q9:__ZN30dense_hashtable_const_iteratorINSt3__24pairIKN4core12basic_stringIcNS2_20StringStorageDefaultIcEEEEP11AssetBundleEES6_20StringHash32FunctionIS6_EN14dense_hash_mapIS6_S9_SC_NS0_8equal_toIS6_EENS0_9allocatorISA_EEE9SelectKeyESF_SH_EppEv
Xtf:_TlsServerSettings_set_CertificateTypes_m264196087
SDh:_InternalEnumerator_1__ctor_m4150855019_gshared
hGd:_DateTime_ToString_m2276663647_AdjustorThunk
iVc:_cff_parse_font_bbox
mac:__Z35Application_Get_Custom_PropIsEditorv
xB:__GLOBAL__sub_I_runtime_animation2_lump_cpp
wyb:__ZN14PlayerSettings23VirtualRedirectTransferER18StreamedBinaryReadILb0EE
ule:_KeyValuePair_2__ctor_m3201181706_AdjustorThunk
lNj:__ZN6il2cpp2os5Event5ResetEv
bLe:_ReadOnlyCollection_1_System_Collections_IList_Insert_m1130110335_gshared
Pri:_AnimatorControllerPlayable_GetCurrentAnimatorClipInfoCount_m335090574
twj:__ZN6il2cpp8metadata15GenericMetadata17InflateParametersEPK13ParameterInfohPK20Il2CppGenericContextb
e_e:_Int64_System_IConvertible_ToUInt32_m850395426_AdjustorThunk
Z1:__ZN18AwakeFromLoadQueue28InvokePersistentManagerAwakeEPNS_4ItemEj17AwakeFromLoadMode
B6f:__ZL93MonoBehaviour_t1158329972_CustomAttributesCacheGenerator_MonoBehaviour_IsInvoking_m1469271462P21CustomAttributesCache
wii:_PCMReaderCallback_Invoke_m3610389815
R7c:_HMACSHA512__ctor_m2390736870
Tu:__ZNK17AnimationPlayable27GetNextCompatibleDescendantEi
rs:__ZN8Animator20ProcessAnimationsJobEPNS_11AnimatorJobEj
vwb:__ZN4PPtrI6SpriteE8TransferI18StreamedBinaryReadILb0EEEEvRT_
sGg:_TypeBuilder_GetInterfaces_m1818658502
jwf:_TlsException_get_Alert_m4022765752
Xkf:_BigInteger_op_Equality_m2683055762
Maa:__Z25SetNeedToPerformRenderingb
yMg:_MonoMethod_GetPseudoCustomAttributes_m466965107
rDi:__ZN21InterfaceFuncInvoker0IP19LinkRef_t2090853131E6InvokeEjP11Il2CppClassP12Il2CppObject
rZa:__ZNSt3__227__insertion_sort_incompleteIR23CompareReflectionProbesP31RuntimeReflectionProbeBlendInfoEEbT0_S5_T_
OVa:__ZN14qsort_internal30FindAndMovePivotToLastPositionIP15RODataDepthPassi17ROSorterDepthPassEEvT_S4_T0_T1_
L1g:_ResourceRequest_t2560315377_marshal_pinvoke
Xdh:_Enumerator_System_Collections_IDictionaryEnumerator_get_Value_m3005608231_gshared
B1i:__ZL24UnresolvedVirtualCall_26P12Il2CppObjectS0_iiPK10MethodInfo
Sqh:_MaskUtilities_NotifyStencilStateChanged_m1527407683
M1a:__ZN12CullingGroup10SendEventsEPK17CullingGroupEventj
Fef:_DSAManaged_GenerateKeyPair_m2711647034
r7a:__ZN13sorted_vectorINSt3__24pairIN4core12basic_stringIcNS2_20StringStorageDefaultIcEEEES6_EEN10vector_mapIS6_S6_27compare_tstring_insensitiveIS6_E13stl_allocatorIS7_L18MemLabelIdentifier37ELi16EEE13value_compareESD_E9erase_oneIS6_EEjRKT_
Xpb:__ZThn32_NK8Renderer8GetLayerEv
yce:_Array_InternalArray__ICollection_Add_TisResourceCacheItem_t333236149_m1151081240_gshared
QOe:_ReadOnlyCollection_1_System_Collections_Generic_ICollectionU3CTU3E_get_IsReadOnly_m2197226755_gshared
LCd:_Convert_ToInt32_m2209788057
Vyj:__ZN30dense_hashtable_const_iteratorINSt3__24pairIK10KeyWrapperINS1_IPKcS4_EEEiEES6_24NamespaceAndNamePairHashN14dense_hash_mapIS6_iS9_NS6_14EqualsComparerI26NamespaceAndNamePairEqualsEENS0_9allocatorIS8_EEE9SelectKeyESD_SF_E30advance_past_empty_and_deletedEv
dvg:_SoapServices_GetXmlTypeForInteropType_m3821579913
oqh:_EqualityComparer_1_System_Collections_IEqualityComparer_Equals_m3601790950_gshared
zfg:__ZL117GUIStyle_t1799908754_CustomAttributesCacheGenerator_GUIStyle_INTERNAL_CALL_Internal_GetCursorPixelPosition_m562482816P21CustomAttributesCache
w$j:_emscripten_glTexParameterfv__wrapper
dEi:_CaptureAssertion_IsComplex_m1433259302
e_g:_Physics2D_INTERNAL_CALL_Internal_Raycast_m489831109
fgj:_il2cpp_method_get_param_count
gYb:__ZN10systeminfo19ISOToSystemLanguageERN4core12basic_stringIcNS0_20StringStorageDefaultIcEEEE
Slj:__ZNK15dense_hashtableINSt3__24pairIK10KeyWrapperINS1_IPK12PropertyInfoP11Il2CppClassEEEjEES9_17ReflectionMapHashIS8_EN14dense_hash_mapIS9_jSD_NS9_14EqualsComparerINS0_8equal_toIS8_EEEENS0_9allocatorISB_EEE9SelectKeyESI_SK_E3endEv
qGc:__ZN11Rigidbody2D8TransferI19StreamedBinaryWriteILb0EEEEvRT_
ENj:__ZN6il2cpp8metadata26Il2CppGenericMethodCompare6EqualsEPK19Il2CppGenericMethodS4_
Jca:__ZNSt3__26vectorIP10MemoryPool13stl_allocatorIS2_L18MemLabelIdentifier72ELi16EEE21__push_back_slow_pathIKS2_EEvRT_
VMi:_TouchScreenKeyboard_get_active_m1442597648
N1f:__ZL68Uri_t19570940_CustomAttributesCacheGenerator_U3CU3Ef__switchU24map15P21CustomAttributesCache
ARc:_ps_dimension_done
fUd:_LayoutRebuilder_MarkLayoutForRebuild_m640589351
KXc:__Z46Register_UnityEngine_TextGenerator_Dispose_cppv
ORd:_PointerEventData_get_pressEventCamera_m724559964
bed:_String_IndexOfUnchecked_m3356721554
Kob:__ZN16LightmapSettings8TransferI14SafeBinaryReadEEvRT_
zCa:__ZN17BufferManagerGLES13ReleaseBufferEP14DataBufferGLES
fSh:__Z94RuntimeInvoker_Int32_t2071877448_Il2CppObject_Int32_t2071877448_Int32_t2071877448_Il2CppObjectPK10MethodInfoPvPS2_
Csc:__Z18Transfer_BlittableI8JSONReadLb1EjEvRK29SerializationCommandArgumentsR31RuntimeSerializationCommandInfo
$ng:__ZL63ScrollRect_t1199013257_CustomAttributesCacheGenerator_m_InertiaP21CustomAttributesCache
lHi:_PKCS12_Decrypt_m1557069392
Lyh:_VertexHelper_AddUIVertexQuad_m280792808
MBf:_WebHeaderCollection_ToString_m1246460752
fEh:_InternalEnumerator_1_System_Collections_IEnumerator_get_Current_m2842514953_AdjustorThunk
x9h:__Z56RuntimeInvoker_Boolean_t3825574718_UriScheme_t1876590943PK10MethodInfoPvPS2_
kp:stackSave
GJi:_X509CrlEntry_get_Extensions_m79989256
WRc:_ps_dimension_end
Uec:__Z41Register_UnityEngine_Mesh_Internal_Createv
jab:__ZN16MemoryFileSystem5TouchER13FileEntryData
Vvb:__ZN14SpriteRenderer23VirtualRedirectTransferER24GenerateTypeTreeTransfer
rwj:__ZNK15dense_hashtableI10KeyWrapperIP18Il2CppGenericClassES3_N6il2cpp8metadata22Il2CppGenericClassHashEN14dense_hash_setIS3_S6_NS3_14EqualsComparerINS5_25Il2CppGenericClassCompareEEENSt3__29allocatorIS3_EEE8IdentityESA_SD_E12test_deletedERK30dense_hashtable_const_iteratorIS3_S3_S6_SF_SA_SD_E
q0i:__ZN6il2cpp2vm5Class14GetNestedTypesEP11Il2CppClassPPv
s8c:_MACTripleDES_Initialize_m1318099802
Knf:_MD5SHA1_VerifySignature_m507888141
jqd:_Byte_System_IConvertible_ToChar_m4188836679
NUe:_NumberFormatter_InitDecHexDigits_m2036076025
Aeh:_Enumerator_get_CurrentKey_m3839846791_AdjustorThunk
ntc:__ZN8JSONRead21TransferSTLStyleArrayI13dynamic_arrayIaLj1EEEEvRT_18MemLabelIdentifier17TransferMetaFlags
x3a:__ZN6Camera9SetAspectEf
MWd:_ColorTween_get_ignoreTimeScale_m641454126_AdjustorThunk
xa:invoke_viiffiii
kLe:_ReadOnlyCollection_1_Contains_m1800950533_gshared
Okg:__ZL79TouchInputModule_t2561058385_CustomAttributesCacheGenerator_m_ForceModuleActiveP21CustomAttributesCache
O0j:_emscripten_glBindVertexArray__wrapper
mnf:_MD4__ctor_m2366413460
vni:_Display__ctor_m563295973
Ffg:__ZL97GUIStyle_t1799908754_CustomAttributesCacheGenerator_GUIStyle_Internal_CalcMinMaxWidth_m3660306863P21CustomAttributesCache
Zjh:_Dictionary_2_InitArrays_m435313205_gshared
NF:__ZN10ObjectPoolIN4FMOD3DSPENS0_4DSPIEE7GetFreeEi
t4a:__ZN9Transform37InitializeTransformHierarchyRecursiveER18TransformHierarchyRii
c$b:__Z34DefaultPrepareDispatchBoundsUpdateR13RendererScene18MemLabelIdentifier
WZd:_Graphic_get_useLegacyMeshGeneration_m1366444625
Kmg:__ZL65InputField_t1631627530_CustomAttributesCacheGenerator_m_InputTypeP21CustomAttributesCache
z2i:__ZL24UnresolvedVirtualCall_78P12Il2CppObjectPK10MethodInfo
Ucf:_ModulusRing_Pow_m1137250399
yKh:_InternalEnumerator_1_MoveNext_m2410670600_AdjustorThunk
Iwf:_SslStreamBase_resetBuffer_m3028042362
LRa:__ZN17MeshRenderingData4InitEP4MeshS1_iP15SharedGfxBufferS3_
zTi:_InvokableCall_2_Find_m1763382885_gshared
VNe:_ReadOnlyCollection_1_System_Collections_ICollection_get_SyncRoot_m2779904122_gshared
Boh:_EqualityComparer_1_System_Collections_IEqualityComparer_Equals_m1682986002_gshared
Swd:_Hashtable__cctor_m2952659675
ZFf:_X509ChainStatus__ctor_m3628359961_AdjustorThunk
Wfe:_Array_InternalArray__set_Item_TisUICharInfo_t3056636800_m1953167516_gshared
red:_Evidence_get_HostEvidenceList_m2095478124
eic:__Z57Register_UnityEngine_Transform_INTERNAL_set_localPositionv
Pqf:_Context_Clear_m4000337070
fxa:__ZN13GfxDeviceGLES26SetRandomWriteTargetBufferEi15ComputeBufferID
JIf:_IntervalCollection_Normalize_m538796191
szd:_Console_SetEncodings_m342145566
dNi:_TrackedReference_op_Equality_m3491334086
NZd:_FontUpdateTracker_UntrackText_m3827316510
Sdb:__ZN18AssetBundleManager19RegisterAssetBundleEP11AssetBundle
Ukj:__ZN6il2cpp2gc19AppendOnlyGCHashMapINSt3__24pairIPK11Il2CppImageP11Il2CppClassEEP22Il2CppReflectionModule17ReflectionMapHashIS9_ENS2_8equal_toIS9_EEE10CopyValuesEPv
gke:_Array_InternalArray__get_Item_TisSingle_t2076509932_m1495809753_gshared
Nfe:_Array_InternalArray__set_Item_TisAnimatorClipInfo_t3905751349_m978873279_gshared
z7b:__ZNK11ICallString6ToUTF8Ev
bEi:_CaptureAssertion_get_Alternate_m2729005740
mGj:_GC_number_stack_black_listed
Fvj:__ZN24dense_hashtable_iteratorINSt3__24pairIK10KeyWrapperIP14Il2CppIUnknownEjEES5_N6il2cpp5utils11PointerHashIS3_EEN14dense_hash_mapIS5_jSB_NS5_14EqualsComparerINS0_8equal_toIS4_EEEENS0_9allocatorIS7_EEE9SelectKeyESG_SI_E30advance_past_empty_and_deletedEv
PVa:__ZNSt3__211__sift_downIR17ROSorterDepthPassP15RODataDepthPassEEvT0_S5_T_NS_15iterator_traitsIS5_E15difference_typeES5_
fDg:_Default_SelectMethod_m3081239996
oha:__ZN18UnityPropertySheet11UnityTexEnvC2Ev
x9b:__ZNSt3__214__split_bufferIPN9BlobWrite11TypeContextENS_9allocatorIS3_EEE10push_frontERKS3_
Ds:__ZN8Animator17ApplyOnAnimatorIKEiRNS_11AnimatorJobE
c5:__ZN12FileAccessor4ReadEyyPvPy
Qfa:__ZN13dynamic_arrayI16ShaderKeywordSetLj4EE6insertEPS0_PKS0_S4_
QQb:__Z29Transfer_Blittable_ArrayFieldI18StreamedBinaryReadILb0EE11QuaternionfEvRT_R9ArrayInfoRK23StaticTransferFieldInfo
eAi:_MethodDictionary_IsOverridenKey_m3922224650
fyd:_SyncHashtable_Contains_m3042906549
wAe:_List_1_System_Collections_IList_set_Item_m4016273526_gshared
oGf:_X509KeyUsageExtension_CopyFrom_m931530012
Y2a:__ZN13RenderTexture9SetHeightEi
flb:__ZN16LevelGameManager8TransferI24GenerateTypeTreeTransferEEvRT_
Tli:_Color32__ctor_m1932627809_AdjustorThunk
uxf:_SslStreamBase_Read_m1036897444
Gsh:_RectMask2D_PerformClipping_m1232012832
suj:__ZN6il2cpp6icalls8mscorlib6System2IO6MonoIO17GetFileAttributesEP12Il2CppStringPi
hfh:_Transform_1_Invoke_m4020530914_gshared
gQc:_tt_cmap8_char_index
J_:__Z24scripting_class_get_name17ScriptingClassPtr
X6:__ZN13RuntimeStaticI15GUIEventManagerLb0EE13StaticDestroyEPv
pEa:__ZN7ApiGLES14TextureSamplerEjj17TextureFilterMode15TextureWrapModeifb18ShadowSamplingModeN2gl17TextureSrgbDecodeE
d4b:__ZN15DirectorManager18ScheduleGraphStartERK14HPlayableGraph
Gfi:_CustomEventData_AddUInt16_m3349298376
KGb:__Z29Transfer_Blittable_ArrayFieldI14SafeBinaryReadjEvRT_R9ArrayInfoRK23StaticTransferFieldInfo
Oji:_Camera_FireOnPostRender_m94860165
dBb:__ZN23PreloadManagerOperationD0Ev
me:_emscripten_set_keydown_callback
Cxd:_Enumerator_get_Value_m3684748062
Yhb:__ZN19StreamedBinaryWriteILb0EE21TransferSTLStyleArrayINSt3__26vectorI17SortingLayerEntryNS2_9allocatorIS4_EEEEEEvRT_17TransferMetaFlags
lah:_UInt32_Parse_m3371984903
k5:__ZN12FileAccessorC2Ev
n4h:__Z52RuntimeInvoker_Void_t1841601450_ColorU26_t3402129837PK10MethodInfoPvPS2_
QIi:_X509CertificateCollection_Compare_m1014334435
l4a:__ZN9Transform35SetLocalPositionWithoutNotificationERKN4math7_float3E
RBi:_PatternLinkStack_GetCurrent_m2994645935
Nib:__ZN6Camera8TransferI19StreamedBinaryWriteILb0EEEEvRT_
cSe:_Comparison_1__ctor_m2929820459_gshared
Fsi:_AnimatorControllerPlayable_PlayInFixedTime_m2629510873
Jyi:_AsyncResult__ctor_m1183194429
uB:__ZN4PPtrI13MonoBehaviourE8TransferI18StreamedBinaryReadILb0EEEEvRT_
gAi:_MethodDictionary_set_Item_m3475146889
abi:__Z54RuntimeInvoker_Void_t1841601450_LabelFixup_t4090909514PK10MethodInfoPvPS2_
qUf:__ZL62WellKnownObjectMode_t2630225581_CustomAttributesCacheGeneratorP21CustomAttributesCache
$yh:_Toggle_PlayEffect_m3950629415
i8d:_SetPropertyUtility_SetStruct_TisColorBlock_t2652774230_m2085520896_gshared
Z8h:__Z69RuntimeInvoker_Void_t1841601450_Int32_t2071877448_Vector3_t2243707580PK10MethodInfoPvPS2_
bEb:__Z39WriteQueueForTransferSignatureIntoCacheRK31TransferFunctionScriptingTraitsRK24TransferRequestSignature17ScriptingClassPtrR23CachedSerializationDataRb
Ona:__ZN13RenderManager18UpdateAllRenderersEv
e3c:__ZN22BaseUnityConnectClient30OnEnteringStatePausedOrStoppedEv
rCc:__ZN10ClipperLib7Clipper18SwapPositionsInAELEPNS_5TEdgeES2_
dIe:_Collection_1_System_Collections_ICollection_get_SyncRoot_m2157752542_gshared
U8i:__ZN13dynamic_arrayIPK10Il2CppTypeLj4EE6assignEPKS2_S5_
Blj:__ZN15dense_hashtableINSt3__24pairIK10KeyWrapperINS1_IPK12PropertyInfoP11Il2CppClassEEEjEES9_17ReflectionMapHashIS8_EN14dense_hash_mapIS9_jSD_NS9_14EqualsComparerINS0_8equal_toIS8_EEEENS0_9allocatorISB_EEE9SelectKeyESI_SK_E12resize_deltaEjj
Sx:__ZN7mecanim5human12HumanPoseAddERNS0_9HumanPoseERKS1_S4_
vbi:__Z76RuntimeInvoker_Void_t1841601450_Int32_t2071877448_KeyValuePair_2_t3716250094PK10MethodInfoPvPS2_
OTi:_UnityAction_1__ctor_m2836997866_gshared
_gi:_Animator_ResetTrigger_m865269317
CYf:__ZL64AssemblyLoadEventArgs_t4233815743_CustomAttributesCacheGeneratorP21CustomAttributesCache
hHe:_Collection_1_IsFixedSize_m218241296_gshared
a4a:__Z24MergeTransformComponentsR9TransformS0_b
Jii:_DelegatePInvokeWrapper_AudioConfigurationChangeHandler_t3743753033
e3e:_MonoIO_get_PathSeparator_m2635828107
ovg:_TypeInfo_get_TypeName_m1722081275
Rwc:__ZN15b2CircleContactD0Ev
m8e:_MonoType_get_Name_m865859211
vNd:_CultureInfo__cctor_m2290268677
zAh:_ArrayReadOnlyList_1_System_Collections_IEnumerable_GetEnumerator_m3039869667_gshared
Ohd:_String_Trim_m3982520224
lug:_RemotingConfiguration__cctor_m2129988840
yFe:_Collection_1_Insert_m44548038_gshared
SKh:_InternalEnumerator_1_MoveNext_m4175772187_AdjustorThunk
mLf:__ZL42Il2CppArray_CustomAttributesCacheGeneratorP21CustomAttributesCache
TEj:__ZN6il2cpp2vm13ComObjectBase19GetRuntimeClassNameEPP15Il2CppHString__
Tj:_emscripten_glVertexAttribPointer
Wla:__ZN14PreloadManager26UpdatePreloadingSingleStepENS_21UpdatePreloadingFlagsEi
ZWg:_Material__ctor_m1440882780
Ybd:_SHA512Managed_Initialize_m891287980
I3h:__Z82RuntimeInvoker_Boolean_t3825574718_Il2CppObject_TextGenerationSettings_t2543476768PK10MethodInfoPvPS2_
Fed:_SecurityException__ctor_m1484114982
nwi:_SinkProviderData_get_Children_m100594762
vJi:_X509Crl_GetHashName_m183504634
Ymd:_Array_GetValue_m1507415734
kgc:__Z57Register_UnityEngine_RectTransform_INTERNAL_set_anchorMinv
BTe:_Object_MemberwiseClone_m2655589444
oMe:_ReadOnlyCollection_1_System_Collections_IList_get_Item_m375043207_gshared
sja:__ZN6prcoreL25inner_stretch_i8_bilinearEPKNS_9InnerInfoE
pS:__ZN11UnityEngine15CloudWebService13WWWRestClient17GetResponseStatusEv
G0e:_DirectoryInfo_ToString_m4208086799
HMg:_MonoMethod_get_IsGenericMethod_m4276550811
ufh:_Transform_1_BeginInvoke_m3826027984_gshared
Ngi:_AnimationEvent_set_time_m2162176572
nR:__ZN11UnityEngine15CloudWebService16SessionContainer24GetSessionHeaderJsonDataERKN4core12basic_stringIcNS2_20StringStorageDefaultIcEEEERNS2_13StringBuilderE
NBd:_Decimal_op_Implicit_m2149927308
K6:__ZN13RuntimeStaticI21AssetReferenceStorageLb0EE13StaticDestroyEPv
_9g:_UInt16_System_IConvertible_ToUInt32_m1864968312
dBj:__ZN6il2cpp6icalls8mscorlib6System9AppDomain22InternalGetProcessGuidEP12Il2CppString
RSc:_cf2_builder_moveTo
bff:_KeyPairPersistence_get_UseMachineKeyStore_m560802076
RBe:_Collection_1_CopyTo_m1840908033_gshared
uNh:_Enumerator_System_Collections_IDictionaryEnumerator_get_Entry_m345330700_AdjustorThunk
JYj:_glBindRenderbuffer__wrapper
rdj:__ZNSt3__214__split_bufferIP9FieldInfoRNS_9allocatorIS2_EEEC2EjjS5_
XNd:_AbstractEventData__ctor_m3586111519
nKb:__Z18Transfer_BlittableI24GenerateTypeTreeTransferLb1EjEvRK29SerializationCommandArgumentsR31RuntimeSerializationCommandInfo
hnf:_MD2Managed_Padding_m410163267
olj:__ZNK15dense_hashtableINSt3__24pairIK10KeyWrapperINS1_IPK11Il2CppImageP11Il2CppClassEEEjEES9_17ReflectionMapHashIS8_EN14dense_hash_mapIS9_jSD_NS9_14EqualsComparerINS0_8equal_toIS8_EEEENS0_9allocatorISB_EEE9SelectKeyESI_SK_E10test_emptyERK30dense_hashtable_const_iteratorISB_S9_SD_SM_SI_SK_E
uzh:_Toggle_UnityEngine_UI_ICanvasElement_get_transform_m4177274032
Bkb:__ZN11ColorRGBA328TransferI14SafeBinaryReadEEvRT_
TBb:__ZN24RingBufferMemoryFileData4LockEPPv
geh:_Enumerator_Dispose_m401572848_AdjustorThunk
Tii:_Bounds__ctor_m1202659404_AdjustorThunk
Rf:_emscripten_glClearDepth
Ylb:__ZN8Playable12SetPlayStateE9PlayState
$di:__Z70RuntimeInvoker_Boolean_t3825574718_Il2CppObject_BooleanU26_t3168250738PK10MethodInfoPvPS2_
frb:__ZN14SafeBinaryRead21TransferSTLStyleArrayINSt3__26vectorIN15QualitySettings14QualitySettingENS1_9allocatorIS4_EEEEEEvRT_17TransferMetaFlags
pie:_Array_swap_TisVector2_t2243707579_m3359959735_gshared
V0e:_File_OpenText_m4058508963
Yya:__ZN7ApiGLES13CreateTextureEjN2gl9TexFormatEiiiii
b0h:__Z54RuntimeInvoker_Double_t4078015681_Interval_t2354235237PK10MethodInfoPvPS2_
hyb:__ZNSt3__26vectorINS_4pairIPKN5Unity4TypeE7Hash128EENS_9allocatorIS7_EEE8__appendEj
pvg:_WellKnownClientTypeEntry__ctor_m670594074
E4f:__ZL99GameObject_t1756533147_CustomAttributesCacheGenerator_GameObject_FindGameObjectsWithTag_m2154478296P21CustomAttributesCache
Xlg:__ZL61FontData_t2614388407_CustomAttributesCacheGenerator_m_MinSizeP21CustomAttributesCache
Upj:__ZN15dense_hashtableINSt3__24pairIK10KeyWrapperIP11Il2CppClassES4_EES5_N6il2cpp8metadata16SZArrayClassHashEN14dense_hash_mapIS5_S4_SA_NS5_14EqualsComparerINS9_19SZArrayClassCompareEEENS0_9allocatorIS7_EEE9SelectKeyESE_SG_EC2ERKSJ_j
dFd:_DateTime_System_IConvertible_ToSingle_m3927769066_AdjustorThunk
uUc:_cff_font_load
eOi:_Enumerator_Reset_m950879083
Ouf:_RecordProtocol_SendRecord_m2977889250
dac:__Z13IsPathCreatedRKN4core12basic_stringIcNS_20StringStorageDefaultIcEEEE
wpa:__ZL22stbir__encode_scanlineP11stbir__infoiPvPfiii
Udc:__Z27Input_Get_Custom_PropAnyKeyv
IIc:__ZN20QuadTreeNodeRenderer13StaticDestroyEPv
FN:__ZN14AudioBehaviourD2Ev
Q_b:__ZN9Transform12CleanupClassEv
NJj:__ZN6il2cpp6icalls8mscorlib6System9Threading16NativeEventCalls19CloseEvent_internalE12Il2CppIntPtr
Pt:__ZN11UnityEngine9Animation33SetGenericTransformPropertyValuesERKNS0_30AnimatorGenericBindingConstantERKN7mecanim10ValueArrayEP9Transformb
Nqf:_ClientContext_set_ClientHelloProtocol_m2246603449
dMc:_UNITY_FT_Set_Pixel_Sizes
j4d:_U3CMouseDragOutsideRectU3Ec__Iterator1_MoveNext_m2845491958
JTb:__ZNSt3__26vectorIN9ShaderLab19SerializedSubShaderENS_9allocatorIS2_EEE26__swap_out_circular_bufferERNS_14__split_bufferIS2_RS4_EE
A3h:__Z87RuntimeInvoker_Void_t1841601450_PlayableHandleU26_t3483893774_QuaternionU26_t4187826802PK10MethodInfoPvPS2_
bie:_Array_swap_TisAnimatorClipInfo_t3905751349_TisAnimatorClipInfo_t3905751349_m1375833338_gshared
uej:_AnalyticsTracker_TriggerEvent_m1494303835
YSd:_StandaloneInputModule_IsModuleSupported_m623598506
Yqj:__ZN6il2cpp2vmL24thread_cleanup_on_cancelEPv
TTh:__Z31RuntimeInvoker_Byte_t3683104436PK10MethodInfoPvPS2_
wOg:_ResourceReader_Close_m3256966401
tzg:_SByte_ToString_m4105923225_AdjustorThunk
zgb:_LZ4_compress_generic
txg:_StreamingContext_t1417235061_marshal_pinvoke_cleanup
zNd:_CultureInfo_ConstructCurrentUICulture_m3363349599
_rb:__ZN13dynamic_arrayI7SubMeshLj4EE18resize_initializedEjRKS0_12ResizePolicy
kpg:__ZL75CanvasScaler_t2574720772_CustomAttributesCacheGenerator_m_FallbackScreenDPIP21CustomAttributesCache
L7e:_MonoType_GetEvent_m4160342003
qsh:_RawImage_set_texture_m2400157626
p_i:_PrimeHelper_ToPrime_m1606935350_gshared
Okb:__Z30ProcessDynamicBatchGeometryJobP25DynamicVBOGeometryJobDataj
yoh:_EqualityComparer_1__ctor_m81618677_gshared
xWa:__ZNSt3__27__sort4IRNS_6__lessI11CulledLightS2_EEPS2_EEjT0_S6_S6_S6_T_
bhj:__ZN6il2cpp2vm14TypeNameParser26ParseArrayModifierOptionalEv
oaf:_MSCompatUnicodeTable_Level3_m260824928
L4d:_LayoutElement_OnEnable_m3478706401
_Z:__Z26scripting_object_get_class18ScriptingObjectPtr
Sdi:__Z72RuntimeInvoker_DictionaryEntry_t3048875398_Il2CppObject_SByte_t454417549PK10MethodInfoPvPS2_
s_b:__ZNK28MonoBehaviourPropertyBinding15GenerateBindingERKN4core12basic_stringIcNS0_20StringStorageDefaultIcEEEEbRN11UnityEngine9Animation14GenericBindingE
SUg:_GUIStyle_CalcMinMaxWidth_m2027503105
vYe:_Int32_FindExponent_m3187554672
nff:_KeyPairPersistence_Load_m1355205585
Nuh:_ScrollRect_get_horizontalScrollbarVisibility_m4152068235
xZe:_Int32_ToString_m2960866144_AdjustorThunk
cSi:_Predicate_1_Invoke_m3539717340_gshared
I_i:_HashSet_1_Contains_m3626542335_gshared
Kgd:_Single_CompareTo_m2081476257_AdjustorThunk
tWi:_ObjStatsCorrect__ctor_m3028794963
Iai:__Z57RuntimeInvoker_Int32_t2071877448_RaycastHit2D_t4063908774PK10MethodInfoPvPS2_
VCj:__ZN6il2cpp6icalls8mscorlib6System11Environment15internalGetHomeEv
Ybb:__ZNK5Unity9Component7GetNameEv
Eci:__Z49RuntimeInvoker_Slot_t2267560602_Int32_t2071877448PK10MethodInfoPvPS2_
Wdj:__ZNSt3__214__split_bufferIN6il2cpp6icalls8mscorlib6System12PropertyPairERNS_9allocatorIS5_EEEC2EjjS8_
Hy:__ZN34AnimationStateMachineMixerPlayable7GetTypeEv
axg:__ZN21InterfaceFuncInvoker4IP12Il2CppObjectS1_P28SerializationInfo_t22898743028StreamingContext_t1417235061S1_E6InvokeEjP11Il2CppClassS1_S1_S3_S4_S1_
O_f:__ZL58IFormatProvider_t2849799027_CustomAttributesCacheGeneratorP21CustomAttributesCache
cZi:_ObjectPool_1_Get_m3724675538_gshared
N6a:__ZN13ScreenManagerD0Ev
NQa:_UNITY_png_set_error_fn
Fyc:__ZNK11b2RopeJoint16GetReactionForceEf
At:__ZN7mecanim8skeleton26SkeletonPoseComputeGlobalQEPKNS0_8SkeletonEPKNS0_13SkeletonPoseTIN4math4trsXEEEPS7_ii
muc:__ZN8JSONRead21TransferSTLStyleArrayI13dynamic_arrayIfLj4EEEEvRT_18MemLabelIdentifier17TransferMetaFlags
bve:_List_1_GetEnumerator_m2672519407_gshared
$s:__ZN9BlobWrite8TransferI22OffsetPtrArrayTransferIiEEEvRT_PKc17TransferMetaFlags
$9e:_ContractionComparer_Compare_m314873025
TFj:__ZN6il2cpp6icalls8mscorlib6System7Runtime15InteropServices8GCHandle15GetTargetHandleEP12Il2CppObjectii
TIb:__Z18Transfer_BlittableI17RemapPPtrTransferLb1EjEvRK29SerializationCommandArgumentsR31RuntimeSerializationCommandInfo
EVg:_GUIUtility_EndGUIFromException_m2091524531
PZe:_Int64_System_IConvertible_ToDouble_m638786774
kK:__ZN4FMOD6System7releaseEv
Gxd:_HashKeys_get_IsSynchronized_m4207641174
OLb:__Z18Transfer_BlittableI19StreamedBinaryWriteILb0EELb1E8BitFieldEvRK29SerializationCommandArgumentsR31RuntimeSerializationCommandInfo
O4:__Z18PathToAbsolutePathRKN4core12basic_stringIcNS_20StringStorageDefaultIcEEEE
pme:_Enumerator_MoveNext_m3078170540_AdjustorThunk
Acd:_SymmetricAlgorithm_get_Padding_m718051685
eqb:__ZNK8Renderer26GetTypeInfoVirtualInternalEv
Nli:_Color_Lerp_m3323752807
Oec:__Z22Mesh_CUSTOM_HasChannelP12Il2CppObject30InternalScriptingShaderChannel
o4b:__ZN15DirectorManager17AcquireOutputNodeEv
kCb:__ZN10MonoScript23VirtualRedirectTransferER17RemapPPtrTransfer
Uw:__ZN8Playable11SetDurationEd
PYf:__ZL76Convert_t2607082565_CustomAttributesCacheGenerator_Convert_ToChar_m541258017P21CustomAttributesCache
oGa:__ZN16GeometryJobTasks20ScheduleGeometryJobsER9GfxDevicePFvP15GeometryJobDataEPK22GeometryJobInstructionjb
wUg:_GUIUtility_Internal_GetHotControl_m2510727642
lI:__ZN12AudioManager29ShutdownReinitializeAndReloadEv
XGi:_NetscapeCertTypeExtension_Decode_m2210025005
b1g:_RectTransform_GetLocalCorners_m1836626405
yvg:_BaseFixupRecord_DoFixup_m1821597450
r$i:__ZN15dense_hashtableINSt3__24pairIK10KeyWrapperIPK22Il2CppGenericParameterEP11Il2CppClassEES6_N6il2cpp5utils11PointerHashIS4_EEN14dense_hash_mapIS6_S9_SE_NS6_14EqualsComparerINS0_8equal_toIS5_EEEENS0_9allocatorISA_EEE9SelectKeyESJ_SL_E6insertERKSA_
Z0e:_FileLoadException__ctor_m1356374414
Spf:_TlsStream_Reset_m1504601050
kpe:__ZN23InterfaceActionInvoker2IP23Int32U5BU5D_t3030399641iE6InvokeEjP11Il2CppClassP12Il2CppObjectS1_i
Hza:__ZN14DataBufferGLES16RecreateWithDataEjPKv
C9b:__Z29GetGlobalAllowNameConversionsv
g6a:__ZN8Material8SetColorEN9ShaderLab16FastPropertyNameERK10ColorRGBAf
RKg:_Module_GetCustomAttributes_m3581287913
HMf:__ZL67Type_t_CustomAttributesCacheGenerator_Type_IsSubclassOf_m2450899481P21CustomAttributesCache
dM:__ZN11AudioSource23VirtualRedirectTransferER18StreamedBinaryReadILb0EE
wd:___syscall91
P6:__ZN21AssetReferenceStorageC2Ev
pMb:__ZN10RectOffset8TransferI19StreamedBinaryWriteILb0EEEEvRT_
nJc:__ZNSt3__26vectorIN4core12basic_stringIcNS1_20StringStorageDefaultIcEEEE13stl_allocatorIS5_L18MemLabelIdentifier34ELi16EEEC2INS_11__wrap_iterIPS5_EEEET_SE_RKS8_PNS_9enable_ifIXaasr21__is_forward_iteratorISE_EE5valuesr16is_constructibleIS5_NS_15iterator_traitsISE_E9referenceEEE5valueEvE4typeE
N_:__ZL41AssemblyNameMatchesWithOrWithoutExtensionPKcS0_
Vhi:_AssemblyIsEditorAssembly__ctor_m2639706522
YDa:__ZN14GfxContextGLES43AddRenderSurfaceToDeferredFBOInvalidateListEPK17RenderSurfaceGLES
Wrj:__ZN6il2cpp6icalls8mscorlib6System9Threading6Thread15Thread_internalEP12Il2CppThreadP14Il2CppDelegate
_ea:__ZN11NamedObject23VirtualRedirectTransferER14SafeBinaryRead
TLc:__ZNSt3__26vectorIN20TextRenderingPrivate8FontImpl13CharacterInfoE13stl_allocatorIS3_L18MemLabelIdentifier1ELi16EEE6insertENS_11__wrap_iterIPKS3_EERS9_
ema:__ZN23PreloadManagerOperation6IsDoneEv
j7f:__ZL102DataUtility_t4181890362_CustomAttributesCacheGenerator_DataUtility_INTERNAL_CALL_GetOuterUV_m121019172P21CustomAttributesCache
Gcj:__ZN6il2cpp2vm7Runtime15InvokeWithThrowEPK10MethodInfoPvPS5_
Uif:_X509Certificate_get_RawData_m3000055075
X$i:__ZNSt3__26vectorIPK10Il2CppTypeNS_9allocatorIS3_EEE21__push_back_slow_pathIRKS3_EEvOT_
X4b:__Z33GetHasChangedDeprecatedSystemMaskv
vAj:__ZN6il2cpp5utils11StringUtils11Utf16ToUtf8ERKNSt3__212basic_stringIDsNS2_11char_traitsIDsEENS2_9allocatorIDsEEEE
m0e:_MonoIO_GetException_m2577367044
Gpe:_List_1_ToArray_m3453833174_gshared
iOh:_Enumerator_VerifyState_m1165543189_AdjustorThunk
LFd:_DateTime_AddSeconds_m722082155_AdjustorThunk
Tud:_SynchronizedArrayListWrapper_CopyTo_m956887031
y9i:__ZNSt3__213__lower_boundIRN6il2cpp5utils11collections13ArrayValueMapIPK10Il2CppType17Il2CppInteropData26InteropDataToTypeConverterNS1_8metadata14Il2CppTypeLessENSA_26Il2CppTypeEqualityComparerEE22LowerBoundFindComparerEPKS8_S7_EET0_SI_SI_RKT1_T_
YLh:_Comparer_1__ctor_m1202126643_gshared
D8f:__ZL92Transform_t3275118058_CustomAttributesCacheGenerator_Transform_get_parentInternal_m927919099P21CustomAttributesCache
sqa:__ZN21LightProbeProxyVolume18HasHardwareSupportEv
fEc:__ZNK20b2SeparationFunction17FindMinSeparationEPiS0_f
nja:__ZN6prcoreL31inner_stretch_argb8888_bilinearEPKNS_9InnerInfoE
uNb:__Z18Transfer_BlittableI18StreamedBinaryReadILb1EELb1E8BitFieldEvRK29SerializationCommandArgumentsR31RuntimeSerializationCommandInfo
wOc:_UNITY_FT_Outline_Decompose
Zsf:_TlsClientCertificate_get_ClientCertificate_m3062440489
hed:_StrongNamePublicKeyBlob_ToString_m3721281223
Ohg:__ZL80UnityEvent_t408735097_CustomAttributesCacheGenerator_UnityEvent__ctor_m588741179P21CustomAttributesCache
xDh:_InternalEnumerator_1_get_Current_m198513457_AdjustorThunk
tHh:_InternalEnumerator_1__ctor_m1240086835_AdjustorThunk
jUa:__Z20scripting_object_new17ScriptingClassPtr
dS:__ZN11UnityEngine15CloudWebService10RestClientINS0_16WWWRestHeaderMapEED2Ev
kcc:__Z31Display_CUSTOM_GetSystemExtImpl13Il2Cpp_IntPtrPiS0_
Qic:__Z58Register_UnityEngine_Object_Internal_CloneSingleWithParentv
Bjj:__ZN24dense_hashtable_iteratorINSt3__24pairIK10KeyWrapperINS1_IPK9FieldInfoP11Il2CppClassEEEjEES9_17ReflectionMapHashIS8_EN14dense_hash_mapIS9_jSD_NS9_14EqualsComparerINS0_8equal_toIS8_EEEENS0_9allocatorISB_EEE9SelectKeyESI_SK_E30advance_past_empty_and_deletedEv
sE:__Z75AnimatorControllerPlayable_CUSTOM_INTERNAL_CALL_GetAnimatorClipInfoInternalP12Il2CppObjectR9HPlayableihS0_
irc:__ZN9JSONWrite8TransferI13dynamic_arrayI8BitFieldLj4EEEEvRT_PKc17TransferMetaFlags
M_a:__ZN18ShadowMapJobHeaderD0Ev
a_d:_Graphic_OnRectTransformDimensionsChange_m1610753363
KDd:_Convert_ToUInt16_m3265369225
P:Math_exp
q7e:_MonoEnumInfo_get_Cache_m3551569711
Lo:FUNCTION_TABLE_iiifi
oAj:__ZN6il2cpp2os5posix13PosixAutoLockD2Ev
V6d:_Array_InternalArray__ICollection_Contains_TisVector3_t2243707580_m3625701788_gshared
GGc:__ZN13BoxCollider2D15InitializeClassEv
cyi:__ZN21InterfaceFuncInvoker0IP6Type_tE6InvokeEjP11Il2CppClassP12Il2CppObject
ESc:_cff_get_advances
x4a:__ZN13MonoBehaviour9SetScriptERK4PPtrI10MonoScriptE18ScriptingObjectPtr
FGc:__ZN13ProduceHelperI13BoxCollider2DLb0EE7ProduceE18MemLabelIdentifier18ObjectCreationMode
cOc:_UNITY_FT_Create_Class_sfnt_module_class
Myh:_Text_CalculateLayoutInputHorizontal_m1578553982
W7f:__ZL87Object_t1021602117_CustomAttributesCacheGenerator_Object_DestroyObject_m282495858____t1P21CustomAttributesCache
kvj:__ZNSt3__218uninitialized_copyIPNS_4pairIK10KeyWrapperIP14Il2CppIUnknownEjEES8_EET0_T_SA_S9_
qqi:_AnimatorControllerPlayable_SetFloatString_m3937146789
dId:_Decimal_IsZero_m3557909184_AdjustorThunk
xsd:_Char_ToString_m1401375624
B8c:_MD5CryptoServiceProvider__cctor_m3309191799
KX:__ZNK10FileSystem16LastErrorMessageEv
YFj:__ZNK6il2cpp8metadata14Il2CppTypeLessclEPK10Il2CppTypeS4_
LYh:__Z51RuntimeInvoker_UInt32_t2149682021_Int16_t4041245914PK10MethodInfoPvPS2_
fIf:_InterpreterFactory_get_NamesMapping_m3186583301
Ewi:_ConfigHandler_ReadCustomProviderData_m784203316
K5f:__ZL87Input_t1785128008_CustomAttributesCacheGenerator_Input_get_compositionString_m636835668P21CustomAttributesCache
aoe:_Enumerator_System_Collections_IEnumerator_Reset_m3052395060_gshared
g7c:__ZN22UnityWebRequestManager10InitializeEv
AEe:_Collection_1_System_Collections_ICollection_get_SyncRoot_m1997144145_gshared
qlf:_Kernel_DwordDivMod_m3728402123
LCb:__ZN13MonoBehaviour13AwakeFromLoadE17AwakeFromLoadMode
k$c:__ZZN2UI14CanvasRenderer15InitializeClassEvEN38FunctorImpl_810kCanvasHierarchyChanged4CallEPviR11MessageData
NIb:__ZL26Transfer_SimpleNativeClassI17RemapPPtrTransfer8GradientLb1EEvRK29SerializationCommandArgumentsR31RuntimeSerializationCommandInfo
j5b:__ZN12CachedWriter9InitWriteER15CacheWriterBase
R3b:__Z21UnsignedInt64ToStringy
P3g:_UTF7Decoder__ctor_m549434986
V_g:_Quaternion_ToString_m2638853272
NJh:_InternalEnumerator_1_get_Current_m1025321669_AdjustorThunk
qZg:_Object_t1021602117_marshal_pinvoke
kfc:__Z36MonoBehaviour_CUSTOM_InvokeRepeatingP12Il2CppObjectP12Il2CppStringff
ric:__Z66Register_UnityEngine_Transform_INTERNAL_CALL_InverseTransformPointv
VEh:_InternalEnumerator_1_MoveNext_m2720582493_gshared
FJi:_X509CrlEntry_get_RevocationDate_m1257876856
EJi:_X509Crl_VerifySignature_m1390212587
$Gf:_Group__ctor_m4103922028
bRa:__ZN6Camera26ClearIntermediateRenderersEj
$bj:__ZNSt3__214__split_bufferI6pollfdRNS_9allocatorIS1_EEEC2EjjS4_
oQa:_UNITY_png_write_pCAL
x0j:_glLinkProgram__wrapper
Uja:__ZN6prcoreL12RemapGenericI17TexFormatARGB888815TexFormatBGR888EEvPKNS_9InnerInfoE
H8c:_MD5CryptoServiceProvider_ProcessFinalBlock_m1052610785
uE:__Z79AnimatorControllerPlayable_CUSTOM_INTERNAL_CALL_GetNextAnimatorClipInfoInternalR9HPlayablei
hvd:_BitArray_Set_m2878881714
O4i:__ZL25UnresolvedVirtualCall_201P12Il2CppObjectPK10MethodInfo
xIe:_Collection_1_get_Item_m4215988522_gshared
dXe:_Guid_CompareTo_m2203922782_AdjustorThunk
cwh:_Selectable_get_colors_m3501193396
Tvj:__ZN6il2cpp6icalls8mscorlib6System13Globalization11CultureInfo35construct_internal_locale_from_nameEP17Il2CppCultureInfoP12Il2CppString
tQh:__Z58RuntimeInvoker_Il2CppObject_Int32_t2071877448_Il2CppObjectPK10MethodInfoPvPS2_
zKb:__ZL22Transfer_ManagedObjectI24GenerateTypeTreeTransferLb1EEvRK29SerializationCommandArgumentsR31RuntimeSerializationCommandInfo
p8f:__ZL72SceneManager_t90660965_CustomAttributesCacheGenerator_activeSceneChangedP21CustomAttributesCache
URf:__ZL55COMException_t1790481504_CustomAttributesCacheGeneratorP21CustomAttributesCache
Kdf:_ASN1_get_Count_m404940548
Zxi:_ContextAttribute_Equals_m53324298
rki:_Canvas_ForceUpdateCanvases_m2446828475
ak:_emscripten_set_main_loop_timing
lcc:__Z34Display_CUSTOM_GetRenderingExtImpl13Il2Cpp_IntPtrPiS0_
Edh:_WeakReference_AllocateHandle_m1783929473
Cza:__ZN14DataBufferGLES12RecordRenderEv
A5a:__ZN14ImageReference10FlipImageYEv
rni:_DebugLogHandler_LogFormat_m177245518
Hib:__Z32TransferEnumWithNameForceIntSizeI14SafeBinaryRead13TargetEyeMaskEvRT_RT0_PKc17TransferMetaFlags
Zkc:__Z14GetDefaultSkini
BNd:_CultureInfo_get_Name_m3316229893
vpe:_List_1_IndexOf_m858031556_gshared
BFd:_DateTime_get_Ticks_m310281298_AdjustorThunk
KF:__ZN4FMOD3DSP9setBypassEb
EJe:_Collection_1_System_Collections_IList_get_Item_m287847793_gshared
zab:__Z19NormalizeWheelInputf
NGf:_CaptureCollection_CopyTo_m1982767892
I8a:__Z29StdTemplateConversionFunctionIsaEbPvR14SafeBinaryRead
b7d:_Array_InternalArray__ICollection_Remove_TisLink_t865133271_m1984184141_gshared
nuc:__Z29Transfer_Blittable_ArrayFieldI8JSONReadhEvRT_R9ArrayInfoRK23StaticTransferFieldInfo
s5d:_LayoutRebuilder_IsDestroyed_m3442208294
C7b:__ZN11MonoManager25GetImageFromAssemblyIndexEi
XMj:__ZN6il2cpp2os20ThreadLocalValueImpl8SetValueEPv
zRa:__ZN22RenderingCommandBuffer20CleanupCommandBufferEv
YNa:__ZZ23InitPlayerLoopCallbacksvEN43PostLateUpdateClearImmediateRenderersstruct7ForwardEv
Tpc:__Z18Transfer_BlittableI9JSONWriteLb1EtEvRK29SerializationCommandArgumentsR31RuntimeSerializationCommandInfo
_0e:_FileLoadException__ctor_m918124939
sk:___syscall85
qTa:__ZNSt3__26__sortIRPFbP10GUIElementS2_EPS2_EEvT0_S7_T_
Zlf:_SequentialSearchPrimeGeneratorBase_GenerateSearchBase_m2930465198
C2b:__ZN16GraphicsSettings12CleanupClassEv
bM:__ZNK11AudioSource26GetTypeInfoVirtualInternalEv
M$i:__ZN6il2cpp2vmL21SetupInterfacesLockedEP11Il2CppClassRKNS_2os12FastAutoLockE
FEb:__ZN11MonoManager23VirtualRedirectTransferER24GenerateTypeTreeTransfer
tA:__ZN23AnimationPlayableOutput17SetSourcePlayableEP8Playable
BGf:_Capture__ctor_m885749277
VTg:_GUIStyle_set_clipOffset_m3871613343
k1d:_SubmitEvent__ctor_m222860306
Zi:_emscripten_glUniformMatrix4fv
jR:__ZN11UnityEngine15CloudWebService14DataDispatcher15SetupWebRequestEv
hXh:__Z94RuntimeInvoker_Int32_t2071877448_Il2CppObject_Int32_t2071877448_Il2CppObject_Int32_t2071877448PK10MethodInfoPvPS2_
i5e:_TextWriter__cctor_m4047845042
jvf:_ReceiveRecordAsyncResult_get_Record_m1336421357
c4c:__ZN11UnityEngine15PlatformWrapper13GetShaderCapsEv
R$a:__ZNSt3__211__sift_downIR26RenderDeferredObjectSorterP16RenderObjectDataEEvT0_S5_T_NS_15iterator_traitsIS5_E15difference_typeES5_
MYf:__ZL76Convert_t2607082565_CustomAttributesCacheGenerator_Convert_ToByte_m509311047P21CustomAttributesCache
E1d:_InputField_CaretBlink_m3960486606
ck:_emscripten_glGetProgramiv
Nff:_SmallXmlParser_ReadCharacters_m1966365555
Uwf:_InternalAsyncResult_get_CompletedWithError_m3993955322
l3b:__ZN21FixedBehaviourManager6UpdateEv
R9b:__ZN9Transform9SetParentEPS_NS_15SetParentOptionE
HMe:_ReadOnlyCollection_1_System_Collections_IList_Add_m527174473_gshared
d0:__ZN19ShaderPropertySheet8SetFloatEN9ShaderLab16FastPropertyNameEfNS_8SetFlagsE
Lmg:__ZL68InputField_t1631627530_CustomAttributesCacheGenerator_m_AsteriskCharP21CustomAttributesCache
qna:__ZN19RuntimeSceneManager24BeginIntegrateMainThreadEP10UnityScene
y0h:__Z42RuntimeInvoker_RuntimePlatform_t1869584967PK10MethodInfoPvPS2_
I_h:__Z80RuntimeInvoker_Void_t1841601450_Il2CppObject_Int32_t2071877448_Int16_t4041245914PK10MethodInfoPvPS2_
oCj:__ZNSt3__2plIcNS_11char_traitsIcEENS_9allocatorIcEEEENS_12basic_stringIT_T0_T1_EERKS9_S6_
BVh:__Z53RuntimeInvoker_MonoEventInfo_t2190036573_Il2CppObjectPK10MethodInfoPvPS2_
$5e:_LocalDataStoreSlot__cctor_m1192669356
pTb:__ZN9ShaderLab20SerializedSubProgramaSERKS0_
TSj:_roundf
yjd:_String_CreateString_m2556700934
Whb:__ZN18StreamedBinaryReadILb0EE21TransferSTLStyleArrayINSt3__26vectorI17SortingLayerEntryNS2_9allocatorIS4_EEEEEEvRT_17TransferMetaFlags
iwh:_Selectable_get_targetGraphic_m137842753
as:__ZN8Animator15SetPrepareStageEv
xxh:_Slider_get_axis_m162140813
GLg:_MonoEventInfo_t2190036573_marshal_pinvoke
N$i:__ZN6il2cpp2vmL24SetupTypeHierarchyLockedEP11Il2CppClassRKNS_2os12FastAutoLockE
Gab:__ZL11TextHandleriPK23EmscriptenKeyboardEventPv
bZa:__Z20CalculateLightMatrixRK15SharedLightDataP10Matrix4x4f
Vvh:_ScrollRect_SetLayoutHorizontal_m3486408020
rLc:_destroy_face
ZZi:_GenericEqualityComparer_1_GetHashCode_m116190842_gshared
Vpi:_AnimationOffsetPlayable_INTERNAL_CALL_GetPosition_m602003518
FPf:__ZL55StreamWriter_t3858580635_CustomAttributesCacheGeneratorP21CustomAttributesCache
eIc:__ZN5physx19PxAllocatorCallbackD2Ev
eNa:__ZN24dense_hashtable_iteratorINSt3__24pairIKN4core12basic_stringIcNS2_20StringStorageDefaultIcEEEEP20ArchiveStorageReaderEES6_20StringHash32FunctionIS6_EN14dense_hash_mapIS6_S9_SC_NS0_8equal_toIS6_EE13stl_allocatorISA_L18MemLabelIdentifier54ELi16EEE9SelectKeyESF_SI_EC2EPK15dense_hashtableISA_S6_SC_SK_SF_SI_EPSA_SQ_b
eKj:__ZN6il2cpp6icalls8mscorlib6System8Security12Cryptography24RNGCryptoServiceProvider13RngInitializeEP11Il2CppArray
xye:_List_1_System_Collections_ICollection_get_IsSynchronized_m227393674_gshared
DAf:_IPAddress__cctor_m3624830012
mM:__ZN20SoundChannelInstance7setMuteEb
Klb:__ZN4PPtrI5LightE8TransferI19StreamedBinaryWriteILb0EEEEvRT_
Y9f:__ZL115AnimatorStateInfo_t2577870592_CustomAttributesCacheGenerator_AnimatorStateInfo_t2577870592____nameHash_PropertyInfoP21CustomAttributesCache
vCf:_AsnEncodedData_EnhancedKeyUsageExtension_m1452131166
pOb:__Z19TransferField_ArrayI18StreamedBinaryReadILb1EE27Converter_SimpleNativeClassI17AnimationCurveTplIfEEEvRK23StaticTransferFieldInfoR31RuntimeSerializationCommandInfoRT0_
DGc:__ZN7b2World18SetContactListenerEP17b2ContactListener
gHf:_GroupCollection_get_IsSynchronized_m1100663675
kAa:__ZN18GfxFramebufferGLES22MakeCurrentFramebufferENS_7BuiltinE
YJj:__ZN6il2cpp2vm12MarshalAlloc4FreeEPv
HHf:_Interpreter_Close_m1500459069
p3i:__ZL25UnresolvedVirtualCall_122P12Il2CppObject32ScriptableRenderContext_t4271526S0_PK10MethodInfo
wk:_JS_SystemInfo_GetWidth
Qpa:__ZN12CachedReader4ReadEPvj
lbg:__ZL113AnimatorControllerPlayable_t4078305555_CustomAttributesCacheGenerator_AnimatorControllerPlayable_Play_m3114724599P21CustomAttributesCache
_Sc:_cf2_blues_init
BDh:_InternalEnumerator_1_System_Collections_IEnumerator_get_Current_m3600601141_gshared
mbd:_SHA1Internal_HashFinal_m3188468925
sPi:_Vector3_op_Inequality_m799191452
csd:_Char_GetHashCode_m2343577184
tYa:__Z24CalculateLightShadowFadeRK6CamerafffR8Vector4f
C1:__ZN19RuntimeSceneManagerD2Ev
N$f:__ZL55HeaderHandler_t324204131_CustomAttributesCacheGeneratorP21CustomAttributesCache
Kvi:_ChannelData_get_CustomProperties_m1470957369
mja:__ZN6prcore17GetIntegerBlitterE13TextureFormatS0_N14ImageReference8BlitModeE
Hji:_Camera_INTERNAL_CALL_ScreenPointToRay_m2752248646
iAc:__ZN13BoxCollider2DD0Ev
Qkj:__ZN6il2cpp2gc19AppendOnlyGCHashMapINSt3__24pairIPK11Il2CppImageP11Il2CppClassEEP22Il2CppReflectionModule17ReflectionMapHashIS9_ENS2_8equal_toIS9_EEE11TryGetValueERKS9_PSB_
eeh:_Enumerator_VerifyState_m3173176371_AdjustorThunk
Hzf:_TypeConverterAttribute__cctor_m506796812
mld:_Encoding_get_IsReadOnly_m3729101432
B9b:__ZN9BlobWrite14ReduceCopyImplERK14ReduceCopyDataj
_ch:_ValueType_t3507792607_marshal_pinvoke_back
cMh:_Comparer_1_System_Collections_IComparer_Compare_m1790257529_gshared
Bei:__Z37RuntimeInvoker_Enumerator_t3220004478PK10MethodInfoPvPS2_
KKg:_MethodInfo_get_ContainsGenericParameters_m572340060
Xyc:__ZNK12b2WheelJoint10GetAnchorAEv
AXj:_glShaderSource__wrapper
EKa:__ZN25MultiBlocksMemoryFileData17AdjustBlocksCountEj
Asj:__ZNSt3__214__split_bufferIN6il2cpp2vm22EmbeddedResourceRecordERNS_9allocatorIS3_EEED2Ev
Uqf:_TlsClientHello__ctor_m1699671541
U1b:__ZZN12MeshRenderer15InitializeClassEvEN29FunctorImpl_134kDidModifyMesh4CallEPviR11MessageData
wJc:__ZN13TextRendering4Font8TransferI24GenerateTypeTreeTransferEEvRT_
sxi:_Context_NotifyGlobalDynamicSinks_m2916447645
lNa:__ZN23ManagedAttributeManager15InitializeClassEv
acc:__Z27CullingGroup_CUSTOM_DisposeP12Il2CppObject
X_g:_Random_Range_m2884721203
Prj:__ZN6il2cpp6icalls8mscorlib6SystemL23CheckWideningConversionEjjj
VRa:__ZN13ComputeShader15SetTextureParamEjRKN9ShaderLab16FastPropertyNameE9TextureID16TextureDimension
Owh:_Shadow_set_effectDistance_m1951993364
SQg:_GUILayoutEntry_ApplyStyleSettings_m371609721
fkh:_Dictionary_2_ContainsKey_m416495915_gshared
YGe:_Collection_1_Remove_m1798559666_gshared
Cm:_glStencilMask
JBj:__ZN6il2cpp2os10ThreadImpl16GetCurrentThreadEv
Owd:_Hashtable__ctor_m2337481811
Ldh:_Enumerator_System_Collections_IEnumerator_get_Current_m2010873149_gshared
XXd:_Resources_t2975512894_marshal_pinvoke_cleanup
Ogi:_AnimationEvent_get_messageOptions_m3547411650
MMf:__ZL88Type_t_CustomAttributesCacheGenerator_Type_MakeGenericType_m2765875033____typeArguments0P21CustomAttributesCache
Log:__ZL74SpriteState_t1353336012_CustomAttributesCacheGenerator_m_HighlightedSpriteP21CustomAttributesCache
Utg:_RealProxy__ctor_m2505535530
zHj:_GC_push_conditional_with_exclusions
Xah:_UInt32_System_IConvertible_ToUInt16_m2798641702_AdjustorThunk
Vvg:_BinaryFormatter_get_DefaultSurrogateSelector_m219714691
_x:__ZN21AnimationPosePlayableD0Ev
w7f:__ZL76Time_t31991979_CustomAttributesCacheGenerator_Time_get_deltaTime_m2233168104P21CustomAttributesCache
D7:__ZN15dense_hashtableINSt3__24pairIKiiEEi21InstanceIDHashFunctorN14dense_hash_mapIiiS4_NS0_8equal_toIiEE13stl_allocatorIS3_L18MemLabelIdentifier65ELi16EEE9SelectKeyES7_SA_E9copy_fromERKSD_j
CJe:_Collection_1_System_Collections_IList_get_IsFixedSize_m3252091801_gshared
p9h:__Z57RuntimeInvoker_Boolean_t3825574718_LabelFixup_t4090909514PK10MethodInfoPvPS2_
gXd:_FloatTween_get_ignoreTimeScale_m4161298485_AdjustorThunk
kNg:_MonoProperty_GetOptionalCustomModifiers_m3827844355
VPj:_strrchr
Jwi:__ZN21InterfaceFuncInvoker1IP8String_tS1_E6InvokeEjP11Il2CppClassP12Il2CppObjectS1_
Waf:_SimpleCollator_GetSortKey_m2188419329
Dpg:__ZL56LayoutElement_t2808691390_CustomAttributesCacheGeneratorP21CustomAttributesCache
mth:_Scrollbar_Set_m244028386
Xfc:__Z33Register_UnityEngine_Random_Rangev
Kic:__Z27Object_CUSTOM_DestroyObjectP12Il2CppObjectf
Plb:__ZN14RenderSettings27UpdateIndirectSpecularColorEv
Tyb:__ZN14PlayerSettings8TransferI18StreamedBinaryReadILb0EEEEvRT_
Cdj:__ZN6il2cpp6icalls8mscorlib6System8MonoType16GetMethodsByNameEP20Il2CppReflectionTypeP12Il2CppStringibS5_
vui:_GCHandle__ctor_m2952050298
uje:_LayoutGroup_SetProperty_TisAxis_t1431825778_m2174054513_gshared
pqb:__ZN4PPtrI10GameObjectE8TransferI14SafeBinaryReadEEvRT_
Wqh:_Mask_IsRaycastLocationValid_m62488857
C$:__ZN17DirectorFrameTime10SampleTimeEfff
Jsa:__ZNSt3__27__sort3IRNS_4lessIN22BuiltinResourceManager8ResourceEEEPS3_EEjT0_S7_S7_T_
qLh:_DefaultComparer_Compare_m3472472212_gshared
y1e:_MonoIO_GetLength_m2812344043
IRc:_ps_hints_t2mask
Eig:__ZL68UsedByNativeCodeAttribute_t3212052468_CustomAttributesCacheGeneratorP21CustomAttributesCache
lF:__Z110Register_UnityEngine_Experimental_Director_AnimatorControllerPlayable_INTERNAL_CALL_GetParametersArrayInternalv
Iub:__ZN10BlendShape8TransferI19StreamedBinaryWriteILb0EEEEvRT_
a5i:__ZL25UnresolvedVirtualCall_215P12Il2CppObject40CustomAttributeTypedArgument_t1498197914PK10MethodInfo
Ysi:_PlayableHandle_INTERNAL_CALL_IsValidInternal_m2792360706
_Ni:_Transform_IsChildOf_m10844547
oG:__Z32TransferEnumWithNameForceIntSizeI14SafeBinaryReadN10SampleClip8LoadTypeEEvRT_RT0_PKc17TransferMetaFlags
S_e:__Z21il2cpp_codegen_sizeofP11Il2CppClass
jba:__Z19GetTimeSinceStartupv
Sfd:_SecurityFrame_get_Assembly_m2816566490
zBj:__ZN6il2cpp2os10ThreadImpl11SetPriorityENS0_14ThreadPriorityE
ZWc:_TT_Load_Composite_Glyph
t5i:__ZL25UnresolvedVirtualCall_234P12Il2CppObjecti19Vector3_t2243707580PK10MethodInfo
bQi:_NetFxCoreExtensions_CreateDelegate_m2492743074
ePh:__Z51RuntimeInvoker_Boolean_t3825574718_Int64_t909078037PK10MethodInfoPvPS2_
xnd:_Array_Sort_m2994254654
gAe:_List_1__ctor_m593058937_gshared
k9d:_Array_InternalArray__IEnumerable_GetEnumerator_TisColor32_t874517518_m2198639025_gshared
PWa:__ZN29RenderNodeQueuePrepareContextC2Ev
ZN:__ZN10SampleClipC2E18MemLabelIdentifier18ObjectCreationMode
nUb:__ZN9ShaderLab20SerializedSubProgram16TextureParameter8TransferI24GenerateTypeTreeTransferEEvRT_
J5g:_Thread_set_Name_m1343706609
JLj:__ZN6il2cpp2os11MutexHandle4WaitEj
w8b:__ZL34GetComponentsImplementationRecurseILb1ELi1ELi1EEbR10GameObjectbRK17CompareParametersRK39GetComponentsImplementation_ReturnValue
ILj:__ZN6il2cpp2os11MutexHandle4WaitEv
Tsd:_ArrayList_set_Capacity_m592558035
bla:__ZN6prcoreL17RemapGenericFloatI15TexFormatRGHalf18TexFormatARGBFloatEEvPKNS_9InnerInfoE
i7e:_MonoEnumInfo_t2335995564_marshal_pinvoke_cleanup
fda:__ZNK13RenderTexture13GetDataHeightEv
TQa:__ZN13RenderManager23AddRemoveCamerasDelayedEv
qQa:_UNITY_png_write_pHYs
gma:__ZN23PreloadManagerOperation11GetPriorityEv
$Ld:_Exception_get_InnerException_m3722561235
v7d:_Array_InternalArray__ICollection_Remove_TisILTokenInfo_t149559338_m1523907845_gshared
X1c:__ZN11UnityEngine9Analytics15AnalyticsConfigC2Ev
Bmi:_ContactFilter2D_CheckConsistency_m1391185667
$4f:__ZL84RectOffset_t3387826427_CustomAttributesCacheGenerator_RectOffset_get_left_m439065308P21CustomAttributesCache
Xwe:_List_1_GetEnumerator_m4053501645_gshared
Fbj:__ZN6il2cpp2gc9AllocatorIP17Il2CppAsyncResultE10deallocateEPvj
b_i:_Enumerator_CheckState_m1761755727_gshared
fxd:_Hashtable_Rehash_m2877670513
X2a:__ZN13RenderTexture8SetWidthEi
C3d:_InputField_Insert_m1593238693
E_b:__ZNK28RectTransformPropertyBinding12SetPPtrValueERKN11UnityEngine9Animation10BoundCurveEi
gPb:__Z18Transfer_BlittableI18StreamedBinaryReadILb0EELb0EfEvRK29SerializationCommandArgumentsR31RuntimeSerializationCommandInfo
Wub:__ZN10MeshFilterD0Ev
$Wc:_UNITY_FT_GlyphLoader_CheckSubGlyphs
rXh:__Z132RuntimeInvoker_Int32_t2071877448_Il2CppObject_Int32_t2071877448_Int32_t2071877448_Il2CppObject_Int32_t2071877448_Int32U26_t455636984PK10MethodInfoPvPS2_
Hbj:__ZN6il2cpp2vm21ThreadPoolCompartment20SpawnNewWorkerThreadEv
tce:_Array_InternalArray__ICollection_Add_TisCustomAttributeTypedArgument_t1498197914_m3260005285_gshared
XYa:__Z25SetupObjectBakedOcclusionbRK15SharedLightDataRK26SharedLightmapSettingsDataRK15LightmapIndicesR17ShaderPassContext
Wxd:_SyncHashtable_GetObjectData_m3774367030
GAi:__ZN21InterfaceFuncInvoker4IP17Match_t3164245899P17Regex_t1803876613P8String_tiiE6InvokeEjP11Il2CppClassP12Il2CppObjectS3_S5_ii
gXe:_Guid_GetHashCode_m1401300871
QYi:_ListPool_1_U3Cs_ListPoolU3Em__0_m1243609651_gshared
Jnc:__Z42Register_UnityEngine_GUIStyle_set_fontSizev
jZd:_FontData__ctor_m3822008992
Ohi:_LogCallback__ctor_m898185969
g1i:__ZL23UnresolvedVirtualCall_5P12Il2CppObjectsPK10MethodInfo
dB:__ZN4PPtrI6AvatarE8TransferI19StreamedBinaryWriteILb0EEEEvRT_
ms:__ZN8Animator9BuildJobsERK13dynamic_arrayIP14PlayableOutputLj4EERS0_INS_11AnimatorJobELj4EEPS7_bb
G$:__ZN9ShaderLab16FastPropertyName4InitEPKc
Exc:__ZN11b2GearJointD0Ev
LZb:__Z13RegisterClassIN2UI13RectTransformEEvv
saf:_MSCompatUnicodeTable_ToWidthCompat_m2299599532
O_i:__ZN13Il2CppHashMapIPK22Il2CppGenericParameterP11Il2CppClassN6il2cpp5utils11PointerHashIS1_EENSt3__28equal_toIS2_EENS9_9allocatorINS9_4pairIK10KeyWrapperIS2_ES4_EEEEEC2EjRKS8_RKSB_
a9e:_NumberFormatter_get_IsFloatingSource_m2830957202
hsb:__ZN10VertexData8TransferI17RemapPPtrTransferEEvRT_
Lca:__ZN13RenderTexture9SetMipMapEb
d6i:__ZN15dense_hashtableINSt3__24pairIK10KeyWrapperIPK11Il2CppClassEPKcEES6_N6il2cpp5utils11PointerHashIS3_EEN14dense_hash_mapIS6_S9_SE_NS6_14EqualsComparerINS0_8equal_toIS5_EEEENS0_9allocatorISA_EEE9SelectKeyESJ_SL_E13set_empty_keyERKSA_
Vuh:_ScrollRect_set_verticalScrollbarSpacing_m2356851539
NZ:__Z18GetDirectorManagerv
J9e:_OperatingSystem_GetObjectData_m2276196875
thb:__ZNK10TagManager26GetTypeInfoVirtualInternalEv
M1g:_ResourceRequest_t2560315377_marshal_pinvoke_back
ABb:__ZN21ArchiveStorageCreator13AppendRawNodeERKN4core12basic_stringIcNS0_20StringStorageDefaultIcEEEEN20ArchiveStorageHeader9NodeFlagsEyy
Mhc:__Z38Transform_CUSTOM_INTERNAL_get_rotationP12Il2CppObjectP11Quaternionf
Lhj:__ZNSt3__26vectorIN6il2cpp2vm17TypeNameParseInfoENS_9allocatorIS3_EEE8allocateEj
lsi:_AnimatorControllerPlayable_CrossFadeInFixedTime_m1082259778
PRf:__ZL66CriticalFinalizerObject_t1920899984_CustomAttributesCacheGeneratorP21CustomAttributesCache
D4i:__ZL25UnresolvedVirtualCall_190P12Il2CppObject20TimeSpan_t3430258949S1_PK10MethodInfo
Fkj:__ZNK15dense_hashtableINSt3__24pairIK10KeyWrapperINS1_IPK10MethodInfoP11Il2CppClassEEEjEES9_17ReflectionMapHashIS8_EN14dense_hash_mapIS9_jSD_NS9_14EqualsComparerINS0_8equal_toIS8_EEEENS0_9allocatorISB_EEE9SelectKeyESI_SK_E5beginEv
yCa:__ZN7ApiGLES19UploadBufferSubDataEjN2gl12BufferTargetEllPKv
mhd:_String_System_IConvertible_ToInt32_m1927223638
R7d:_Array_InternalArray__ICollection_Remove_TisContentType_t1028629049_m3085152315_gshared
U2h:__Z62RuntimeInvoker_AnimatorStateInfo_t2577870592_Int32_t2071877448PK10MethodInfoPvPS2_
gki:_Canvas_set_sortingOrder_m2922819993
Qdi:__Z72RuntimeInvoker_KeyValuePair_2_t3749587448_Int32_t2071877448_Il2CppObjectPK10MethodInfoPvPS2_
qaj:__ZNSt3__26__treeINS_12__value_typeIP11Il2CppClassS3_EENS_19__map_value_compareIS3_S4_NS_4lessIS3_EELb1EEENS_9allocatorIS4_EEE25__emplace_unique_key_argsIS3_JNS_4pairIS3_S3_EEEEENSD_INS_15__tree_iteratorIS4_PNS_11__tree_nodeIS4_PvEEiEEbEERKT_DpOT0_
sjd:_ASCIIEncoding__ctor_m4127831672
Oag:__ZL117AnimatorControllerPlayable_t4078305555_CustomAttributesCacheGenerator_AnimatorControllerPlayable_CrossFade_m437921439P21CustomAttributesCache
qGb:__Z19TransferField_ArrayI14SafeBinaryRead27Converter_SimpleNativeClassI8GUIStyleEEvRK23StaticTransferFieldInfoR31RuntimeSerializationCommandInfoRT0_
Y3g:_UTF8Encoding__ctor_m3336862259
Ruj:__ZN15dense_hashtableINSt3__24pairIK10KeyWrapperIP14Il2CppIUnknownEjEES5_N6il2cpp5utils11PointerHashIS3_EEN14dense_hash_mapIS5_jSB_NS5_14EqualsComparerINS0_8equal_toIS4_EEEENS0_9allocatorIS7_EEE9SelectKeyESG_SI_ED2Ev
pKj:__ZN6il2cpp5utils10MemoryPoolC2Ej
n5h:__Z54RuntimeInvoker_Boolean_t3825574718_HitInfo_t1761367055PK10MethodInfoPvPS2_
QEf:_X509Chain_GetAuthorityKeyIdentifier_m2607407678
lKj:__ZN6il2cpp5utils10MemoryPoolC2Ev
plb:__ZN14RenderSettings5ResetEv
Wsj:__ZNSt3__212basic_stringIDsNS_11char_traitsIDsEENS_9allocatorIDsEEE6appendEPKDsj
ASd:_RaycastResult_set_gameObject_m1138581891_AdjustorThunk
eji:_Bounds_get_extents_m4077324178_AdjustorThunk
gTh:__Z117RuntimeInvoker_Int32_t2071877448_Il2CppObject_Il2CppObject_Int32_t2071877448_Int32_t2071877448_BooleanU26_t3168250738PK10MethodInfoPvPS2_
HIh:_InternalEnumerator_1_get_Current_m3724267862_AdjustorThunk
Mie:_Dictionary_2_Do_ICollectionCopyTo_TisKeyValuePair_2_t3716250094_m1740410536_gshared
LPg:_GUI_CallWindowDelegate_m2039577415
tBj:__ZN6il2cpp2os10ThreadImplD2Ev
Tgf:_RSAManaged_Dispose_m3018788098
Yxc:__ZN12b2MouseJoint23InitVelocityConstraintsERK12b2SolverData
Joc:__ZN8Gradient8TransferI9JSONWriteEEvRT_
c5g:_Monitor_Monitor_pulse_m2135582245
_Ad:_DateTime_ToUniversalTime_m1815024752
dzf:_NameObjectCollectionBase_get_Count_m2353593692
ebb:__ZNK12TLSAllocatorI14StackAllocatorE22GetAllocatedMemorySizeEv
GQf:__ZL54AssemblyName_t894705941_CustomAttributesCacheGeneratorP21CustomAttributesCache
XDd:_Convert_ToUInt32_m3394039268
m5a:__ZN17RemapPPtrTransfer12PushMetaFlagE17TransferMetaFlags
jN:__ZNK7WeakPtrI20SoundChannelInstanceE10SharedData9GetRawPtrEv
tLa:__ZN12HandlerChain4NameEv
sxb:__ZNSt3__26vectorI9InputAxisNS_9allocatorIS1_EEE10deallocateEv
N8i:__ZNK15dense_hashtableINSt3__24pairIK10KeyWrapperI13dynamic_arrayIPK10Il2CppTypeLj4EEEPFvvEEES8_N6il2cpp8metadata19Il2CppSignatureHashEN14dense_hash_mapIS8_SB_SF_NS8_14EqualsComparerINSE_22Il2CppSignatureCompareEEENS0_9allocatorISC_EEE9SelectKeyESJ_SL_E10test_emptyERK30dense_hashtable_const_iteratorISC_S8_SF_SN_SJ_SL_E
eYe:_Int16_Equals_m3925135434_AdjustorThunk
r0c:__Z44Register_UnityEngine_CanvasRenderer_get_cullv
Egh:_Enumerator_Dispose_m2532362830_AdjustorThunk
wOf:__ZL60IHashCodeProvider_t1980576455_CustomAttributesCacheGeneratorP21CustomAttributesCache
f_b:__ZN13ProduceHelperI13MonoBehaviourLb0EE7ProduceE18MemLabelIdentifier18ObjectCreationMode
qne:_Enumerator_VerifyState_m1677639504_AdjustorThunk
i9a:__Z29StdTemplateConversionFunctionIbbEbPvR14SafeBinaryRead
rEj:__ZNK15dense_hashtableINSt3__24pairIK10KeyWrapperIPK19Il2CppGenericMethodEP10MethodInfoEES6_N6il2cpp8metadata23Il2CppGenericMethodHashEN14dense_hash_mapIS6_S9_SD_NS6_14EqualsComparerINSC_26Il2CppGenericMethodCompareEEENS0_9allocatorISA_EEE9SelectKeyESH_SJ_E12test_deletedEj
cqf:_CipherSuiteCollection_get_Item_m280627160
YEb:__Z44InitializeTransferFunctionScriptingTraitsForI17RemapPPtrTransferEvR31TransferFunctionScriptingTraits
ltg:_SerializationInfoEnumerator_MoveNext_m1876990879
o7g:_TimeSpan_Duration_m4205681645
z6a:__ZN14UnityWebStream24UpdateAllUnityWebStreamsEv
RDe:_Collection_1_System_Collections_IList_get_IsReadOnly_m2329986891_gshared
_Mf:__ZL60ObsoleteAttribute_t3878847927_CustomAttributesCacheGeneratorP21CustomAttributesCache
wR:__ZN11UnityEngine15CloudWebService14DataErrorEventD2Ev
Rde:_Array_InternalArray__ICollection_CopyTo_TisRaycastHit2D_t4063908774_m3837098618_gshared
ona:__ZN18LoadSceneOperation21MustCompleteNextFrameEv
PK:__ZNK12AudioManager16GetAudioListenerEv
NLg:_MonoField_get_FieldType_m598011426
QDe:_Collection_1_System_Collections_IList_get_IsFixedSize_m1624702704_gshared
YPd:_EventTrigger_OnScroll_m626934407
SNi:_Transform_Rotate_m1743927093
V2f:__ZL48Camera_t189460977_CustomAttributesCacheGeneratorP21CustomAttributesCache
r2a:__ZNSt3__26vectorI11CameraStackNS_9allocatorIS1_EEE8__appendEj
usj:__ZNSt3__212basic_stringIcNS_11char_traitsIcEENS_9allocatorIcEEE6__initINS_11__wrap_iterIPcEEEENS_9enable_ifIXsr21__is_forward_iteratorIT_EE5valueEvE4typeESB_SB_
_zc:__ZNK11Rigidbody2D20GetAttachedCollidersER13dynamic_arrayIP10Collider2DLj4EE
L2d:_InputField_OnDisable_m1865339380
Uah:_UInt32_System_IConvertible_ToType_m747769316
Dx:__ZN7mecanim9animation12GetHumanPoseERKNS0_18ClipMuscleConstantEPKNS0_10ValueDeltaERNS_5human9HumanPoseE
ulj:__ZN6il2cpp2vm10Reflection17GetPropertyObjectEP11Il2CppClassPK12PropertyInfo
H1c:__ZN11UnityEngine9Analytics15UserCustomEvent12CustomParams6InsertEPKcRNS1_11CustomValueE
_Yj:_glDeleteVertexArrays__wrapper
uMb:__Z29Transfer_Blittable_ArrayFieldI19StreamedBinaryWriteILb0EEjEvRT_R9ArrayInfoRK23StaticTransferFieldInfo
yX:__Z13GetFileSystemv
b6:__ZNK5Unity4Type21FindAllDerivedClassesER13dynamic_arrayIPKS0_Lj4EENS0_17TypeFilterOptionsE
W6:__ZN13RuntimeStaticI15GUIEventManagerLb0EE16StaticInitializeEPv
rwb:__ZN14SafeBinaryRead8TransferIfEEvRT_PKc17TransferMetaFlags
aQb:__ZL12InvokeMethodI18StreamedBinaryReadILb0EEEvRK29SerializationCommandArgumentsR31RuntimeSerializationCommandInfo
wVe:_DaylightTime_get_Delta_m2316831491
EEc:__ZNSt3__27__sort5IR24RayHitsByDepthComparitorP12RaycastHit2DEEjT0_S5_S5_S5_S5_T_
S6d:_Array_InternalArray__ICollection_Contains_TisUILineInfo_t3621277874_m1175659630_gshared
E6g:_WaitHandle_WaitOne_m370363697
Xjg:__ZL114PointerEventData_t1599784723_CustomAttributesCacheGenerator_PointerEventData_set_pointerCurrentRaycast_m2431897513P21CustomAttributesCache
WGf:_FactoryCache_Lookup_m1681894361
dGd:_DateTime_Subtract_m698282245_AdjustorThunk
_vb:__ZThn32_N14SpriteRenderer15AddAsRenderNodeER15RenderNodeQueueRK20DeprecatedSourceData
MLh:_DefaultComparer__ctor_m2470932885_gshared
dPf:__ZL55BinaryReader_t2491843768_CustomAttributesCacheGeneratorP21CustomAttributesCache
AKe:_Collection_1_InsertItem_m724820684_gshared
u_f:__ZL79Convert_t2607082565_CustomAttributesCacheGenerator_Convert_ToUInt64_m1896191125P21CustomAttributesCache
gSa:__ZN19ShaderPropertySheet9SetMatrixEN9ShaderLab16FastPropertyNameERK10Matrix4x4fNS_8SetFlagsE
F9c:_RIPEMD160Managed_Initialize_m3365407578
_nb:__Z29GetTextureSizeAllowedMultiple13TextureFormat
CAf:_IPAddress_HostToNetworkOrder_m1092199707
u8d:_SetPropertyUtility_SetStruct_TisSpriteState_t1353336012_m2898060836_gshared
Wdd:_SecurityAttribute__ctor_m3425755778
K3b:__ZN21IntermediateRenderers3AddEP20IntermediateRenderer
cfj:_il2cpp_array_element_size
r3h:__Z80RuntimeInvoker_Int32_t2071877448_PlayableHandleU26_t3483893774_Int32_t2071877448PK10MethodInfoPvPS2_
Zag:__ZL139AnimatorControllerPlayable_t4078305555_CustomAttributesCacheGenerator_AnimatorControllerPlayable_INTERNAL_CALL_CrossFadeInternal_m698817831P21CustomAttributesCache
cg:_glCheckFramebufferStatus
gcg:__ZL55TextGenerator_t647235000_CustomAttributesCacheGeneratorP21CustomAttributesCache
I9d:_Array_compare_TisInt32_t2071877448_m840310202_gshared
CWh:__Z57RuntimeInvoker_Il2CppObject_Il2CppObject_Byte_t3683104436PK10MethodInfoPvPS2_
PKh:_InternalEnumerator_1_System_Collections_IEnumerator_get_Current_m442726479_AdjustorThunk
DAg:_DESTransform_ECB_m2629024873
pJh:_InternalEnumerator_1_System_Collections_IEnumerator_get_Current_m790514740_AdjustorThunk
hxc:__ZNK15b2DistanceJoint17GetReactionTorqueEf
ljd:__Z37il2cpp_codegen_get_executing_assemblyPK10MethodInfo
IXb:__ZN9Transform23VirtualRedirectTransferER17RemapPPtrTransfer
sNf:__ZL57TypedReference_t1025199857_CustomAttributesCacheGeneratorP21CustomAttributesCache
Oae:_Array_InternalArray__IndexOf_TisByte_t3683104436_m3605266236_gshared
kVg:_GUIStyle_set_richText_m1853532836
jKe:_Collection_1_System_Collections_IList_Insert_m435904526_gshared
Zsh:_RaycastAllCallback_Invoke_m981876639
L2g:_UnicodeEncoding__ctor_m72484327
vLf:__ZL74Il2CppArray_CustomAttributesCacheGenerator_Array_GetUpperBound_m1352329707P21CustomAttributesCache
HWi:_PlayerOneControls_Update_m1412454757
Uuj:__ZN14dense_hash_mapI10KeyWrapperIP14Il2CppIUnknownEjN6il2cpp5utils11PointerHashIS1_EENS3_14EqualsComparerINSt3__28equal_toIS2_EEEENS9_9allocatorINS9_4pairIKS3_jEEEEE15set_deleted_keyERSF_
G6:__ZN22BuiltinResourceManager16StaticInitializeEPv
zUe:_NumberFormatter_ScaleOrder_m1915154678
brj:__ZN6il2cpp2gc9AllocatorIP12Il2CppThreadE10deallocateEPvj
Fwc:__ZN24b2ChainAndCapsuleContact8EvaluateEP10b2ManifoldRK11b2TransformS4_
eVi:_UnityEvent_1_GetDelegate_m2720691419_gshared
Zrf:_ClientSessionInfo_SetContext_m2649357891
XYe:_Int32_System_IConvertible_ToInt64_m3790029067_AdjustorThunk
BAc:__ZN13BoxCollider2D13PrepareShapesER13dynamic_arrayIP7b2ShapeLj4EERK10Matrix4x4f
LQh:__Z69RuntimeInvoker_Boolean_t3825574718_Il2CppObject_DoubleU26_t1208767207PK10MethodInfoPvPS2_
APd:_RaycasterManager_GetRaycasters_m1154876874
kxf:_SslStreamBase_InternalReadCallback_m2524917586
E5:__ZN8Remapper6RemoveEi
pse:_List_1_CheckCollection_m2608305187_gshared
KKa:__ZN10MemoryFile4ReadEyPvPy
f9g:_Type_get_ContainsGenericParameters_m505913180
_Lc:__ZL36CleanupTextRenderingScriptingClassesv
T6f:__ZL82Material_t193706927_CustomAttributesCacheGenerator_Material_SetIntImpl_m4157631275P21CustomAttributesCache
T2a:__ZN15ReflectionProbe17UseRendererResultEP13ProbeRenderer
dnd:_Array_BinarySearch_m3270245097
Mec:__Z34Mesh_CUSTOM_SetArrayForChannelImplP12Il2CppObject30InternalScriptingShaderChannel34InternalScriptingVertexChannelTypeiP11Il2CppArrayi
M0e:_MonoIO_DeleteFile_m3273821223
kIh:_InternalEnumerator_1_Dispose_m3642485841_AdjustorThunk
ccf:_BigInteger_GenerateRandom_m2507308768
VEd:_DateTime_System_IConvertible_ToDouble_m1431748426_AdjustorThunk
Rbi:__Z76RuntimeInvoker_Void_t1841601450_Int32_t2071877448_ContactPoint2D_t3659330976PK10MethodInfoPvPS2_
E6d:_Array_InternalArray__ICollection_Contains_TisUInt16_t986882611_m510319131_gshared
See:_Array_InternalArray__Insert_TisRaycastHit2D_t4063908774_m3174907903_gshared
tId:_Decimal_ToString_m541380585
JHf:_RepeatContext_get_Previous_m808449037
YXh:__Z60RuntimeInvoker_DateTime_t693205669_Il2CppObject_Il2CppObjectPK10MethodInfoPvPS2_
hKg:_MemberFilter__ctor_m1775909550
ufj:_il2cpp_class_is_valuetype
O6c:__ZZN18UnityConnectClient23RegisterGlobalCallbacksEvEN41EarlyUpdateUnityConnectClientUpdatestruct7ForwardEv
PB:__ZN11UnityEngine9Animation28GenericAnimationBindingCache25RegisterIAnimationBindingEPKN5Unity4TypeEiP17IAnimationBinding
$E:__Z106Register_UnityEngine_Experimental_Director_AnimatorControllerPlayable_INTERNAL_CALL_GetLayerWeightInternalv
v0c:__Z70RectTransformUtility_CUSTOM_INTERNAL_CALL_RectangleContainsScreenPointP12Il2CppObjectRK13Vector2fIcallS0_
xLd:_Enum_ToObject_m2601523252
vTj:dynCall_viiffiii
Lwf:_InternalAsyncResult_get_FromWrite_m2893408424
E$i:__ZN6il2cpp2vm5Class15GetElementClassEP11Il2CppClass
j5d:_U3CDelayedSetDirtyU3Ec__Iterator0_System_Collections_IEnumerator_get_Current_m851854792
vVa:__Z20RenderSceneDepthPassRK19SharedRendererSceneRK17ShaderReplaceDatabR17ShaderPassContext
p1c:__ZN14UnityAnalytics25UnregisterGlobalCallbacksEv
l1a:__Z40ProcessCameraIndexListIsNodeVisibleInOutRK22SceneCullingParametersPK9SceneNodePK4AABBR9IndexList
pkb:__ZN16GraphicsSettings8TransferI17RemapPPtrTransferEEvRT_
Slf:_BigInteger_op_LessThanOrEqual_m3528380540
T3e:_StreamReader__ctor_m2654332332
VZc:__ZN2UI6Canvas13UpdateBatchesEb
inb:__ZN7Texture19SupportsAsyncUploadI19StreamedBinaryWriteILb0EEEEbRT_
vqe:_List_1_CheckCollection_m3968030679_gshared
HRi:_Predicate_1_BeginInvoke_m3556950370_gshared
p2g:_StringBuilder_ToString_m617673931
fua:__ZNK13GfxDeviceGLES12GetWireframeEv
_Oe:_ReadOnlyCollection_1_System_Collections_ICollection_get_IsSynchronized_m3127987432_gshared
B4c:__ZN11UnityEngine7Connect13ConfigHandler12GetListenersERKN4core12basic_stringIcNS2_20StringStorageDefaultIcEEEE
xva:__ZN9GfxDevice18AllocRenderSurfaceEb
qYb:__ZN10TagManager32GetSortingLayerUniqueIDFromValueEi
CDi:_AnchorInfo_get_IsComplete_m1247624133
DYd:_Dropdown_Show_m324374589
w_:__ZL27CleanupCoreScriptingClassesv
O3f:__ZL85Component_t3819376471_CustomAttributesCacheGenerator_Component_SendMessage_m913946877P21CustomAttributesCache
JLe:_ReadOnlyCollection_1_System_Collections_ICollection_get_SyncRoot_m769863805_gshared
TRd:_RaycastResult_get_isValid_m2482925612
Aec:__Z26AnimationCurve_CUSTOM_InitP12Il2CppObjectP11Il2CppArray
c$j:_glUniform1uiv__wrapper
mwc:__ZNK14b2PolygonShape5CloneEP16b2BlockAllocator
Tmj:__ZN6il2cpp2vm10Reflection7IsEventEP12Il2CppObject
aaj:__ZNSt3__26__treeINS_12__value_typeIPFvvEPK10MethodInfoEENS_19__map_value_compareIS3_S7_NS_4lessIS3_EELb1EEENS_9allocatorIS7_EEE16__insert_node_atEPNS_16__tree_node_baseIPvEERSI_SI_
l2:__ZN17PersistentManager26GetStreamNameSpaceInternalEi
wG:__ZN4FMOD6System11createSoundEPKcjP22FMOD_CREATESOUNDEXINFOPPNS_5SoundE
_ki:_CanvasRenderer_get_cull_m3577089379
XGe:__ZN23InterfaceActionInvoker2Ii22UICharInfo_t3056636800E6InvokeEjP11Il2CppClassP12Il2CppObjectiS0_
co:FUNCTION_TABLE_iiifiiii
l4h:__Z66RuntimeInvoker_Void_t1841601450_Int32_t2071877448_Rect_t3681755626PK10MethodInfoPvPS2_
CZg:_Object_Destroy_m4145850038
X2h:__Z109RuntimeInvoker_Void_t1841601450_PlayableHandleU26_t3483893774_Int32_t2071877448_SByte_t454417549_Il2CppObjectPK10MethodInfoPvPS2_
kij:__ZN6il2cpp2vm4Type14IsSystemDBNullEPK10Il2CppType
A0:__ZN9ShaderLab19CommonPropertyNames13StaticCleanupEPv
t3:__Z31scripting_method_get_returntype18ScriptingMethodPtr
bvh:_ScrollRect_UpdateBounds_m3266596336
hpb:__ZN15SerializeTraitsI12LightmapDataE8TransferI24GenerateTypeTreeTransferEEvRS0_RT_
YPa:_unity_z_zcfree
kWd:_ColorBlock_GetHashCode_m649325222
CXj:_glStencilOpSeparate__wrapper
Y5b:__ZN4Mesh5SetUvEiPKfjj
Rna:__ZN7Texture13SetAnisoLimitENS_20AnisotropicFilteringE
goa:__ZN28LightProbeProxyVolumeManager25UpdateSHCoeffsTextureDataER21LightProbeProxyVolume
vJa:__Z18CreateDecompressor15CompressionType18MemLabelIdentifier
SO:__ZN11AudioModule16SetListenerPauseEb
Wh:_emscripten_glCompressedTexSubImage2D
ODa:__ZN13GfxDeviceGLES22MemoryBarrierImmediateEyN2gl17MemoryBarrierTypeE
WDd:_Convert_ToUInt32_m1336475941
Ebg:__ZL132AnimatorControllerPlayable_t4078305555_CustomAttributesCacheGenerator_AnimatorControllerPlayable_INTERNAL_CALL_SetBoolID_m2987425503P21CustomAttributesCache
Htj:__ZN6il2cpp6icalls8mscorlib6System4Type18internal_from_nameEP12Il2CppStringbb
qla:__ZN6prcoreL26RemapGenericFloatToIntegerI18TexFormatARGBFloat17TexFormatARGB8888EEvPKNS_9InnerInfoE
TYb:__ZN6Object27GetOffsetOfInstanceIdMemberEv
gVc:_cff_ps_has_glyph_names
rTi:_InvokableCall_1__ctor_m2837611051_gshared
nnh:_EqualityComparer_1__ctor_m1389939323_gshared
Lfh:_Transform_1_EndInvoke_m1025924012_gshared
tLf:__ZL81Il2CppArray_CustomAttributesCacheGenerator_Array_GetValue_m3550694941____indices0P21CustomAttributesCache
WPe:_ReadOnlyCollection_1_System_Collections_Generic_ICollectionU3CTU3E_get_IsReadOnly_m2873538493_gshared
oBi:_PatternCompiler_EmitPosition_m3013268572
sGf:_X509SubjectKeyIdentifierExtension__ctor_m1109455121
U1i:__ZL24UnresolvedVirtualCall_45P12Il2CppObject19DateTime_t693205669PK10MethodInfo
P_d:_Graphic_CreateColorFromAlpha_m2614574534
d3g:_UnicodeEncoding_GetHashCode_m2443440683
Vnc:__Z44Register_UnityEngine_GUIStyle_SetDefaultFontv
jHg:_GenericTypeParameterBuilder_GetPropertyImpl_m3566422383
QMb:__Z18Transfer_BlittableI18StreamedBinaryReadILb1EELb1EiEvRK29SerializationCommandArgumentsR31RuntimeSerializationCommandInfo
Zs:__ZN9BlobWrite8TransferI22OffsetPtrArrayTransferIKN4math7_float3EEEEvRT_PKc17TransferMetaFlags
Rcd:_TripleDES_IsWeakKey_m483013953
HDf:_X509Certificate2_get_PrivateKey_m2662162956
Kgh:_Enumerator__ctor_m3819430617_AdjustorThunk
Ilj:__ZN15dense_hashtableINSt3__24pairIK10KeyWrapperINS1_IPK12PropertyInfoP11Il2CppClassEEEjEES9_17ReflectionMapHashIS8_EN14dense_hash_mapIS9_jSD_NS9_14EqualsComparerINS0_8equal_toIS8_EEEENS0_9allocatorISB_EEE9SelectKeyESI_SK_E12maybe_shrinkEv
gNb:__Z18Transfer_BlittableI18StreamedBinaryReadILb1EELb1EsEvRK29SerializationCommandArgumentsR31RuntimeSerializationCommandInfo
qz:__ZN26AnimatorControllerPlayable17IsMultithreadableEv
ugd:_Single_System_IConvertible_ToSByte_m3757385387
k9h:__Z51RuntimeInvoker_Boolean_t3825574718_Slot_t2022531261PK10MethodInfoPvPS2_
M1e:_StreamAsyncResult_SetComplete_m2141125667
Wna:__ZL21SetAnisoLimitEnumImplN7Texture20AnisotropicFilteringEb
b3c:__ZN22BaseUnityConnectClient17OnEnterStateReadyEv
vY:__GLOBAL__sub_I_platformdependent_webgl_source_lump_cpp
Q_:__Z21GetManagerFromContexti
xte:_List_1_get_Count_m634584594_gshared
Zjb:__ZN14GrowableBufferD2Ev
GWg:_Keyframe_get_tangentMode_m1869200796_AdjustorThunk
Qdc:__Z29Input_CUSTOM_GetMouseButtonUpi
aej:__ZN6il2cpp6icalls8mscorlib6System8MonoType16InternalGetEventEP20Il2CppReflectionTypeP12Il2CppStringi
Yah:_UInt32_System_IConvertible_ToUInt32_m1257480358_AdjustorThunk
qPf:__ZL50FileMode_t236403845_CustomAttributesCacheGeneratorP21CustomAttributesCache
ROc:_UNITY_tt_face_load_maxp
aec:__Z46Input_CUSTOM_INTERNAL_set_compositionCursorPosRK13Vector2fIcall
su:__ZN7mecanim5human12FullBodyMaskEv
mYf:__ZL98Activator_t1850728717_CustomAttributesCacheGenerator_Activator_CreateInstance_m1465989661____args1P21CustomAttributesCache
j4i:__ZL25UnresolvedVirtualCall_170P12Il2CppObject19Vector3_t2243707580PK10MethodInfo
$$:__ZN19ShaderPropertySheet11ComputeHashEv
Oei:__Z111RuntimeInvoker_Il2CppObject_AnimatorClipInfo_t3905751349_AnimatorClipInfo_t3905751349_Il2CppObject_Il2CppObjectPK10MethodInfoPvPS2_
Pwc:__ZN12b2EPCollider24ComputePolygonSeparationEv
VNb:__ZN4PPtrI6ObjectE8TransferI18StreamedBinaryReadILb1EEEEvRT_
GWd:_ColorTween_get_tweenMode_m2919867230_AdjustorThunk
Iee:_Array_InternalArray__Insert_TisUInt16_t986882611_m2263078_gshared
oVd:_CanvasScaler_HandleScaleWithScreenSize_m80056230
NR:__ZN11UnityEngine15CloudWebService16SessionContainer16GetJsonDataBlockEjRKN4core12basic_stringIcNS2_20StringStorageDefaultIcEEEERS6_PjSA_
J4f:__ZL89GameObject_t1756533147_CustomAttributesCacheGenerator_GameObject_AddComponent_m3757565614P21CustomAttributesCache
jdj:__ZNK6il2cpp5utils10functional6FilterINSt3__212basic_stringIcNS3_11char_traitsIcEENS3_9allocatorIcEEEENS0_11StringUtils21CaseSensitiveComparerEEclIPKcEEbRKT_
wHg:_GenericTypeParameterBuilder_get_AssemblyQualifiedName_m902593295
G3g:_UTF7Encoding_InternalGetBytes_m2772055844
Soh:_EqualityComparer_1__ctor_m831468288_gshared
Eaf:_SimpleCollator__cctor_m2693747668
mId:_Decimal_CompareTo_m2454501434_AdjustorThunk
A2:__ZN14SafeBinaryReadD2Ev
F9g:_UInt16_System_IConvertible_ToChar_m4055364664
EZb:__Z13RegisterClassI7TextureEvv
GEi:_ExpressionCollection_OnValidate_m1703610065
nOb:__ZN8Gradient8TransferI18StreamedBinaryReadILb1EEEEvRT_
hgh:_Enumerator_Dispose_m2369319718_AdjustorThunk
QZf:__ZL79Convert_t2607082565_CustomAttributesCacheGenerator_Convert_ToUInt16_m3991499696P21CustomAttributesCache
Fnc:__Z45Register_UnityEngine_GUIStyle_SetFontInternalv
oDc:__ZN19CollisionListener2DD0Ev
iBe:_Enumerator_Dispose_m1520016780_AdjustorThunk
Ktj:__ZN6il2cpp6icalls8mscorlib6System4Type15MakeGenericTypeEP20Il2CppReflectionTypeP11Il2CppArray
pj:_SDL_PauseAudio
zfj:_il2cpp_class_from_type
Lnd:_Array_Sort_m2323017822
mHj:_GC_clear_mark_bit
Fth:_Scrollbar_UpdateDrag_m3839695926
KRg:_GUILayoutUtility__cctor_m2957755459
Mii:_AudioConfigurationChangeHandler_EndInvoke_m2237100787
z0:__ZN9ShaderLab19CommonPropertyNames16StaticInitializeEPv
x6e:_MissingMemberException__ctor_m3710131950
Ama:__ZN13MemoryManager31DisallowAllocationsOnThisThreadEv
FA:__ZN7mecanim9animation18CreateAvatarOutputEPKNS0_14AvatarConstantEbbRNS_6memory9AllocatorE
doc:__Z45GUIUtility_CUSTOM_Internal_GetKeyboardControlv
dAg:_CspParameters__ctor_m2546931874
fM:__ZN11AudioSource23VirtualRedirectTransferER24GenerateTypeTreeTransfer
$1c:__ZN14UnityAnalytics15SendCustomEventERN11UnityEngine9Analytics15UserCustomEventE
Ksb:__ZN14Texture2DArray23VirtualRedirectTransferER14SafeBinaryRead
oYa:__ZNK6Camera21CalculateCanDoShadowsEv
Qkh:_Dictionary_2_make_pair_m2631942124_gshared
X_d:_Graphic__cctor_m1643894470
vDj:__ZN6il2cpp2os6Thread12SetStackSizeEj
bEf:_X509ChainElementEnumerator_get_Current_m2232618221
ZAb:__ZNK20ArchiveStorageReader15HasStreamBlocksEv
r6b:__ZNK8Renderer16IsVisibleInSceneEv
L2h:__Z44RuntimeInvoker_AnimatorStateInfo_t2577870592PK10MethodInfoPvPS2_
Xuh:_ScrollRect_set_onValueChanged_m3957749575
YX:__Z13VFormatBufferPciPKcz
fPb:__Z18Transfer_BlittableI18StreamedBinaryReadILb0EELb1EhEvRK29SerializationCommandArgumentsR31RuntimeSerializationCommandInfo
kRi:_U3CCreateWhereIteratorU3Ec__Iterator1D_1_Dispose_m1879652802_gshared
rSf:__ZL90SafeHandle_t2733794115_CustomAttributesCacheGenerator_SafeHandle_get_IsInvalid_m3910183075P21CustomAttributesCache
P0d:_Image_GenerateSimpleSprite_m4275440988
Bni:_Display_get_systemHeight_m3377672024
uah:_UInt16_ToString_m3280699191
ZUi:_UnityEvent_1_GetDelegate_m2566156550_gshared
ula:__ZN6prcoreL27StretchGenericFloatBilinearI15TexFormatRFloatEEvPKNS_9InnerInfoE
mTf:__ZL62IDynamicMessageSink_t3056162262_CustomAttributesCacheGeneratorP21CustomAttributesCache
ERh:__Z33RuntimeInvoker_UInt32_t2149682021PK10MethodInfoPvPS2_
iQh:__Z130RuntimeInvoker_Int32_t2071877448_Il2CppObject_Int32_t2071877448_Int32_t2071877448_Il2CppObject_Int32_t2071877448_Int32_t2071877448PK10MethodInfoPvPS2_
z8d:_Array_InternalArray__IEnumerable_GetEnumerator_TisBoolean_t3825574718_m798244337_gshared
Qxe:_List_1_CopyTo_m158925060_gshared
jVh:__Z102RuntimeInvoker_Il2CppObject_Int32_t2071877448_Int32_t2071877448_Il2CppObject_Il2CppObject_Il2CppObjectPK10MethodInfoPvPS2_
yae:_Array_IndexOf_TisCustomAttributeNamedArgument_t94157543_m745056346_gshared
ZBa:__Z14PadImageBorderR14ImageReferenceii
lkj:__ZN15dense_hashtableINSt3__24pairIK10KeyWrapperINS1_IPK10MethodInfoP11Il2CppClassEEEjEES9_17ReflectionMapHashIS8_EN14dense_hash_mapIS9_jSD_NS9_14EqualsComparerINS0_8equal_toIS8_EEEENS0_9allocatorISB_EEE9SelectKeyESI_SK_E4findERSA_
Waj:__ZN6il2cpp2vm13MetadataCache28GetFieldDefaultValueForFieldEPK9FieldInfo
xAh:_ArrayReadOnlyList_1_ReadOnlyError_m2289309720_gshared
Jy:__ZN27AnimationLayerMixerPlayableD2Ev
mcj:__ZN6il2cpp2vm8basepathEPKc
Cmh:_DefaultComparer_GetHashCode_m320514092_gshared
vI:__ZN12AudioManager39HandlePendingAudioConfigurationCallbackEv
lk:_emscripten_glIsFramebuffer
NEa:__ZNK13TranslateGLES9GetFormatE13TextureFormat17TextureColorSpace
$2b:__ZN12_GLOBAL__N_16qAtan2Eff
fDd:_Convert_ToInt64_m954367741
U3i:__ZL25UnresolvedVirtualCall_153P12Il2CppObject40CustomAttributeTypedArgument_t1498197914S1_PK10MethodInfo
pk:_JS_Sound_SetLoopPoints
Lsd:_ArrayList__ctor_m1467563650
qN:__ZN12AudioManager17ShouldSourcePauseEb
GKj:__ZN6il2cpp2vm26MetadataAllocGenericMethodEv
pGa:__ZN19ConstantBuffersGLES12RecordRenderEv
tNi:_Transform_INTERNAL_set_rotation_m3703763817
gqa:__ZN18AsyncUploadManager22UploadStreamingTextureEP28FileTextureUploadInstruction
Lqc:__ZN9JSONWrite8TransferI10RectOffsetEEvRT_PKc17TransferMetaFlags
FBa:__ZN4crnd12symbol_codec11decode_bitsEj
tJi:_X509Crl_get_Extensions_m1795830276
Qwc:__ZN15b2CircleContact8EvaluateEP10b2ManifoldRK11b2TransformS4_
yhe:_Array_Sort_TisRaycastResult_t21186376_TisRaycastResult_t21186376_m38820193_gshared
$gi:_Animator_ResetTriggerString_m1445965342
k3b:__ZN21FixedBehaviourManagerD0Ev
j9f:__ZL55RaycastHit2D_t4063908774_CustomAttributesCacheGeneratorP21CustomAttributesCache
W0e:_StreamReader__ctor_m3454466728
AI:__ZN4FMOD6System12createReverbEPPNS_6ReverbE
Wbh:_UInt64_Equals_m1243465002
pOi:_Vector2_get_Item_m2792130561
Cma:__Z16MarkDependenciesR27GarbageCollectorThreadStatej
VFf:_X509ChainElementEnumerator_Reset_m3832280427
Sig:__ZL75EventSystem_t3466835263_CustomAttributesCacheGenerator_U3CU3Ef__mgU24cache0P21CustomAttributesCache
F8e:_MulticastDelegate_RemoveImpl_m2024746777
yVd:_CanvasUpdateRegistry_ParentCount_m2367607495
z8e:_MulticastDelegate_Equals_m3064081489
e7h:__Z54RuntimeInvoker_Void_t1841601450_ColorBlock_t2652774230PK10MethodInfoPvPS2_
Pjf:_Activator_CreateInstance_m1465989661
u0:__ZNK9Transform11GetPositionEv
bFi:_PositionAssertion_GetWidth_m2294218483
rig:__ZL111PlayerConnection_t3517219175_CustomAttributesCacheGenerator_PlayerConnection_MessageCallbackInternal_m267902474P21CustomAttributesCache
WSa:__ZN23SharedMeshRenderingData18UnloadVertexStreamEi
yPi:_Vector4_set_Item_m3077071044
J3b:__ZN31CanvasBatchIntermediateRenderer11AddSubBatchERK16DrawBuffersRangePK19ShaderPropertySheet
j2b:__ZN19RenderEventsContextC2Ei
$P:__Z6simd4fRKf
Mde:_Array_InternalArray__ICollection_CopyTo_TisColor32_t874517518_m379086718_gshared
vxh:_Slider_ClampValue_m2851810895
Sk:_emscripten_glEnable
iSg:_GUISkin_set_font_m4009958323
YUi:_UnityEvent_1_FindMethod_Impl_m3813546_gshared
vxj:__ZN6il2cpp2gc16GarbageCollector29RegisterFinalizerForNewObjectEP12Il2CppObject
zhb:__ZN10TagManager23VirtualRedirectTransferER14SafeBinaryRead
Sui:_MarshalAsAttribute__ctor_m1892084128
lOc:_UNITY_FT_Init_Class_ft_grays_raster
a1h:__Z53RuntimeInvoker_Void_t1841601450_Vector3U26_t425862308PK10MethodInfoPvPS2_
e$a:__Z15InitLightMeshesv
hYf:__ZL97WaitHandle_t677569169_CustomAttributesCacheGenerator_WaitHandle_t677569169____Handle_PropertyInfoP21CustomAttributesCache
Cle:_KeyValuePair_2_ToString_m1391611625_AdjustorThunk
Dn:FUNCTION_TABLE_iifiii
Dxi:__ZN23InterfaceActionInvoker1IP18Context_t502196753E6InvokeEjP11Il2CppClassP12Il2CppObjectS1_
V7e:_MonoType_HasElementTypeImpl_m1040892148
GRa:__ZN22RenderingCommandBuffer36AcquireAndRegisterSharedMaterialDataEP8Material
Jre:_List_1_System_Collections_Generic_IEnumerableU3CTU3E_GetEnumerator_m1503548298_gshared
sLb:__Z18Transfer_BlittableI19StreamedBinaryWriteILb0EELb1E8Vector2fEvRK29SerializationCommandArgumentsR31RuntimeSerializationCommandInfo
gTc:_cf2_arrstack_init
XRf:__ZL65ClassInterfaceAttribute_t910653559_CustomAttributesCacheGeneratorP21CustomAttributesCache
zij:__ZN15dense_hashtableINSt3__24pairIK10KeyWrapperINS1_IPK14Il2CppAssemblyP11Il2CppClassEEEjEES9_17ReflectionMapHashIS8_EN14dense_hash_mapIS9_jSD_NS9_14EqualsComparerINS0_8equal_toIS8_EEEENS0_9allocatorISB_EEE9SelectKeyESI_SK_E15insert_noresizeERKSB_
IV:__Z15CleanLogHandler7LogTypePKcz
QUb:__ZN9ShaderLab19SerializedSubShader8TransferI19StreamedBinaryWriteILb0EEEEvRT_
EN:__ZN14AudioBehaviour15ThreadedCleanupEv
j3g:_UTF32Encoding_GetBytes_m2290150495
fDb:__ZN6Camera17RemoveImageFilterERK11ImageFilter
oDa:__ZNSt3__218__insertion_sort_3IR25ValueParameterArraySorterPN20GpuProgramParameters14ValueParameterEEEvT0_S6_T_
aCc:__ZN10ClipperLib7Clipper27ProcessEdgesAtTopOfScanbeamEx
Pfg:__ZL102GUIUtility_t3275770671_CustomAttributesCacheGenerator_GUIUtility_EndContainerGUIFromException_m8097082P21CustomAttributesCache
O_c:__ZZN2UI11CanvasGroup15InitializeClassEvEN38FunctorImpl_117kTransformParentChanged4CallEPviR11MessageData
tqh:_LayoutUtility_GetLayoutProperty_m4052007472
vTi:_InvokableCall_1_Invoke_m3239892614_gshared
kRc:_Horizontal_Sweep_Init
DSa:__ZNSt3__214__split_bufferI20ComputeShaderVariantRNS_9allocatorIS1_EEED2Ev
kJc:__ZNSt3__26vectorIN4core12basic_stringIcNS1_20StringStorageDefaultIcEEEE13stl_allocatorIS5_L18MemLabelIdentifier34ELi16EEE7reserveEj
lmj:__ZNK10KeyWrapperINSt3__24pairIPK9EventInfoP11Il2CppClassEEE14EqualsComparerINS0_8equal_toIS7_EEEclERKS8_SE_
vsf:_Context_set_WriteSequenceNumber_m3356252710
eXe:_Guid_Equals_m2389236871
P0:__Z27LogRepeatingStringWithFlagsRKN4core12basic_stringIcNS_20StringStorageDefaultIcEEEE15LogMessageFlagsi
Vw:__ZNK8Playable11GetDurationEv
nx:__ZN17AnimationPlayable28ComputeNeedsBindingRebuildedEv
vLh:_DefaultComparer__ctor_m2859550749_gshared
Kgi:_AnimationEvent_get_functionName_m4178006856
xpe:_List_1_CheckIndex_m3609163576_gshared
v8i:__ZNK15dense_hashtableINSt3__24pairIK10KeyWrapperI13dynamic_arrayIPK10Il2CppTypeLj4EEEPFvvEEES8_N6il2cpp8metadata19Il2CppSignatureHashEN14dense_hash_mapIS8_SB_SF_NS8_14EqualsComparerINSE_22Il2CppSignatureCompareEEENS0_9allocatorISC_EEE9SelectKeyESJ_SL_E12test_deletedERK30dense_hashtable_const_iteratorISC_S8_SF_SN_SJ_SL_E
dzb:__ZN15ResourceManagerD0Ev
DDf:_X509ExtensionCollection__ctor_m1324282194
j5c:__ZN18UnityConnectClient33OnPlayerSessionStateChangedStaticEPS_jyy
aOf:__ZL74CaseInsensitiveHashCodeProvider_t2307530285_CustomAttributesCacheGeneratorP21CustomAttributesCache
och:_UIntPtr__ctor_m3900568171_AdjustorThunk
Qya:__ZN7ApiGLES4LoadE16GfxDeviceLevelGL
upb:__ZN18StreamedBinaryReadILb0EE21TransferSTLStyleArrayI13dynamic_arrayI31EnlightenSystemAtlasInformationLj8EEEEvRT_17TransferMetaFlags
yBa:__ZN4crnd12crn_unpacker22decode_color_endpointsEv
Cwj:__ZN15dense_hashtableI10KeyWrapperIP18Il2CppGenericClassES3_N6il2cpp8metadata22Il2CppGenericClassHashEN14dense_hash_setIS3_S6_NS3_14EqualsComparerINS5_25Il2CppGenericClassCompareEEENSt3__29allocatorIS3_EEE8IdentityESA_SD_E15insert_noresizeERKS3_
IMe:_ReadOnlyCollection_1_System_Collections_IList_Clear_m3006875897_gshared
q1b:__ZZL31RegisterOtherRendererPropertiesR22GenericPropertyBindingEN30Wrapper_RendererReceiveShadows13GetFloatValueEPv
Koe:_Enumerator_System_Collections_IEnumerator_get_Current_m3866069145_gshared
Rbf:_PreviousInfo_t581002487_marshal_pinvoke_cleanup
Fba:__ZN8Material11SetPassFastEPN9ShaderLab4PassER17ShaderPassContextP6Shaderib
S6a:__ZNK13ScreenManager13GetLockCursorEv
h5c:__ZN11UnityEngine7Connect20BasePersistentValues10SaveValuesER9JSONWrite
U$g:_Rect_get_max_m96665935_AdjustorThunk
afg:__ZL87GUIStyle_t1799908754_CustomAttributesCacheGenerator_GUIStyle_set_fixedWidth_m2562018757P21CustomAttributesCache
cui:_RuntimeHelpers_InitializeArray_m3920580167
AQd:_ExecuteEvents_get_pointerDownHandler_m1172742772
REe:_Collection_1_RemoveAt_m560005219_gshared
DEc:__ZNSt3__27__sort4IR24RayHitsByDepthComparitorP12RaycastHit2DEEjT0_S5_S5_S5_T_
d7b:__Z14ScaleCurveTimeR17AnimationCurveTplIfEf
qFf:_X509CertificateEnumerator_System_Collections_IEnumerator_MoveNext_m3708362145
$Ua:__Z12SetupLODFadeR9GfxDeviceR17ShaderPassContextf
Nzc:__ZN26b2PolygonAndCapsuleContact6CreateEP9b2FixtureiS1_iP16b2BlockAllocator
hIi:_X501_ToString_m3328169518
T_a:__ZL24CollectForwardObjectsJobP27CollectForwardObjectsHeader
UZ:__ZN8Playable13SetGameObjectEP10GameObject
oaj:__ZNK15dense_hashtableINSt3__24pairIK10KeyWrapperIPK11Il2CppClassEPKcEES6_N6il2cpp5utils11PointerHashIS3_EEN14dense_hash_mapIS6_S9_SE_NS6_14EqualsComparerINS0_8equal_toIS5_EEEENS0_9allocatorISA_EEE9SelectKeyESJ_SL_E12test_deletedERK24dense_hashtable_iteratorISA_S6_SE_SN_SJ_SL_E
wVf:__ZL53HMACSHA256_t2622794722_CustomAttributesCacheGeneratorP21CustomAttributesCache
k2a:__ZNK25CameraStackRenderingState24ResolveTempToEyeTexturesEv
L0a:__Z13IsNodeVisibleRK9SceneNodeRK4AABBRK22SceneCullingParameters
QJg:_EventInfo__ctor_m1190141300
pCh:_InternalEnumerator_1_MoveNext_m3585886944_gshared
x0c:__Z57RectTransformUtility_CUSTOM_INTERNAL_CALL_PixelAdjustRectP12Il2CppObjectS0_R5RectTIfE
Cvg:_DelayedFixupRecord_FixupImpl_m4249966635
$0j:_emscripten_glStencilMask__wrapper
qMc:__ZZ29InitializeTextRenderingModulevEN40CleanUpTextRenderingGarbageCollectstruct7ForwardEv
H3:__ZN11TypeManager19ClassNameToTypeInfoEPKcb
ocf:_BigInteger_ToString_m3837784224
BRa:__ZN15RenderNodeQueue7CleanupEv
aMa:__ZNK17ArchiveFileSystem8PositionERK13FileEntryData
gIc:__ZN16NovodexAllocator8allocateEjPKcS1_i
OJd:_DllNotFoundException__ctor_m267198482
s_a:__Z17PrepareShadowMapsRK11CullResultsRK11ActiveLightRK10MinMaxAABB
kng:__ZL81U3CMouseDragOutsideRectU3Ec__Iterator1_t2599668326_CustomAttributesCacheGeneratorP21CustomAttributesCache
L4g:_NativeEventCalls_CreateEvent_internal_m1605829321
pqe:_List_1_GetIndex_m3409004147_gshared
Pgg:__ZL73RuntimePlatform_t1869584967_CustomAttributesCacheGenerator_MetroPlayerX64P21CustomAttributesCache
o1i:__ZL24UnresolvedVirtualCall_13P12Il2CppObjectaPK10MethodInfo
ZFh:_InternalEnumerator_1_System_Collections_IEnumerator_get_Current_m3239681450_AdjustorThunk
KSb:__ZNSt3__26vectorIN9ShaderLab20SerializedSubProgram15VectorParameterENS_9allocatorIS3_EEEC2ERKS6_
Q_a:__ZN9ShaderLab10GrabPassesD2Ev
YYg:_MonoBehaviour_set_useGUILayout_m2666356651
Vsb:__ZN14Texture2DArray13UploadTextureEv
q7h:__Z69RuntimeInvoker_TextGenerationSettings_t2543476768_Vector2_t2243707579PK10MethodInfoPvPS2_
Hfd:_SecurityFrame_t1002202659_marshal_pinvoke
zQc:_tt_cmap14_done
rna:__ZN18AwakeFromLoadQueue25RegisterObjectInstanceIDsEv
bqd:_Buffer_BlockCopy_m1586717258
WUf:__ZL93X509Certificate_t283079845_CustomAttributesCacheGenerator_X509Certificate_GetName_m2354987368P21CustomAttributesCache
gKc:__ZN20TextRenderingPrivate19NativeTextGenerator15InsertCharacterEiPj
bEh:_InternalEnumerator_1__ctor_m3589241961_AdjustorThunk
WBc:__ZTv0_n12_N10ClipperLib7ClipperD0Ev
gNd:_CompareInfo_GetSortKey_m3691382873
Kyc:__ZN11b2RopeJoint24SolveVelocityConstraintsERK12b2SolverData
gHd:_DBNull_ToString_m3228904745
IBf:_WebHeaderCollection_AddWithoutValidate_m1479880592
sbd:_SHA1Managed_HashCore_m2658295635
b_h:__Z80RuntimeInvoker_Void_t1841601450_Int32_t2071877448_Int32_t2071877448_Il2CppObjectPK10MethodInfoPvPS2_
Zy:__ZN17AnimationPlayableD0Ev
kof:_RC4_get_IV_m506011366
qJi:_X509Crl__ctor_m2469408229
$Lb:__Z18Transfer_BlittableI19StreamedBinaryWriteILb0EELb0EyEvRK29SerializationCommandArgumentsR31RuntimeSerializationCommandInfo
jSf:__ZL82SafeHandle_t2733794115_CustomAttributesCacheGenerator_SafeHandle_Close_m1146946803P21CustomAttributesCache
GNh:_Enumerator_get_CurrentValue_m3562053380_AdjustorThunk
yGf:_X509SubjectKeyIdentifierExtension_CopyFrom_m136762226
Hme:_Enumerator_System_Collections_IEnumerator_Reset_m610822832_AdjustorThunk
Bfc:__Z41MonoBehaviour_Set_Custom_PropUseGUILayoutP12Il2CppObjecth
bLc:_UNITY_FT_Open_Face
SYj:_glGenRenderbuffers__wrapper
qji:_Bounds_ToString_m1966597703
jdf:_BigInteger_op_Division_m1581119694
aRb:__ZN16ScriptingManagerD0Ev
Rfi:_UnityAnalyticsHandler_CustomEvent_m2884790978
Pwg:_CallbackHandler_Invoke_m1498072969
KAg:_DSACryptoServiceProvider__ctor_m701823690
ARg:_Mathf_Clamp_m2354025655
CDg:_CustomAttributeData_GetCustomAttributes_m2421330738
Hvf:_SecurityParameters_set_ClientWriteMAC_m1970377285
Uyj:__ZN30dense_hashtable_const_iteratorINSt3__24pairIK10KeyWrapperINS1_IPKcS4_EEEiEES6_24NamespaceAndNamePairHashN14dense_hash_mapIS6_iS9_NS6_14EqualsComparerI26NamespaceAndNamePairEqualsEENS0_9allocatorIS8_EEE9SelectKeyESD_SF_EppEv
k8g:_Type_get_IsEnum_m313908919
Tbc:__Z44Register_UnityEngine_Component_get_transformv
bye:_List_1_Reverse_m3395936565_gshared
adc:__Z39GameObject_CUSTOM_FindGameObjectWithTagP12Il2CppString
cFe:_Collection_1_System_Collections_ICollection_CopyTo_m1335644572_gshared
Yve:_List_1_CheckMatch_m2830747427_gshared
oJa:__ZN17ArchiveFileSystem12MountArchiveEPKcS1_
xJd:_StackFrame_GetMethod_m72881026
Vpc:__Z18Transfer_BlittableI9JSONWriteLb1E8Vector4fEvRK29SerializationCommandArgumentsR31RuntimeSerializationCommandInfo
A_:__Z11RequireTypePKcS0_S0_
SNh:_Enumerator_System_Collections_IEnumerator_Reset_m70453843_gshared
_pb:__ZThn32_NK8Renderer14GetSubsetIndexEi
SOi:_Vector3_get_Item_m3616014016
Gog:__ZL59Slider_t297367283_CustomAttributesCacheGenerator_m_MinValueP21CustomAttributesCache
e0b:__ZN13ProduceHelperI15ResourceManagerLb0EE7ProduceE18MemLabelIdentifier18ObjectCreationMode
mwa:__ZN9GfxDevice15ImmediateVertexEfff
lZb:__Z13RegisterClassI8MaterialEvv
mWf:__ZL51Evidence_t1407710183_CustomAttributesCacheGeneratorP21CustomAttributesCache
qjb:__ZN16GraphicsSettings13AwakeFromLoadE17AwakeFromLoadMode
mMd:_FieldAccessException__ctor_m3893881490
x4h:__Z82RuntimeInvoker_Int32_t2071877448_Rect_t3681755626_Il2CppObject_Vector2_t2243707579PK10MethodInfoPvPS2_
Jp:__ZN6Object13AwakeFromLoadE17AwakeFromLoadMode
_ta:__ZN13GfxDeviceGLES15SetStencilStateEPK18DeviceStencilStatei
okj:__ZN15dense_hashtableINSt3__24pairIK10KeyWrapperINS1_IPK10MethodInfoP11Il2CppClassEEEjEES9_17ReflectionMapHashIS8_EN14dense_hash_mapIS9_jSD_NS9_14EqualsComparerINS0_8equal_toIS8_EEEENS0_9allocatorISB_EEE9SelectKeyESI_SK_E6insertERKSB_
YOj:_cycle
hMi:_TextGenerator_Populate_m4139823822
j0f:__ZL72PKCS12_t1362584795_CustomAttributesCacheGenerator_U3CU3Ef__switchU24map5P21CustomAttributesCache
Md:_emscripten_glUniform1iv
Syh:_Text_get_preferredHeight_m452532789
aEc:__ZN15b2DistanceProxy3SetEPK7b2Shapei
khd:_String_System_IConvertible_ToDouble_m3860911722
z9a:__ZN16MemoryFileSystemD2Ev
Yih:_Dictionary_2_System_Collections_Generic_ICollectionU3CSystem_Collections_Generic_KeyValuePairU3CTKeyU2CTValueU3EU3E_Contains_m842343255_gshared
UTb:__ZN9ShaderLab18SerializedPropertyD2Ev
sKc:__Z17dynamic_pptr_castIP9Texture2D7TextureET_RK4PPtrIT0_E
Lx:__ZN7mecanim14ValueArrayLoopERKNS_10ValueArrayES2_RS0_fRKNS_14ValueArrayMaskE
ZNe:_ReadOnlyCollection_1_System_Collections_IList_set_Item_m1272038804_gshared
BBh:_InternalEnumerator_1_System_Collections_IEnumerator_get_Current_m1931522460_AdjustorThunk
Sdd:_SecurityPermission_IsEmpty_m1869313067
jFf:_X509CertificateCollection__ctor_m3709509050
vbc:__Z37Register_UnityEngine_Camera_get_depthv
wgf:_EncryptedPrivateKeyInfo_get_Salt_m2734354394
VPe:_ReadOnlyCollection_1_System_Collections_Generic_IListU3CTU3E_set_Item_m1918537449_gshared
GDe:_Collection_1_System_Collections_ICollection_CopyTo_m3896480607_gshared
eRd:_PointerEventData_set_position_m794507622
v4h:__Z115RuntimeInvoker_Void_t1841601450_Rect_t3681755626_Il2CppObject_Int32_t2071877448_Int32_t2071877448_Int32_t2071877448PK10MethodInfoPvPS2_
v9:__ZN15dense_hashtableINSt3__24pairIKPKcPK4RTTIEES3_N11TypeManager23ConstCharPtrHashFunctorEN14dense_hash_mapIS3_S7_SA_NS9_19ConstCharPtrEqualToE13stl_allocatorIS8_L18MemLabelIdentifier6ELi16EEE9SelectKeyESC_SF_E12resize_deltaEjj
LYb:__ZN15ApplicationInfo16GetInstallerNameEv
k9a:__Z23ConvertIntegerToTypePtrItEbPvR14SafeBinaryRead
hri:_AnimatorControllerPlayable_IsParameterControlledByCurveID_m4183631446
Iu:__ZN7mecanim5human29HumanGetGoalOrientationOffsetENS0_4GoalE
be:_emscripten_glStencilFunc
wVh:__Z101RuntimeInvoker_Void_t1841601450_Il2CppObject_Il2CppObject_Il2CppObject_Il2CppObject_Int32_t2071877448PK10MethodInfoPvPS2_
Bud:_SynchronizedArrayListWrapper_get_Capacity_m2541698837
h1i:__ZL23UnresolvedVirtualCall_6P12Il2CppObjectiPK10MethodInfo
zlh:_DefaultComparer_GetHashCode_m3315096533_gshared
EMg:_MonoMethod_MakeGenericMethod_impl_m2063853616
Ifd:__Z46il2cpp_codegen_get_marshal_directive_exceptionPKc
SVb:__ZN9ShaderLab20SerializedSubProgram14AddMatrixParamEPKcii15ShaderParamTypei
he:_glGetActiveUniformBlockName
GZd:_FontData_set_verticalOverflow_m4211463083
ED:__ZN26AnimatorControllerPlayable23ValidateParameterStringE17GetSetValueResultRKN4core12basic_stringIcNS1_20StringStorageDefaultIcEEEE
hMf:__ZL65Il2CppArray_CustomAttributesCacheGenerator_Array_Sort_m2090966156P21CustomAttributesCache
mXe:_Guid_AppendByte_m2890893073
mIg:_MethodBuilder_Invoke_m1874904900
uAf:__ZN21InterfaceFuncInvoker1IbP13Uri_t19570940E6InvokeEjP11Il2CppClassP12Il2CppObjectS1_
nrd:_Char_System_IConvertible_ToType_m3106771703_AdjustorThunk
d4i:__ZL25UnresolvedVirtualCall_164P12Il2CppObject22UILineInfo_t3621277874PK10MethodInfo
BIf:_Interval_Intersects_m3480157390_AdjustorThunk
uec:__Z39Quaternion_CUSTOM_INTERNAL_CALL_InverseRK11QuaternionfRS_
Cui:_GCHandle_Alloc_m1063472408
sJ:__ZN4FMOD7Channel20set3DConeOrientationEP11FMOD_VECTOR
Gkg:__ZL86StandaloneInputModule_t70867863_CustomAttributesCacheGenerator_m_InputActionsPerSecondP21CustomAttributesCache
sn:FUNCTION_TABLE_iiifii
gNh:_Comparer_1__ctor_m4052560291_gshared
eag:__ZL54SkeletonBone_t345082847_CustomAttributesCacheGeneratorP21CustomAttributesCache
Szg:_CryptoConfig_CreateFromName_m391442950
Tzj:__ZN6il2cpp2vm12GenericClass11SetupEventsEP11Il2CppClass
HWc:_tt_delta_interpolate
sQc:_tt_cmap12_get_info
nyd:_SortedList__ctor_m3698381356
hdi:__Z31RuntimeInvoker_Slot_t2022531261PK10MethodInfoPvPS2_
vvj:__ZN6il2cpp2vm15ReboxIReferenceEP14Il2CppIUnknownP11Il2CppClass
w4e:_StreamWriter_LowLevelWrite_m4205372900
nXi:__ZN6il2cpp6icalls8mscorlib6System7Decimal14decimalCompareEP19il2cpp_decimal_reprS5_
xJj:__ZThn4_N6il2cpp2vm13CachedCCWBaseINS0_13ManagedObjectEE7ReleaseEv
OKg:_Module__ctor_m3853650010
Tvd:_CollectionBase_System_Collections_IList_get_Item_m2370387510
jUf:__ZL59RemotingException_t109604560_CustomAttributesCacheGeneratorP21CustomAttributesCache
nhe:_Array_Sort_TisCustomAttributeNamedArgument_t94157543_m3436077809_gshared
d_j:_glCopyTexImage2D__wrapper
O1g:_ResourceRequest__ctor_m3340010930
tXf:__ZL88UTF7Encoding_t741406939_CustomAttributesCacheGenerator_UTF7Encoding_GetBytes_m3015176946P21CustomAttributesCache
s4d:_LayoutElement__ctor_m789941073
gjg:__ZL77ExecuteEvents_t1693084770_CustomAttributesCacheGenerator_U3CU3Ef__mgU24cache9P21CustomAttributesCache
Lji:_Camera_FireOnPreCull_m1679634170
ARf:__ZL68TargetInvocationException_t4098620458_CustomAttributesCacheGeneratorP21CustomAttributesCache
q$f:__ZL56RankException_t1539875949_CustomAttributesCacheGeneratorP21CustomAttributesCache
Xia:__Z18ClearByDrawingQuad13GfxClearFlagsRK10ColorRGBAffjR17ShaderPassContext
mxi:_DynamicPropertyCollection_FindProperty_m1233265924
Ska:__ZN6prcoreL17RemapGenericFloatI14TexFormatRHalf15TexFormatRFloatEEvPKNS_9InnerInfoE
OUa:__Z16ShouldUseShadowsb
JZ:__ZN15DirectorManager21RebuildStageCallbacksEv
Tla:__ZN19RuntimeSceneManager9LoadSceneERKN4core12basic_stringIcNS0_20StringStorageDefaultIcEEEES6_S6_RK9UnityGUIDiNS_11LoadingModeE
G1i:__ZL24UnresolvedVirtualCall_31P12Il2CppObjectiS0_S0_PK10MethodInfo
Kai:__Z55RuntimeInvoker_Int32_t2071877448_UICharInfo_t3056636800PK10MethodInfoPvPS2_
rCa:__ZN7ApiGLES10DrawArraysE16GfxPrimitiveTypejjj
noi:_Event_PopEvent_m1952528237
$G:__ZN10SampleClip13LoadBaseSoundEv
WTh:__Z62RuntimeInvoker_Il2CppObject_Int32_t2071877448_SByte_t454417549PK10MethodInfoPvPS2_
Jxj:__ZN15dense_hashtableINSt3__24pairIK10KeyWrapperIP12Il2CppObjectEN6il2cpp2gc9CachedCCWEEES5_NS7_5utils11PointerHashIS3_EEN14dense_hash_mapIS5_S9_SD_NS5_14EqualsComparerINS0_8equal_toIS4_EEEENS0_9allocatorISA_EEE9SelectKeyESI_SK_E15insert_noresizeERKSA_
mIe:_Collection_1_Contains_m643401393_gshared
Wia:__ZN22DeviceMVPMatricesStateC2ER9GfxDevice
rYh:__Z48RuntimeInvoker_Int64_t909078037_Int64_t909078037PK10MethodInfoPvPS2_
chd:_String__ctor_m372528291
cn:FUNCTION_TABLE_iifii
gpj:__ZN6il2cpp2vm10Reflection12HasAttributeEP9FieldInfoP11Il2CppClass
ana:__ZNSt3__26__treeIiNS_4lessIiEE13stl_allocatorIiL18MemLabelIdentifier1ELi16EEE7destroyEPNS_11__tree_nodeIiPvEE
oc:invoke_viiifi
Api:_AnimationClipPlayable_GetSpeed_m668389965
u7e:_LongComparer_Compare_m3981323622
QRh:__Z64RuntimeInvoker_UInt64_t2909196914_Il2CppObject_Int32_t2071877448PK10MethodInfoPvPS2_
nWd:_ContentSizeFitter_get_horizontalFit_m892469688
uqg:__ZL109LayoutUtility_t4076838048_CustomAttributesCacheGenerator_LayoutUtility_U3CGetFlexibleHeightU3Em__7_m947156537P21CustomAttributesCache
Mff:__ZN23InterfaceActionInvoker2IP8String_tP12Il2CppObjectE6InvokeEjP11Il2CppClassS3_S1_S3_
Hxh:_Slider_FindSelectableOnUp_m15474611
Mra:__ZNK11AssetBundle14GetPreloadDataEiR13dynamic_arrayIiLj4EE
Ehf:_EncryptedData_get_EncryptedContent_m2732115576
GWh:__Z81RuntimeInvoker_Boolean_t3825574718_SByte_t454417549_Il2CppObject_SByte_t454417549PK10MethodInfoPvPS2_
rf:_JS_Sound_SetPosition
ECi:_Assertion_set_FalseExpression_m1781616372
uGf:_X509SubjectKeyIdentifierExtension_FromHexChars_m2515150420
_oa:__ZNK9Texture3D26CanReuploadDataToGfxDeviceEv
xaj:__ZL13GetSharedInstPK17Il2CppGenericInst
QMf:__ZL51IReflect_t3412036974_CustomAttributesCacheGeneratorP21CustomAttributesCache
dTd:_StandaloneInputModule_SendSubmitEventToSelectedObject_m3421155293
JGc:__ZN13ProduceHelperI10Collider2DLb1EE7ProduceE18MemLabelIdentifier18ObjectCreationMode
cmi:_Component_GetComponentsInChildren_m908027537
o3c:__ZN22BaseUnityConnectClient17SaveSessionValuesEv
$yi:_CallContextRemotingData_Clone_m2226242476
$1:__Z63ThreadAndSerializationSafeCheckSetMonoBehaviourBeingTransferredP13MonoBehaviour
W_a:__Z24SetupActiveLightsContextR21ActiveLightingContextRK12ActiveLightsRK11CullResultsP14ShadowMapCacheRK10MinMaxAABB
Ojh:_Dictionary_2_System_Collections_Generic_ICollectionU3CSystem_Collections_Generic_KeyValuePairU3CTKeyU2CTValueU3EU3E_Contains_m3400497673_gshared
Sgc:__Z38Sprite_CUSTOM_INTERNAL_get_textureRectP12Il2CppObjectP5RectTIfE
cHd:_DBNull_System_IConvertible_ToUInt32_m2681284284
Unj:__ZNK15dense_hashtableINSt3__24pairIK10KeyWrapperIPK22Il2CppGenericParameterEPK24MonoGenericParameterInfoEES6_N6il2cpp5utils11PointerHashIS4_EEN14dense_hash_mapIS6_SA_SF_NS6_14EqualsComparerINS0_8equal_toIS5_EEEENS0_9allocatorISB_EEE9SelectKeyESK_SM_E3endEv
OVg:_HumanBone_set_boneName_m2410239828_AdjustorThunk
Iib:__ZN6Camera8TransferI24GenerateTypeTreeTransferEEvRT_
uoh:_EqualityComparer_1__cctor_m416314417_gshared
Ka:invoke_iiiiiiif
Ga:invoke_iiiiiiii
IBb:__ZN24RingBufferMemoryFileData16ConsumeReadBytesEy
kYg:_Mesh_GetUVChannel_m364477864
NEf:_X509ChainElementCollection_Contains_m3599995067
S1j:b120
V1j:b123
U1j:b122
X1j:b125
W1j:b124
Z1j:b127
Y1j:b126
$1j:b129
igc:__Z52Register_UnityEngine_RectTransform_INTERNAL_get_rectv
vOh:__Z53RuntimeInvoker_Il2CppObject_Il2CppObject_Il2CppObjectPK10MethodInfoPvPS2_
m_:__Z21PostprocessStacktracePKcRN4core12basic_stringIcNS1_20StringStorageDefaultIcEEEE
hxe:_List_1_ToArray_m2390522926_gshared
sSf:__ZL70TypeLibImportClassAttribute_t2390314680_CustomAttributesCacheGeneratorP21CustomAttributesCache
hca:__ZN19RenderBufferManager13GetTempBufferEii17DepthBufferFormat19RenderTextureFormatj22RenderTextureReadWrite14VRTextureUsagei
Xyb:__ZN18StreamedBinaryReadILb0EE21TransferSTLStyleArrayI13dynamic_arrayI16SplashScreenLogoLj4EEEEvRT_17TransferMetaFlags
xOa:__ZNSt3__26vectorIPN9ShaderLab9SubShaderENS_9allocatorIS3_EEE21__push_back_slow_pathIKS3_EEvRT_
B7d:_Array_InternalArray__ICollection_Remove_TisX509ChainStatus_t4278378721_m4127982424_gshared
Gbc:__Z47Register_UnityEngine_Camera_get_allCamerasCountv
yei:__Z37RuntimeInvoker_Enumerator_t2809602155PK10MethodInfoPvPS2_
qad:___clang_call_terminate
r3c:__ZN22BaseUnityConnectClient20StartEventDispatcherEv
f6b:__ZNSt3__26vectorIj13stl_allocatorIjL18MemLabelIdentifier1ELi16EEE6assignIPKtEENS_9enable_ifIXaasr21__is_forward_iteratorIT_EE5valuesr16is_constructibleIjNS_15iterator_traitsIS9_E9referenceEEE5valueEvE4typeES9_S9_
Bs:__ZN7mecanim9animation16EvaluateAvatarIKEPKNS0_14AvatarConstantEPKNS0_11AvatarInputEPNS0_12AvatarOutputEPNS0_12AvatarMemoryEPNS0_15AvatarWorkspaceEb
UCa:__ZL25ProgramUniformMatrix4x3fvPK7ApiGLESjiihPKv
D8a:__Z29StdTemplateConversionFunctionIsiEbPvR14SafeBinaryRead
D2h:__Z83RuntimeInvoker_Il2CppObject_RayU26_t3651946800_Single_t2076509932_Int32_t2071877448PK10MethodInfoPvPS2_
DOa:__ZN12InputManager13InputEndFrameEv
Uxd:_SyncHashtable__ctor_m2029869827
xdj:__ZNSt3__26__treeIP11Il2CppClassNS_4lessIS2_EENS_9allocatorIS2_EEE25__emplace_unique_key_argsIS2_JRKS2_EEENS_4pairINS_15__tree_iteratorIS2_PNS_11__tree_nodeIS2_PvEEiEEbEERKT_DpOT0_
erj:__ZN6il2cpp2vm6Thread5SetupEP12Il2CppThread
iRe:_ReadOnlyCollection_1_System_Collections_IList_Remove_m2200089035_gshared
yWi:_ObjStatsCorrect_SetNameCat_m1244961542
BDe:_Collection_1_CheckWritable_m2756357359_gshared
bQj:___munmap
N1d:_InputField_get_characterLimit_m2386380888
rlg:__ZL68ColorBlock_t2652774230_CustomAttributesCacheGenerator_m_PressedColorP21CustomAttributesCache
TCd:_Convert_ToInt64_m1722087499
ig:_localtime_r
n1h:__Z74RuntimeInvoker_Vector3_t2243707580_Vector3_t2243707580_Vector3_t2243707580PK10MethodInfoPvPS2_
I0h:__Z80RuntimeInvoker_Il2CppObject_Ray_t2469606224_Single_t2076509932_Int32_t2071877448PK10MethodInfoPvPS2_
pYf:__ZL81AppDomain_t2719102437_CustomAttributesCacheGenerator_assembly_resolve_in_progressP21CustomAttributesCache
eSf:__ZL65InterfaceTypeAttribute_t4113096249_CustomAttributesCacheGeneratorP21CustomAttributesCache
kg:_strftime
rca:__ZN7Texture33SetStoredColorSpaceNoDirtyNoApplyE17TextureColorSpace
eY:__ZN12FileAccessorD2Ev
Sha:__ZN10ColorRGBAf8TransferI18StreamedBinaryReadILb0EEEEvRT_
Etb:__ZN14VertexDataInfoC2Ev
hMd:_Exception_GetObjectData_m2653827630
m6f:__ZL75Mesh_t1356156583_CustomAttributesCacheGenerator_Mesh_HasChannel_m3616583481P21CustomAttributesCache
ZOi:_Vector3_Equals_m2692262876_AdjustorThunk
IEh:_InternalEnumerator_1_get_Current_m2415979394_gshared
MNb:__ZL17Transfer_GUIStyleI18StreamedBinaryReadILb1EELb1EEvRK29SerializationCommandArgumentsR31RuntimeSerializationCommandInfo
Huh:_ScrollRect_SetDirtyCaching_m1491302821
Sdj:__ZN6il2cpp6icalls8mscorlib6SystemL9IsPrivateEPK12PropertyInfo
EDg:_CustomAttributeData_GetCustomAttributes_m3258419955
L0:__ZN9shadertag10InitializeEv
bVa:__ZN13BatchRenderer20RenderSingleWithPassER17ShaderPassContextPK18SharedMaterialDataP6ShaderPN9ShaderLab4PassEiPKNS7_10GrabPassesEjib15BatchBreakCause
f8f:__ZL80Object_t1021602117_CustomAttributesCacheGenerator_Object_Instantiate_m2489341053P21CustomAttributesCache
Kkd:_EncoderFallback__ctor_m1639180960
_D:__Z92Register_UnityEngine_Experimental_Director_AnimationOffsetPlayable_INTERNAL_CALL_SetRotationv
jLh:_InternalEnumerator_1_MoveNext_m1441038493_gshared
qrb:__ZN15QualitySettings14QualitySetting8TransferI24GenerateTypeTreeTransferEEvRT_
yde:_Array_InternalArray__ICollection_CopyTo_TisParameterModifier_t1820634920_m4127516211_gshared
ikd:_DecoderReplacementFallback__ctor_m2344783488
teh:_Enumerator_System_Collections_IDictionaryEnumerator_get_Key_m467957770_AdjustorThunk
xdf:_SequentialSearchPrimeGeneratorBase_GenerateNewPrime_m545729286
sXc:__Z28Font_Get_Custom_PropMaterialP12Il2CppObject
FJj:__ZN6il2cpp6icalls8mscorlib6System9Threading16NativeEventCalls19ResetEvent_internalE12Il2CppIntPtr
Yig:__ZL65EventTrigger_t1967201810_CustomAttributesCacheGenerator_delegatesP21CustomAttributesCache
Ivc:__ZL34CleanupModule_PerformanceReportingv
BFe:_Collection_1_Remove_m4136193368_gshared
UPd:_EventTrigger_OnPointerUp_m2791622548
Qwh:_Shadow_set_useGraphicAlpha_m141905402
r5b:__ZN22BlockMemoryCacheWriter14LockCacheBlockEjPPhS1_
wDj:__ZN6il2cpp2os6Thread10RunWrapperEPv
pkc:__ZNSt3__218__insertion_sort_3IRPFbPKN5IMGUI9GUIWindowES4_EPPS2_EEvT0_SA_T_
UZi:_GenericEqualityComparer_1_Equals_m1109000020_gshared
fug:_RealProxy_InternalGetTransparentProxy_m3415358600
ctc:__Z22TransferField_NonArrayI8JSONRead27Converter_SimpleNativeClassI8GUIStyleEEvRK23StaticTransferFieldInfoR31RuntimeSerializationCommandInfoRT0_
E7i:__ZN15dense_hashtableI10KeyWrapperIPK19Il2CppGenericMethodES4_N6il2cpp8metadata23Il2CppGenericMethodHashEN14dense_hash_setIS4_S7_NS4_14EqualsComparerINS6_26Il2CppGenericMethodCompareEEENSt3__29allocatorIS4_EEE8IdentityESB_SE_E16reset_thresholdsEv
gqe:__ZN23InterfaceActionInvoker2IP24ObjectU5BU5D_t3614634134iE6InvokeEjP11Il2CppClassP12Il2CppObjectS1_i
tbg:__ZL131AnimatorControllerPlayable_t4078305555_CustomAttributesCacheGenerator_AnimatorControllerPlayable_PlayInternal_m3385259863____layer2P21CustomAttributesCache
Qg:_llvm_eh_typeid_for
q3b:__Z13RegisterClassI10GameObjectEvv
qOf:__ZL53HashValues_t2390200547_CustomAttributesCacheGeneratorP21CustomAttributesCache
xDf:_X509BasicConstraintsExtension_get_PathLengthConstraint_m3004531343
TPf:__ZL125GenericTypeParameterBuilder_t1370236603_CustomAttributesCacheGenerator_GenericTypeParameterBuilder_GetConstructors_m103067670P21CustomAttributesCache
D6e:_MissingMemberException__ctor_m4277447068
nqe:_List_1_Find_m1881447651_gshared
UNg:_StrongNameKeyPair_System_Runtime_Serialization_ISerializable_GetObjectData_m1693082120
uzf:_NameValueCollection__ctor_m1767369537
BPb:__Z18Transfer_BlittableI18StreamedBinaryReadILb0EELb1E8Vector4fEvRK29SerializationCommandArgumentsR31RuntimeSerializationCommandInfo
lqh:_EqualityComparer_1__ctor_m3155445483_gshared
VBj:__ZN6il2cpp2vm6Method8GetParamEPK10MethodInfoj
h_e:_Int64_CompareTo_m1953686218
pZi:_GenericComparer_1__ctor_m221205314_gshared
zuj:__ZN6il2cpp6icalls8mscorlib6System2IO6MonoIO4ReadE12Il2CppIntPtrP11Il2CppArrayiiPi
B0j:_glBindVertexArray__wrapper
GAg:_DSA_Create_m3450041777
Mga:__ZN8Material8TransferI14SafeBinaryReadEEvRT_
mni:_Debug_LogWarningFormat_m79553173
Wmb:__ZN12CubemapArray17UploadToGfxDeviceEv
hvh:_ScrollRect_AdjustBounds_m1033723448
dla:__ZN6prcoreL17RemapGenericFloatI15TexFormatRGHalf17TexFormatRGBAHalfEEvPKNS_9InnerInfoE
Gne:_Enumerator_System_Collections_IEnumerator_Reset_m2200349770_gshared
iJe:_Collection_1_get_Item_m3791221403_gshared
GVf:__ZL54PaddingMode_t3032142640_CustomAttributesCacheGeneratorP21CustomAttributesCache
Qqj:__ZN24dense_hashtable_iteratorINSt3__24pairIK10KeyWrapperIP11Il2CppClassES4_EES5_N6il2cpp8metadata16SZArrayClassHashEN14dense_hash_mapIS5_S4_SA_NS5_14EqualsComparerINS9_19SZArrayClassCompareEEENS0_9allocatorIS7_EEE9SelectKeyESE_SG_E30advance_past_empty_and_deletedEv
B8h:__Z75RuntimeInvoker_Void_t1841601450_ConstraintU26_t2775779428_Int32_t2071877448PK10MethodInfoPvPS2_
J6:__ZN13RuntimeStaticI21AssetReferenceStorageLb0EE16StaticInitializeEPv
r_h:__Z107RuntimeInvoker_Boolean_t3825574718_Int32_t2071877448_Int64U5BU5DU26_t2476256456_StringU5BU5DU26_t3730240492PK10MethodInfoPvPS2_
jEf:_X509Chain_CheckRevocationOnChain_m2441901351
qJj:__ZN6il2cpp2vm13ManagedObject14QueryInterfaceERK10Il2CppGuidPPv
Ccd:_SymmetricAlgorithm_CreateDecryptor_m4240570785
R8g:_Type_GetMethod_m3650909507
vH:__ZN11AudioSource4StopEb
EOj:_frexp
uHb:__ZN14SafeBinaryRead21TransferSTLStyleArrayI13dynamic_arrayI10Matrix4x4fLj4EEEEvRT_17TransferMetaFlags
nJe:_Collection_1_CheckWritable_m732350052_gshared
oqd:_Byte_System_IConvertible_ToDecimal_m1036493607
fYf:__ZL47Timer_t791717973_CustomAttributesCacheGeneratorP21CustomAttributesCache
lba:__Z25GetSplashScreenBackgroundRK5RectTIfE
u9:__ZN14dense_hash_mapIPKcPK4RTTIN11TypeManager23ConstCharPtrHashFunctorENS5_19ConstCharPtrEqualToE13stl_allocatorINSt3__24pairIKS1_S4_EEL18MemLabelIdentifier6ELi16EEEixERSB_
ymg:__ZL65Image_t2042527209_CustomAttributesCacheGenerator_m_PreserveAspectP21CustomAttributesCache
n6c:__ZN13RuntimeStaticI19UnityConnectServiceLb0EE16StaticInitializeEPv
JLh:_DefaultComparer_Compare_m1247109616_gshared
hOg:_ResourceManager__ctor_m498829021
XGa:__ZN18GlslGpuProgramGLESD2Ev
m6a:__ZN13RenderTexture14SetVolumeDepthEi
Qwg:_SerializationCallbacks__ctor_m722356782
Itc:__ZN10Matrix4x4f8TransferI8JSONReadEEvRT_
J3:__ZN14dense_hash_mapIPKcPK4RTTIN11TypeManager23ConstCharPtrHashFunctorENS5_19ConstCharPtrEqualToE13stl_allocatorINSt3__24pairIKS1_S4_EEL18MemLabelIdentifier6ELi16EEE5beginEv
fSf:__ZL49Marshal_t785896760_CustomAttributesCacheGeneratorP21CustomAttributesCache
P1:__ZN17PersistentManager18ReadObjectThreadedEi
vVi:_AvatarPoo_GetPoo_m3601249818
_xa:__ZN25TransformFeedbackSkinning31CleanupTransformFeedbackShadersEv
VFj:__ZN6il2cpp6icalls8mscorlib6System7Runtime16CompilerServices14RuntimeHelpers15InitializeArrayEP11Il2CppArray12Il2CppIntPtr
fGh:_InternalEnumerator_1_System_Collections_IEnumerator_get_Current_m2851415307_gshared
iKc:__ZNK20TextRenderingPrivate8FontImpl19GetCharacterAdvanceEjijfPj
QLj:__ZN6il2cpp6icalls8mscorlib4Mono8Security12Cryptography18KeyPairPersistence16_IsUserProtectedEP12Il2CppString
ePe:_ReadOnlyCollection_1_Contains_m3936562733_gshared
Lzf:_DefaultUriParser__ctor_m4218024811
cFg:_DerivedType_GetField_m3960169619
FHd:_Decimal_System_IConvertible_ToInt16_m3159038792_AdjustorThunk
lsb:__ZN10VertexData8TransferI18StreamedBinaryReadILb0EEEEvRT_
hif:_PKCS12_GetExistingParameters_m2413397265
AHe:_Collection_1_ClearItems_m4268731177_gshared
y6a:__ZN14PreloadManager16UpdatePreloadingEv
aib:__ZN12BaseRendererD2Ev
eHi:_X509CertificateCollection__ctor_m858704242
Goe:_Enumerator__ctor_m425576865_AdjustorThunk
$Sh:__Z148RuntimeInvoker_Int32_t2071877448_Il2CppObject_Int32_t2071877448_Int32_t2071877448_Il2CppObject_Int32_t2071877448_Int32_t2071877448_Int32_t2071877448PK10MethodInfoPvPS2_
fRe:_ReadOnlyCollection_1_System_Collections_IList_Contains_m1545447998_gshared
PDj:__ZN14dense_hash_mapI10KeyWrapperIPK19Il2CppGenericMethodEP10MethodInfoN6il2cpp8metadata23Il2CppGenericMethodHashENS4_14EqualsComparerINS8_26Il2CppGenericMethodCompareEEENSt3__29allocatorINSD_4pairIKS4_S6_EEEEEC2EjRKS9_RKSC_
Gbb:__ZNK21UnityDefaultAllocatorI17LowLevelAllocatorE8ContainsEPKv
Ebj:__ZNSt3__213__vector_baseI6pollfdNS_9allocatorIS1_EEED2Ev
Srf:_ClientSessionInfo_get_Id_m3046630969
_h:_emscripten_get_main_loop_timing
C0e:_DirectoryInfo__ctor_m3750996792
wUd:_BaseMeshEffect_ModifyMesh_m2134816219
wge:_Array_qsort_TisVector2_t2243707579_m3527759534_gshared
prb:__ZN24GenerateTypeTreeTransfer21TransferSTLStyleArrayINSt3__26vectorIN15QualitySettings14QualitySettingENS1_9allocatorIS4_EEEEEEvRT_17TransferMetaFlags
N1g:_ResourceRequest_t2560315377_marshal_pinvoke_cleanup
O4a:__ZN23ManagedAttributeManager52CallManagedGetParentTypeDisallowingMultipleInclusionE17ScriptingClassPtr
nke:_Array_InternalArray__get_Item_TisAnimatorClipInfo_t3905751349_m2163447872_gshared
rxe:_List_1_System_Collections_Generic_IEnumerableU3CTU3E_GetEnumerator_m166627113_gshared
oxb:__ZNSt3__26vectorI9InputAxisNS_9allocatorIS1_EEE6resizeEj
gae:__ZN21InterfaceFuncInvoker2Ii19Vector2_t2243707579S0_E6InvokeEjP11Il2CppClassP12Il2CppObjectS0_S0_
iVa:__ZN13BatchRendererC2ER15RenderLoopStatsRK15RenderNodeQueuebbb
Zdd:_SecurityElement_IsValidAttributeValue_m483287146
gkd:_Decoder_set_Fallback_m1780632169
pp:getTempRet0
y3h:__Z81RuntimeInvoker_Void_t1841601450_PlayableHandleU26_t3483893774_Vector3_t2243707580PK10MethodInfoPvPS2_
Hpi:_AnimationClipPlayable_set_applyFootIK_m1054409049
Wld:_ArithmeticException__ctor_m104771799
KVh:__Z114RuntimeInvoker_Void_t1841601450_Il2CppObject_Il2CppObject_Int32_t2071877448_Il2CppObject_Il2CppObject_Il2CppObjectPK10MethodInfoPvPS2_
WCg:_AssemblyTitleAttribute__ctor_m1696431446
X0d:_Image_AddQuad_m1603575622
tEj:__ZN24dense_hashtable_iteratorINSt3__24pairIK10KeyWrapperIPK19Il2CppGenericMethodEP10MethodInfoEES6_N6il2cpp8metadata23Il2CppGenericMethodHashEN14dense_hash_mapIS6_S9_SD_NS6_14EqualsComparerINSC_26Il2CppGenericMethodCompareEEENS0_9allocatorISA_EEE9SelectKeyESH_SJ_E30advance_past_empty_and_deletedEv
fof:_PrivateKeyInfo_RemoveLeadingZero_m3396807048
WKe:_ReadOnlyCollection_1_System_Collections_Generic_ICollectionU3CTU3E_get_IsReadOnly_m1251192075_gshared
eqe:_List_1_GrowIfNeeded_m185971996_gshared
$rj:__ZN6il2cpp6icalls8mscorlib6System9ThreadingL21lookup_cached_cultureEP12Il2CppThreadi
S$a:__ZN18DeferredRenderLoopD2Ev
hHg:_GenericTypeParameterBuilder_GetMethods_m1243855818
C4:__ZNK16TypeTreeIterator4NameEv
DX:__ZN15FileSystemEntry3SetEPKc
hgj:_il2cpp_method_has_attribute
KKh:_InternalEnumerator_1__ctor_m2808001655_gshared
j8c:_MACTripleDES__ctor_m884945242
bJ:__ZN20SoundChannelInstance15ParameterBuffer5ApplyEPN4FMOD7ChannelE
$1i:__ZL24UnresolvedVirtualCall_52P12Il2CppObjectPK10MethodInfo
Bvb:__ZN23SharedMeshRenderingDataD0Ev
dF:__Z117Register_UnityEngine_Experimental_Director_AnimatorControllerPlayable_INTERNAL_CALL_GetAnimatorTransitionInfoInternalv
fKc:__ZN20TextRenderingPrivate19NativeTextGenerator9InsertTabEv
cLf:__ZL73Enum_t2459695545_CustomAttributesCacheGenerator_Enum_ToObject_m1688724857P21CustomAttributesCache
QQg:_Rect_set_y_m4294916608
E3c:__ZN11UnityEngine15PlatformWrapper24GetRuntimePlatformStringEv
Ii:_glIsEnabled
kRb:__ZN15CacheWriterBaseD2Ev
Jog:__ZL56Slider_t297367283_CustomAttributesCacheGenerator_m_ValueP21CustomAttributesCache
LDb:__Z25scripting_class_get_image17ScriptingClassPtr
U6f:__ZL85Material_t193706927_CustomAttributesCacheGenerator_Material_GetTextureImpl_m623159197P21CustomAttributesCache
Mi:_emscripten_glDrawElementsInstanced
Fz:__ZN26AnimatorControllerPlayable27SetupStateMachineBehavioursEv
Hmf:_ARC4Managed_Dispose_m4102232694
$mf:_HMAC_Initialize_m3052649104
Gqa:__ZN18JobBatchDispatcherD2Ev
TWb:__ZN9Transform17MainThreadCleanupEv
dIj:_GC_clear_hdr_marks
zXj:_glScissor__wrapper
w1j:_emscripten_glCreateShader__wrapper
z1d:_InputField_get_caretSelectPositionInternal_m3523572533
KSc:_cff_fd_select_get
_ag:__ZL123AnimatorControllerPlayable_t4078305555_CustomAttributesCacheGenerator_AnimatorControllerPlayable_PlayInFixedTime_m172593751P21CustomAttributesCache
LRf:__ZL73CompilationRelaxationsAttribute_t238494011_CustomAttributesCacheGeneratorP21CustomAttributesCache
kdg:__ZL95CanvasRenderer_t261436805_CustomAttributesCacheGenerator_CanvasRenderer_SetMaterial_m1462355522P21CustomAttributesCache
Ryh:_Text_get_minHeight_m1562513104
acd:_SHA512Managed_processBlock_m3220567420
_yf:_NameObjectCollectionBase_get_Keys_m446053925
Wi:_emscripten_glGetShaderiv
Efh:_Transform_1__ctor_m353209818_gshared
ENa:__ZZ23InitPlayerLoopCallbacksvEN41EarlyUpdateUpdateAllUnityWebStreamsstruct7ForwardEv
dK:__ZN4FMOD6System10getVersionEPj
b1e:_FileLoadException_GetObjectData_m2047020314
tgg:__ZL96RemoteSettings_t392466225_CustomAttributesCacheGenerator_RemoteSettings_CallOnUpdate_m1624968574P21CustomAttributesCache
obe:_Array_InternalArray__IndexOf_TisSByte_t454417549_m1427585061_gshared
yPh:__Z75RuntimeInvoker_Byte_t3683104436_Il2CppObject_Int32_t2071877448_Il2CppObjectPK10MethodInfoPvPS2_
$Xc:__ZN2UI6Canvas23VirtualRedirectTransferER24GenerateTypeTreeTransfer
_zd:_Decimal_u64_m3991988111
YPi:_YieldInstruction_t3462875981_marshal_pinvoke
XRi:_Predicate_1_BeginInvoke_m2959352225_gshared
Pkh:_Dictionary_2_CopyToCheck_m2147716750_gshared
yHi:_X509Certificate_Parse_m1764345628
pyi:_SynchronizationAttribute_GetClientContextSink_m1264319894
NIc:__ZN13TextRendering4Font13AwakeFromLoadE17AwakeFromLoadMode
Zua:__ZN9GfxDevice21ReleaseSharedMeshDataEP14SharedMeshData
wjf:_SmallXmlParser_Peek_m2814840810
eyb:__ZNSt3__27__sort5IRNS_6__lessINS_4pairIPKN5Unity4TypeE7Hash128EES8_EEPS8_EEjT0_SC_SC_SC_SC_T_
uGe:_Collection_1_ConvertItem_m3168406667_gshared
w6i:__ZNK15dense_hashtableINSt3__24pairIK10KeyWrapperIPKcEP11Il2CppClassEES5_N6il2cpp5utils11StringUtils12StringHasherIS4_EEN14dense_hash_mapIS5_S8_SE_NS5_14EqualsComparerINSC_21CaseSensitiveComparerEEENS0_9allocatorIS9_EEE9SelectKeyESI_SK_E10test_emptyEj
RTi:_UnityAction_1_EndInvoke_m2822290096_gshared
kHj:_GC_unreachable_finalize_mark_proc
P2h:__Z75RuntimeInvoker_Il2CppObject_PlayableHandleU26_t3483893774_Int32_t2071877448PK10MethodInfoPvPS2_
IIj:_maybe_finalize
lFe:_Collection_1_System_Collections_ICollection_get_SyncRoot_m2547259708_gshared
nzi:_ConstructionCall_GetObjectData_m3974358557
agc:__Z43RectTransform_CUSTOM_INTERNAL_get_anchorMaxP12Il2CppObjectP13Vector2fIcall
LGd:_DateTimeOffset_get_DateTime_m229084964_AdjustorThunk
zga:__ZN8Material28UpdateHashesOnPropertyChangeEN9ShaderLab16FastPropertyNameE
Mgc:__Z53Register_UnityEngine_SortingLayer_GetLayerValueFromIDv
Fne:_Enumerator__ctor_m3512622280_AdjustorThunk
nph:_EqualityComparer_1_System_Collections_IEqualityComparer_Equals_m349194518_gshared
xvd:_CaseInsensitiveComparer_Compare_m1192858479
xFb:__Z18Transfer_BlittableI14SafeBinaryReadLb1E8Vector4fEvRK29SerializationCommandArgumentsR31RuntimeSerializationCommandInfo
L3e:_StreamAsyncResult_set_Done_m4272090534
p5d:_LayoutRebuilder_Clear_m2390054824
GGe:_Collection_1_System_Collections_IList_Insert_m2968289909_gshared
oDg:_Default_SelectMethod_m622251293
jM:__ZN11AudioSource12AddToManagerEv
Sr:__ZN8Animator23VirtualRedirectTransferER19StreamedBinaryWriteILb0EE
Ryi:_AsyncResult_get_NextSink_m1172723924
Vv:__ZN11UnityEngine9Animation32CreateAnimatorGenericBindingsOptERKNS0_20AnimationSetBindingsER9TransformPKN7mecanim9animation14AvatarConstantEPKNS0_21AvatarBindingConstantEbRNS6_6memory9AllocatorER8Animator
syj:__ZN6il2cpp2vm5Image13ClassFromNameEPK11Il2CppImagePKcS6_
ATj:dynCall_vdddddd
cUb:__ZN24GenerateTypeTreeTransfer21TransferSTLStyleArrayINSt3__26vectorIN9ShaderLab14SerializedPassENS1_9allocatorIS4_EEEEEEvRT_17TransferMetaFlags
u1:__ZL32MarkLevelGameManagerDependenciesR27GarbageCollectorThreadState
L$h:__Z49RuntimeInvoker_Void_t1841601450_UInt16_t986882611PK10MethodInfoPvPS2_
hxa:__ZNK13GfxDeviceGLES26HasActiveRandomWriteTargetEv
ldi:__Z37RuntimeInvoker_ILTokenInfo_t149559338PK10MethodInfoPvPS2_
qYj:_glGetActiveUniformsiv__wrapper
Jgc:__Z43Register_UnityEngine_Material_EnableKeywordv
U2:__ZN13MonoBehaviour19SetupScriptingCacheE17ScriptingClassPtrP10MonoScript
a_h:__Z59RuntimeInvoker_Il2CppObject_Double_t4078015681_Il2CppObjectPK10MethodInfoPvPS2_
ir:__Z20AnimationEventToMonoRK14AnimationEventR18MonoAnimationEvent
n6f:__ZL85Mesh_t1356156583_CustomAttributesCacheGenerator_Mesh_ExtractArrayFromList_m1349408169P21CustomAttributesCache
U_h:__Z83RuntimeInvoker_Void_t1841601450_Il2CppObject_Il2CppObject_Il2CppObject_Il2CppObjectPK10MethodInfoPvPS2_
y1:__ZNK15dense_hashtableINSt3__24pairIKiiEEi21InstanceIDHashFunctorN14dense_hash_mapIiiS4_NS0_8equal_toIiEE13stl_allocatorIS3_L18MemLabelIdentifier1ELi16EEE9SelectKeyES7_SA_E13find_positionERS2_
Srh:_Navigation_get_selectOnLeft_m3980387574_AdjustorThunk
VAe:_List_1_Sort_m2158253314_gshared
Mhg:__ZL74UnityEventBase_t828812576_CustomAttributesCacheGenerator_m_PersistentCallsP21CustomAttributesCache
vlh:_DefaultComparer__ctor_m2265472997_gshared
buj:__ZN6il2cpp2vm13LivenessState18ShouldProcessValueEP12Il2CppObjectP11Il2CppClass
owb:__ZN4PPtrI6SpriteE8TransferI14SafeBinaryReadEEvRT_
Wpj:__ZN15dense_hashtableINSt3__24pairIK10KeyWrapperIP11Il2CppClassES4_EES5_N6il2cpp8metadata16SZArrayClassHashEN14dense_hash_mapIS5_S4_SA_NS5_14EqualsComparerINS9_19SZArrayClassCompareEEENS0_9allocatorIS7_EEE9SelectKeyESE_SG_E16reset_thresholdsEv
uVh:__Z45RuntimeInvoker_Il2CppObject_IntPtr_t_IntPtr_tPK10MethodInfoPvPS2_
ATb:__ZNSt3__26vectorIN9ShaderLab14SerializedPassENS_9allocatorIS2_EEE8__appendEj
TSb:__ZNSt3__26vectorIN9ShaderLab20SerializedSubProgram13BufferBindingENS_9allocatorIS3_EEEC2INS_11__wrap_iterIPS3_EEEET_SB_RKS5_PNS_9enable_ifIXaasr21__is_forward_iteratorISB_EE5valuesr16is_constructibleIS3_NS_15iterator_traitsISB_E9referenceEEE5valueEvE4typeE
ssf:_Context_get_SupportedCiphers_m2172827298
tW:__ZNK13ScreenManager21IsMultiDisplayEnabledEv
czc:__ZN12b2WheelJoint24SolveVelocityConstraintsERK12b2SolverData
iTh:__Z170RuntimeInvoker_Int32_t2071877448_Il2CppObject_Int32_t2071877448_Int32_t2071877448_Il2CppObject_Int16_t4041245914_Int32_t2071877448_SByte_t454417549_ContextU26_t3131521781PK10MethodInfoPvPS2_
nob:__ZN9Texture2D23VirtualRedirectTransferER18StreamedBinaryReadILb0EE
WAc:__ZN10Collider2D8TransferI24GenerateTypeTreeTransferEEvRT_
mKd:_Double_System_IConvertible_ToUInt16_m286326038_AdjustorThunk
_ug:_TypeInfo__ctor_m1475908211
Ohb:__ZNSt3__26__treeINS_12__value_typeIN4core12basic_stringIcNS2_20StringStorageDefaultIcEEEEjEENS_19__map_value_compareIS6_S7_NS_4lessIS6_EELb1EEE13stl_allocatorIS7_L18MemLabelIdentifier6ELi16EEE7destroyEPNS_11__tree_nodeIS7_PvEE
A3:__ZN16ScriptingManager27NativeTypeForScriptingClassE17ScriptingClassPtr
kEf:_X509Chain_WrapUp_m1072032285
UIi:_X509CertificateEnumerator_System_Collections_IEnumerator_MoveNext_m1448966539
MPc:_get_sfnt_table
Mke:_Object_FindObjectOfType_TisIl2CppObject_m2967490724_gshared
Grf:_TlsServerHelloDone__ctor_m2125611008
GPa:_unity_z_tr_stored_block
GOh:__Z46RuntimeInvoker_Single_t2076509932_Il2CppObjectPK10MethodInfoPvPS2_
K9d:_Array_compare_TisIl2CppObject_m1481822507_gshared
gRd:_PointerEventData_set_pressPosition_m2094137883
Ppb:__ZN8Renderer20RendererAddedToSceneEv
obg:__ZL132AnimatorControllerPlayable_t4078305555_CustomAttributesCacheGenerator_AnimatorControllerPlayable_Play_m1100499576____normalizedTime2P21CustomAttributesCache
e1a:__ZL22ScheduleSceneNodesJobsP25ScheduleSceneNodesJobDataj
Kk:_emscripten_set_canvas_size
aMf:__ZL65Il2CppArray_CustomAttributesCacheGenerator_Array_Sort_m3645766612P21CustomAttributesCache
tlf:_BigInteger_op_Subtraction_m972393015
$Mh:_Comparer_1__cctor_m2253684996_gshared
jTb:__ZNSt3__26vectorIN9ShaderLab20SerializedSubProgramENS_9allocatorIS2_EEE8__appendEj
VU:__ZN20DynamicHeapAllocatorI17LowLevelAllocatorE8AllocateEji
D1c:__ZN11UnityEngine9Analytics15UserCustomEvent12ToJsonStringER9JSONWrite
KVa:__ZN20DynamicPropertySheet15SetVectorQueuedERKN9ShaderLab16FastPropertyNameERK8Vector4fN19ShaderPropertySheet8SetFlagsE
uif:_PKCS12_get_IterationCount_m3572300030
tii:_DefaultExecutionOrder_get_order_m1561221759
SOe:_ReadOnlyCollection_1_System_Collections_IEnumerable_GetEnumerator_m4248982967_gshared
zs:__ZN7mecanim9animation22EvaluateAvatarRetargetEPKNS0_14AvatarConstantEPKNS0_11AvatarInputEPNS0_12AvatarOutputEPNS0_12AvatarMemoryEPNS0_15AvatarWorkspaceEb
z5d:_LayoutRebuilder_GetHashCode_m2745108660
rlb:__ZN14RenderSettings23VirtualRedirectTransferER19StreamedBinaryWriteILb0EE
iqc:__ZL26Transfer_SimpleNativeClassI9JSONWrite10RectOffsetLb0EEvRK29SerializationCommandArgumentsR31RuntimeSerializationCommandInfo
EHj:_GC_push_conditional
Q1c:__ZN21UnityAnalyticsManager23VirtualRedirectTransferER24GenerateTypeTreeTransfer
JAa:__ZN17GenericDynamicVBO10AllocateVBEjR21DynamicVBOChunkHandle
Ere:_List_1_get_Item_m1547593893_gshared
Zai:__Z70RuntimeInvoker_Void_t1841601450_CustomAttributeNamedArgument_t94157543PK10MethodInfoPvPS2_
n0e:_Path_GetPathRoot_m1269357080
owj:__ZN30dense_hashtable_const_iteratorI10KeyWrapperIP18Il2CppGenericClassES3_N6il2cpp8metadata22Il2CppGenericClassHashEN14dense_hash_setIS3_S6_NS3_14EqualsComparerINS5_25Il2CppGenericClassCompareEEENSt3__29allocatorIS3_EEE8IdentityESA_SD_EppEv
xwd:_KeyNotFoundException__ctor_m264393096
xPd:_EventSystem_SetSelectedGameObject_m2211816110
Qfh:_Transform_1__ctor_m4161450529_gshared
gl:_glMapBufferRange
gob:__ZN9Texture2D8TransferI18StreamedBinaryReadILb0EEEEvRT_
Pdc:__Z31Input_CUSTOM_GetMouseButtonDowni
fMf:__ZL65Il2CppArray_CustomAttributesCacheGenerator_Array_Sort_m1730553742P21CustomAttributesCache
mEj:__ZN15dense_hashtableINSt3__24pairIK10KeyWrapperIPK19Il2CppGenericMethodEP10MethodInfoEES6_N6il2cpp8metadata23Il2CppGenericMethodHashEN14dense_hash_mapIS6_S9_SD_NS6_14EqualsComparerINSC_26Il2CppGenericMethodCompareEEENS0_9allocatorISA_EEE9SelectKeyESH_SJ_E3endEv
b4b:__ZN13PlayableGraph4PlayEv
uTa:__ZNK9Transform16GetLocalPositionEv
I5f:__ZL89Input_t1785128008_CustomAttributesCacheGenerator_Input_get_imeCompositionMode_m4250689464P21CustomAttributesCache
lmd:_Array_System_Collections_ICollection_get_Count_m2897196527
Sra:__ZN13LoadOperation19IntegrateTimeSlicedEi
_qb:__ZNK15QualitySettings26GetTypeInfoVirtualInternalEv
_Hf:_InterpreterFactory__ctor_m3331468903
Oif:_X501__cctor_m3795360380
uxa:__ZN13GfxDeviceGLES22DispatchComputeProgramE12ObjectHandleI18ComputeProgram_TagPvE15ComputeBufferIDj
bVg:_GUIStyle_set_contentOffset_m2138084868
rEe:_Collection_1_System_Collections_ICollection_CopyTo_m4193844941_gshared
MCd:_Convert_ToInt32_m2297793940
lqa:__Z17TransformAABBSlowRK4AABBRK10Matrix4x4fRS_
$ob:__ZN15SerializeTraitsI13dynamic_arrayI7Hash128Lj8EEE19ResizeSTLStyleArrayERS2_i18MemLabelIdentifier
Qoj:__ZN13Il2CppHashMapINSt3__24pairIPK9FieldInfoP11Il2CppClassEEj17ReflectionMapHashIS7_ENS0_8equal_toIS7_EENS0_9allocatorINS1_IK10KeyWrapperIS7_EjEEEEEC2EjRKS9_RKSB_
_Rb:__ZN9ShaderLab21SerializedShaderState8TransferI14SafeBinaryReadEEvRT_
JQj:_ftruncate
_ad:_RSAPKCS1SignatureFormatter_SetKey_m2365816458
fYe:_Int16_GetHashCode_m304503362_AdjustorThunk
HTc:_cf2_stack_pushInt
lB:__ZN7mecanim9animation20DestroyLayerConstantEPNS0_13LayerConstantERNS_6memory9AllocatorE
z4g:_CompressedStack__ctor_m276924800
MQd:_ExecuteEvents_get_cancelHandler_m1964324668
Kha:__ZN15SerializeTraitsINSt3__24pairIN4core12basic_stringIcNS2_20StringStorageDefaultIcEEEES6_EEE8TransferI24GenerateTypeTreeTransferEEvRS7_RT_
K_j:b89
J_j:b88
$dg:__ZL70GUISettings_t622856320_CustomAttributesCacheGenerator_m_SelectionColorP21CustomAttributesCache
b_j:b81
a_j:b80
j_j:b83
d4:__ZN18ResourceImageGroup7CleanupEv
r_j:b85
Sqi:_AnimatorControllerPlayable_SetTrigger_m3144166126
I_j:b87
y_j:b86
hq:__ZN11Quaternionf8TransferI24GenerateTypeTreeTransferEEvRT_
bzh:_ToggleGroup_RegisterToggle_m3118973598
a2b:__ZN13ProduceHelperI4MeshLb0EE7ProduceE18MemLabelIdentifier18ObjectCreationMode
dof:_PrivateKeyInfo_Decode_m1053025782
QFf:_X509ChainElementCollection_System_Collections_ICollection_CopyTo_m1467895312
Rhf:_PKCS12_Decrypt_m2457743414
bag:__ZL87Animator_t69676727_CustomAttributesCacheGenerator_Animator_SetTriggerString_m2002790359P21CustomAttributesCache
emb:__ZN8Playable19SetOutputConnectionEPS_i
P5i:__ZN15dense_hashtableINSt3__24pairIK10KeyWrapperIPK11Il2CppClassEPKcEES6_N6il2cpp5utils11PointerHashIS3_EEN14dense_hash_mapIS6_S9_SE_NS6_14EqualsComparerINS0_8equal_toIS5_EEEENS0_9allocatorISA_EEE9SelectKeyESJ_SL_EC2ERKSO_j
Wl:_glDeleteShader
cMd:_Exception_GetType_m3898489832
_ka:__ZN6prcoreL17RemapGenericFloatI15TexFormatRGHalf16TexFormatRGFloatEEvPKNS_9InnerInfoE
sBe:_Stack_1_Peek_m1548778538_gshared
zNa:__ZZ23InitPlayerLoopCallbacksvEN38EarlyUpdateExecuteMainThreadJobsstruct7ForwardEv
EPi:_Vector4_Dot_m2285943745
Nwh:_Shadow_set_effectColor_m3110056844
r_g:_Physics2D_GetColliderFromInstanceID_m95920619
r9b:__Z27scripting_add_internal_callPKcPKv
Lee:_Array_InternalArray__Insert_TisUriScheme_t1876590943_m2728325409_gshared
Aoj:__ZN13Il2CppHashMapINSt3__24pairIPK9EventInfoP11Il2CppClassEEj17ReflectionMapHashIS7_ENS0_8equal_toIS7_EENS0_9allocatorINS1_IK10KeyWrapperIS7_EjEEEEEC2EjRKS9_RKSB_
Uwj:__GLOBAL__sub_I_GarbageCollector_cpp
i0:__Z17GetPlayerSettingsv
Z7h:__Z65RuntimeInvoker_KeyValuePair_2_t38854645_Il2CppObject_Il2CppObjectPK10MethodInfoPvPS2_
ct:__ZN34BlobWriteTransferSTLStyleArrayImplI22OffsetPtrArrayTransferIiEEclERS1_17TransferMetaFlagsR9BlobWrite
fJi:_X509Store_CheckStore_m1027496478
R9h:__Z87RuntimeInvoker_Int32_t2071877448_UIVertex_t1204258818_UIVertex_t1204258818_Il2CppObjectPK10MethodInfoPvPS2_
fRf:__ZL82MethodBase_t904190842_CustomAttributesCacheGenerator_MethodBase_Invoke_m1075809207P21CustomAttributesCache
J3h:__Z93RuntimeInvoker_TextGenerationError_t780770201_Il2CppObject_TextGenerationSettings_t2543476768PK10MethodInfoPvPS2_
Xu:__ZN26AnimatorControllerPlayable18SetLayerAutoWeightEv
Kb:invoke_vffff
jRj:__ZNSt3__212basic_stringIcNS_11char_traitsIcEENS_9allocatorIcEEEC2ERKS5_jjRKS4_
tid:_String_Contains_m4017059963
Zhe:_Array_swap_TisCustomAttributeNamedArgument_t94157543_TisCustomAttributeNamedArgument_t94157543_m3600072996_gshared
nLh:_DefaultComparer_Compare_m1606207039_gshared
j_c:__ZN2UI14CanvasRenderer12SyncMaterialENS0_8SyncFlagE
ELj:__ZN6il2cpp2vm9Parameter30GetDefaultParameterValueObjectEPK10MethodInfoPK13ParameterInfoPb
xfe:_Array_InternalArray__set_Item_TisLabelData_t3712112744_m2253365137_gshared
gLg:_MonoCMethod_get_Attributes_m3914742834
zIh:_InternalEnumerator_1__ctor_m142220063_AdjustorThunk
FYg:_MonoBehaviour_Invoke_m666563676
HEg:_ConstructorBuilder_get_DeclaringType_m4264602248
D4e:_StringReader__ctor_m643998729
GAf:_IPv6Address_TryParse_m2220524278
nZh:__Z75RuntimeInvoker_DateTime_t693205669_DateTime_t693205669_TimeSpan_t3430258949PK10MethodInfoPvPS2_
i5d:_U3CDelayedSetDirtyU3Ec__Iterator0_System_Collections_Generic_IEnumeratorU3CobjectU3E_get_Current_m2210283424
z7f:__ZL86Time_t31991979_CustomAttributesCacheGenerator_Time_get_realtimeSinceStartup_m357614587P21CustomAttributesCache
DPc:_UNITY_tt_face_done_kern
dxi:_Context_get_DefaultContext_m2211922324
ADg:_CustomAttributeData_get_NamedArguments_m708818174
Tmc:__Z59GUIStyle_CUSTOM_Internal_GetNumCharactersThatFitWithinWidth13Il2Cpp_IntPtrP12Il2CppStringf
uof:_RSAManaged_GetPaddedValue_m2972141669
wvh:_ScrollRect_OnDrag_m1424848249
Mtf:_TlsServerCertificate_ProcessAsSsl3_m277089231
f9d:_Array_InternalArray__IEnumerable_GetEnumerator_TisUInt16_t986882611_m3665860884_gshared
Baa:__Z19scripting_gc_enablev
xDi:_AnchorInfo__ctor_m617409099
g8a:__Z29StdTemplateConversionFunctionIihEbPvR14SafeBinaryRead
iHg:_GenericTypeParameterBuilder_GetMethodImpl_m528545634
d0c:__Z55Register_UnityEngine_CanvasRenderer_DisableRectClippingv
FIf:_Interval_CompareTo_m2909556284_AdjustorThunk
Atb:__ZN14SafeBinaryRead21TransferSTLStyleArrayI13dynamic_arrayI11ColorRGBA32Lj4EEEEvRT_17TransferMetaFlags
gDh:_InternalEnumerator_1_System_Collections_IEnumerator_Reset_m1090540230_AdjustorThunk
iig:__ZL83Logger_t3328995178_CustomAttributesCacheGenerator_Logger_get_logHandler_m4190583509P21CustomAttributesCache
Grh:_Navigation_t1571958496_marshal_pinvoke
wHf:_Interpreter_GetLastDefined_m2450713313
OCi:_Parser_ParseAssertionType_m3316669790
owh:_Selectable_get_isPointerDown_m774209881
gLf:__ZL73Enum_t2459695545_CustomAttributesCacheGenerator_Enum_ToObject_m2460371738P21CustomAttributesCache
NWb:__ZNSt3__27__sort4IRNS_6__lessIN4core12basic_stringIcNS2_20StringStorageDefaultIcEEEES6_EEPS6_EEjT0_SA_SA_SA_T_
eUj:dynCall_viiiifii
WVi:_GameManager_ShowAbout_m3737710106
w_g:_Plane_get_distance_m1834776091_AdjustorThunk
cnj:__ZN6il2cpp2gc19AppendOnlyGCHashMapINSt3__24pairIPK11Il2CppImageP11Il2CppClassEEP22Il2CppReflectionModule17ReflectionMapHashIS9_ENS2_8equal_toIS9_EEEC2Ev
M1:__Z20GetPersistentManagerv
UWc:_UNITY_TT_Set_Var_Design
cxi:_Context_Finalize_m1386439645
caa:__ZN21SystemInfoStringCache16StaticInitializeEPv
Rpf:_TlsStream__ctor_m4117943603
Rjj:__ZN15dense_hashtableINSt3__24pairIK10KeyWrapperIPK10Il2CppTypeEjEES6_N6il2cpp8metadata14Il2CppTypeHashEN14dense_hash_mapIS6_jSB_NS6_14EqualsComparerINSA_26Il2CppTypeEqualityComparerEEENS0_9allocatorIS8_EEE9SelectKeyESF_SH_E12maybe_shrinkEv
dyh:_Text_FontTextureChanged_m4236993972
JCj:__ZN6il2cpp2gc16GarbageCollector23MakeDescriptorForObjectEPji
$wj:__ZNK10KeyWrapperIP12Il2CppObjectE14EqualsComparerINSt3__28equal_toIS1_EEEclERKS2_S9_
JNg:_ParameterModifier_t1820634920_marshal_pinvoke
OCb:__ZNK13MonoBehaviour7GetNameEv
xWi:_ObjStatsCorrect_SetValue_m338369650
duj:__ZN13dynamic_arrayIP12Il2CppObjectLj4EE9push_backEv
Ima:__ZN19ScriptingInvocation28AdjustArgumentsToMatchMethodEv
Awj:__ZN15dense_hashtableI10KeyWrapperIP18Il2CppGenericClassES3_N6il2cpp8metadata22Il2CppGenericClassHashEN14dense_hash_setIS3_S6_NS3_14EqualsComparerINS5_25Il2CppGenericClassCompareEEENSt3__29allocatorIS3_EEE8IdentityESA_SD_E6insertERKS3_
ZNd:_AbstractEventData_Use_m1797212290
Ikb:__Z20RenderMultipleMeshesRK15RenderNodeQueueRK18RenderMultipleData17ShaderChannelMask
Zhj:__ZN6il2cpp2vm4Type19GetGenericParameterEPK10Il2CppType
F$c:__Z51Register_UnityEngine_CanvasGroup_get_blocksRaycastsv
SJh:_InternalEnumerator_1_get_Current_m2826780083_gshared
R1j:b119
Ftc:__ZN8JSONRead21TransferSTLStyleArrayI13dynamic_arrayI11ColorRGBA32Lj4EEEEvRT_18MemLabelIdentifier17TransferMetaFlags
rqg:__ZL105LayoutUtility_t4076838048_CustomAttributesCacheGenerator_LayoutUtility_U3CGetMinHeightU3Em__4_m1769295917P21CustomAttributesCache
elh:_Dictionary_2_GetEnumerator_m1752238884_gshared
llj:__ZNK15dense_hashtableINSt3__24pairIK10KeyWrapperINS1_IPK11Il2CppImageP11Il2CppClassEEEjEES9_17ReflectionMapHashIS8_EN14dense_hash_mapIS9_jSD_NS9_14EqualsComparerINS0_8equal_toIS8_EEEENS0_9allocatorISB_EEE9SelectKeyESI_SK_E3endEv
E$g:_RaycastHit2D_get_collider_m2568504212
VKh:_InternalEnumerator_1__ctor_m2782443954_AdjustorThunk
Bd:_glBeginQuery
cCg:_Assembly_GetCustomAttributes_m95309865
$Pg:_GUILayoutUtility_INTERNAL_CALL_Internal_GetWindowRect_m3236664463
cHc:__ZN10Effector2D25CheckEffectorColliderMaskEP10Collider2DS1_
ZQa:__ZN6Camera12RenderStereoENS_10RenderFlagE8CullFlagPNS_24PerformEyeRenderFunctionE
MW:__ZN20LocalFileSystemPosix10ToAbsoluteEPKc
n$d:_GridLayoutGroup__ctor_m1099847132
fTh:__Z136RuntimeInvoker_Boolean_t3825574718_Il2CppObject_Il2CppObject_Int32_t2071877448_Int32_t2071877448_SByte_t454417549_ContextU26_t3131521781PK10MethodInfoPvPS2_
Pzd:_Convert_ToBoolean_m48997236
DQa:_UNITY_png_default_flush
qp:__ZN6Object17MainThreadCleanupEv
Dtd:_ArrayListWrapper_set_Capacity_m2792463350
bkb:__Z32TransferEnumWithNameForceIntSizeI14SafeBinaryRead7HDRModeEvRT_RT0_PKc17TransferMetaFlags
zPj:_getcwd
v2g:_StringBuilder_Append_m1128243247
Jzc:__ZN16b2CapsuleContact6CreateEP9b2FixtureiS1_iP16b2BlockAllocator
yDi:_AnchorInfo_get_Offset_m142119297
pbb:__ZN25ThreadsafeLinearAllocatorD2Ev
AEd:_DateTime_get_Year_m1985210972
_aa:__Z21SendMessageToEveryoneRK17MessageIdentifier11MessageData
_Sg:_GUISkin_get_settings_m626844463
q7:__ZN21BillboardBatchManager16StaticInitializeEPv
cTg:_Object_get_name_m2079638459
P1j:b117
sZ:__ZN12_GLOBAL__N_138ArchiveRedirectFileSystemStaticDestroyEPv
RSi:_InvokableCall_1_add_Delegate_m3048312905_gshared
VLd:_EventHandler_Invoke_m1137722757
J8i:__ZNK15dense_hashtableINSt3__24pairIK10KeyWrapperI13dynamic_arrayIPK10Il2CppTypeLj4EEEPFvvEEES8_N6il2cpp8metadata19Il2CppSignatureHashEN14dense_hash_mapIS8_SB_SF_NS8_14EqualsComparerINSE_22Il2CppSignatureCompareEEENS0_9allocatorISC_EEE9SelectKeyESJ_SL_E5beginEv
_7e:_MonoType_IsSubclassOf_m2211166238
aOg:_TypeFilter_EndInvoke_m997625354
PFe:_Collection_1_System_Collections_ICollection_CopyTo_m2859266050_gshared
Su:__ZN7mecanim14ValueArrayCopyEPKNS_10ValueArrayEPS0_PKNS_14ValueArrayMaskE
eMh:_Comparer_1__ctor_m2876014041_gshared
nIj:_GC_continue_reclaim
j$e:_InvalidCastException__ctor_m2730571470
RFf:_X509ChainElementCollection_System_Collections_IEnumerable_GetEnumerator_m2559704689
d0f:__ZL86BigInteger_t925946153_CustomAttributesCacheGenerator_BigInteger_op_Implicit_m622924526P21CustomAttributesCache
Blg:__ZL59Dropdown_t1985816271_CustomAttributesCacheGenerator_m_ValueP21CustomAttributesCache
cIf:_InterpreterFactory_set_Gap_m2761943153
fDf:_PublicKey_get_Key_m126090744
$Kc:__ZNSt3__23mapIN20TextRenderingPrivate7FontRefEP11FT_FaceRec_NS_4lessIS2_EENS_9allocatorINS_4pairIKS2_S4_EEEEEixERS9_
tJa:__ZN17ArchiveFileSystem10AddStorageEP20ArchiveStorageReader
Z2i:__ZL25UnresolvedVirtualCall_104P12Il2CppObjectS0_S0_S0_iPK10MethodInfo
Jli:_Color_Equals_m661618137
Kxc:__ZNK12b2MotorJoint16GetReactionForceEf
VEa:__ZN12_GLOBAL__N_112UploadFormatE13TextureFormat
unh:_EqualityComparer_1_System_Collections_IEqualityComparer_GetHashCode_m1203798961_gshared
Oeg:__ZL89GUIStyle_t1799908754_CustomAttributesCacheGenerator_GUIStyle_AssignRectOffset_m2998103580P21CustomAttributesCache
F$i:__ZN6il2cpp2vm5Class15GetEnumBaseTypeEP11Il2CppClass
z0e:_DirectoryNotFoundException__ctor_m3713860966
NMh:_Comparer_1_get_Default_m4282764954_gshared
Anb:__ZNK9Texture2D16GetNpotTexelSizeEv
IDh:_InternalEnumerator_1__ctor_m245588437_gshared
HGf:_Capture_get_Text_m3472127896
Lqh:_Mask_get_rectTransform_m3304369086
vki:_WillRenderCanvases_EndInvoke_m3215676440
GMi:_TooltipAttribute__ctor_m2640804852
j0h:__Z35RuntimeInvoker_Category_t1984577050PK10MethodInfoPvPS2_
Bsi:_AnimatorControllerPlayable_INTERNAL_CALL_PlayInFixedTimeInternal_m847261734
OAa:__ZN9GfxDevice22GetDefaultVertexBufferE26GfxDefaultVertexBufferTypej
xJi:_X509Crl_get_NextUpdate_m45665244
pEe:_Collection_1__ctor_m3903788797_gshared
nOe:_ReadOnlyCollection_1_System_Collections_ICollection_CopyTo_m1129689124_gshared
RPj:___fseeko_unlocked
D7h:__Z162RuntimeInvoker_Void_t1841601450_Il2CppObject_Int32_t2071877448_SByte_t454417549_SByte_t454417549_SingleU26_t4173844468_SingleU26_t4173844468_SingleU26_t4173844468PK10MethodInfoPvPS2_
l_j:_glGetActiveUniform__wrapper
JPj:_sscanf
ZIe:_Collection_1_Contains_m1999290510_gshared
Ttb:__ZN14SafeBinaryRead21TransferSTLStyleArrayINSt3__26vectorI17BlendShapeChannelNS1_9allocatorIS3_EEEEEEvRT_17TransferMetaFlags
_ia:__Z17BeginSplashScreenv
kWi:_GarbageScoring_OnTriggerExit2D_m1668601547
OOi:_Vector3__ctor_m2638739322_AdjustorThunk
OUb:__ZN9ShaderLab16SerializedShader8TransferI19StreamedBinaryWriteILb0EEEEvRT_
mah:_UInt32_Parse_m2400360707
CA:__ZN7mecanim9animation18CreateAvatarMemoryEPKNS0_14AvatarConstantERNS_6memory9AllocatorE
lzd:_Stack_Pop_m3788808882
JNh:_Enumerator_VerifyCurrent_m4246196125_AdjustorThunk
akh:_Dictionary_2_pick_value_m3484897877_gshared
kGd:_DateTime_op_Equality_m1867073872
Rt:__ZN7mecanim8skeleton16SkeletonPoseCopyIN4math4trsXENS2_7affineXEEEvPKNS0_13SkeletonPoseTIT_EEPNS5_IT0_EE
dte:_List_1_CopyTo_m1916701891_gshared
XLb:__Z18Transfer_BlittableI19StreamedBinaryWriteILb0EELb0EaEvRK29SerializationCommandArgumentsR31RuntimeSerializationCommandInfo
uAa:__ZN18GfxFramebufferGLES18GetFramebufferNameERK20GfxRenderTargetSetup
FSj:_saveSetjmp
vuj:__ZN6il2cpp6icalls8mscorlib6System2IO6MonoIO11GetFileTypeE12Il2CppIntPtrPi
tlc:__Z30Event_Get_Custom_PropCharacterP12Il2CppObject
SZ:__ZN13PlayableGraph27SchedulePlayableDestructionERK9HPlayable
tXj:_glGetFramebufferAttachmentParameteriv__wrapper
pGb:__Z22scripting_array_length17ScriptingArrayPtr
Vdd:_SecurityElement_GetAttribute_m4288291176
qGi:_UriParser_get_DefaultPort_m1377931533
UXi:_IndexedSet_1_get_Count_m2839545138_gshared
Npa:__ZN14SafeBinaryRead20TransferTypelessDataEjPvi
yOg:_RenderPipelineManager_get_currentPipeline_m679160301
ORf:__ZL66StringFreezingAttribute_t2691375565_CustomAttributesCacheGeneratorP21CustomAttributesCache
gpc:__ZN9rapidjson13GenericReaderINS_4UTF8IcEES2_13JSONAllocatorE10ParseFalseILj1ENS_25GenericInsituStringStreamIS2_EENS_15GenericDocumentIS2_S3_S3_EEEEvRT0_RT1_
Lwe:_List_1_AddCollection_m3284813601_gshared
Cdb:__ZN33AssetBundleLoadFromAsyncOperation7PerformEv
_og:__ZL102ToggleGroup_t1030026315_CustomAttributesCacheGenerator_ToggleGroup_U3CActiveTogglesU3Em__1_m4052653494P21CustomAttributesCache
B1h:__Z69RuntimeInvoker_Single_t2076509932_Int32_t2071877448_Int32_t2071877448PK10MethodInfoPvPS2_
g0:__Z19GetActiveColorSpacev
Inh:_EqualityComparer_1__cctor_m1672307556_gshared
ctg:_SoapTypeAttribute_get_IsInteropXmlElement_m2941294827
Swb:__ZN14SpriteRenderer18UpdateCachedSpriteEv
ooe:_Enumerator_System_Collections_IEnumerator_get_Current_m3542273247_gshared
Trd:_Char_System_IConvertible_ToUInt32_m1557991717_AdjustorThunk
cjd:_Encoding_get_UTF8Unmarked_m628720656
rUe:_NumberFormatter_RoundBits_m1545255255
O0:__Z6StrCmpPKcS0_
ZIh:_InternalEnumerator_1_MoveNext_m2906956792_gshared
hWb:__Z21CheckGpuProgramUsable20ShaderGpuProgramType
C9h:__Z55RuntimeInvoker_Boolean_t3825574718_Keyframe_t1449471340PK10MethodInfoPvPS2_
ZCg:_Binder__cctor_m3736115807
lCj:__ZN6il2cpp2os9Directory20GetFileSystemEntriesERKNSt3__212basic_stringIcNS2_11char_traitsIcEENS2_9allocatorIcEEEESA_iiPi
Zkh:_Dictionary_2_OnDeserialization_m2160537783_gshared
mod:_Attribute_GetHashCode_m2653962112
YJc:__ZN20TextRenderingPrivate19NativeTextGenerator5SetupEv
Tyi:_AsyncResult_GetReplyMessage_m262842621
Eme:_Enumerator__ctor_m3021143890_AdjustorThunk
Vyb:__ZN12AspectRatios8TransferI18StreamedBinaryReadILb0EEEEvRT_
JNf:__ZL66X509ExtensionCollection_t1640144839_CustomAttributesCacheGeneratorP21CustomAttributesCache
B3b:__ZN10GameObject14CopyPropertiesERS_
wnc:__Z44Register_UnityEngine_GUIStyle_get_fixedWidthv
tad:_RSACryptoServiceProvider_Common_m2581564813
GHi:_X509CertificateEnumerator_MoveNext_m4060814498
E2e:_MemoryStream_CheckIfClosedThrowDisposed_m2253054610
IAh:_ArrayReadOnlyList_1_GetEnumerator_m634288642_gshared
V6a:__ZNK13ScreenManager12IsFullScreenEv
kQj:_rand
WXj:_emscripten_glFramebufferRenderbuffer__wrapper
XCj:__ZN6il2cpp5utils9PathUtils7CombineIcEENSt3__212basic_stringIT_NS3_11char_traitsIS5_EENS3_9allocatorIS5_EEEERKNS0_10StringViewIS5_EERKSA_
sRe:_ReadOnlyCollection_1_GetEnumerator_m2481390116_gshared
Bri:_AnimatorControllerPlayable_INTERNAL_CALL_GetNextAnimatorStateInfoInternal_m1550960895
eHb:__ZN14SafeBinaryRead21TransferSTLStyleArrayINSt3__26vectorI17AnimationCurveTplIfE13stl_allocatorIS4_L18MemLabelIdentifier1ELi16EEEEEEvRT_17TransferMetaFlags
Mac:__Z60Register_UnityEngine_AsyncOperation_set_allowSceneActivationv
jlj:__ZN15dense_hashtableINSt3__24pairIK10KeyWrapperINS1_IPK11Il2CppImageP11Il2CppClassEEEjEES9_17ReflectionMapHashIS8_EN14dense_hash_mapIS9_jSD_NS9_14EqualsComparerINS0_8equal_toIS8_EEEENS0_9allocatorISB_EEE9SelectKeyESI_SK_E12expand_arrayEjN21dense_hash_map_traits17integral_constantIbLb0EEE
kwg:_ObjectManager_RegisterObject_m872610295
O0a:__Z22PrepareOptimizedPlanesPK5PlaneiPKN4math7_float4E
Jei:__Z47RuntimeInvoker_Vector3_t2243707580_Il2CppObjectPK10MethodInfoPvPS2_
x0g:_RectOffset_t3387826427_marshal_pinvoke
_Zd:_Graphic_SetVerticesDirty_m1607014370
o7:__ZN17UniqueIDGenerator15CreatePureIndexEv
cnf:_MD2__ctor_m3133818738
CB:__ZN11UnityEngine9Animation28GenericAnimationBindingCache15DidReloadDomainEv
akf:_AppDomain_InternalGetProcessGuid_m1278588156
q3d:_InputField_MoveRight_m386206014
Kxd:_HashValues_get_Count_m234926373
q7d:_Array_InternalArray__ICollection_Remove_TisIl2CppObject_m2425110446_gshared
Auh:_ScrollRect_set_inertia_m2575649134
F$e:_BinaryReader_ReadBoolean_m2892291883
V_i:__ZN15dense_hashtableINSt3__24pairIK10KeyWrapperIPK22Il2CppGenericParameterEP11Il2CppClassEES6_N6il2cpp5utils11PointerHashIS4_EEN14dense_hash_mapIS6_S9_SE_NS6_14EqualsComparerINS0_8equal_toIS5_EEEENS0_9allocatorISA_EEE9SelectKeyESJ_SL_E14squash_deletedEv
Gzb:__ZNSt3__26__treeINS_12__value_typeIN4core12basic_stringIcNS2_20StringStorageDefaultIcEEEE4PPtrI6ObjectEEENS_19__map_value_compareIS6_SA_NS_4lessIS6_EELb1EEE13stl_allocatorISA_L18MemLabelIdentifier51ELi16EEE7destroyEPNS_11__tree_nodeISA_PvEE
Uxc:__ZNK12b2MouseJoint17GetReactionTorqueEf
qVf:__ZL66DSASignatureDeformatter_t2187578719_CustomAttributesCacheGeneratorP21CustomAttributesCache
zjc:__Z14GUIClipTextureP9Texture2DPhiiii
oCh:_InternalEnumerator_1_Dispose_m1064404287_AdjustorThunk
_Ca:__ZNSt3__26vectorI27ComputeShaderBuiltinSamplerNS_9allocatorIS1_EEE21__push_back_slow_pathIKS1_EEvRT_
W7h:__Z95RuntimeInvoker_Void_t1841601450_ObjectU5BU5DU26_t3223402458_Int32_t2071877448_Int32_t2071877448PK10MethodInfoPvPS2_
Ptf:_TlsServerCertificate_validateCertificates_m1988583701
ZXh:__Z52RuntimeInvoker_DateTime_t693205669_Int16_t4041245914PK10MethodInfoPvPS2_
$Mf:__ZL61DllImportAttribute_t3000813225_CustomAttributesCacheGeneratorP21CustomAttributesCache
K3i:__ZL25UnresolvedVirtualCall_143P12Il2CppObjectaaPK10MethodInfo
v0:__ZNK9Transform18TransformDirectionERK8Vector3f
AMa:__ZNK17ArchiveFileSystem12GetAssetGUIDERK13FileEntryData
_Vb:__ZNSt3__26vectorIN9ShaderLab20SerializedSubProgram15MatrixParameterENS_9allocatorIS3_EEE21__push_back_slow_pathIKS3_EEvRT_
MQg:_GUILayoutEntry_SetHorizontal_m1828181654
Z0j:_emscripten_glClearStencil__wrapper
doh:_EqualityComparer_1_get_Default_m1852501307_gshared
K_h:__Z94RuntimeInvoker_Void_t1841601450_Il2CppObject_ByteU5BU5DU26_t790777611_ByteU5BU5DU26_t790777611PK10MethodInfoPvPS2_
D9i:__ZN15dense_hashtableINSt3__24pairIK10KeyWrapperIPK11Il2CppClassEPKcEES6_N6il2cpp5utils11PointerHashIS3_EEN14dense_hash_mapIS6_S9_SE_NS6_14EqualsComparerINS0_8equal_toIS5_EEEENS0_9allocatorISA_EEE9SelectKeyESJ_SL_E12resize_deltaEjj
WRj:__ZNK10__cxxabiv120__si_class_type_info27has_unambiguous_public_baseEPNS_19__dynamic_cast_infoEPvi
bWe:_NumberFormatInfo_get_PercentNegativePattern_m1162448153
rOf:__ZL56SyncHashtable_t1343674558_CustomAttributesCacheGeneratorP21CustomAttributesCache
Cbj:__ZN6il2cpp2vm21ThreadPoolCompartment13QueueWorkItemEP17Il2CppAsyncResult
XBb:__ZN24RingBufferMemoryFileData9SetLengthEy
HVj:_glTexSubImage3D__wrapper
TGf:_FactoryCache_Add_m2602974721
UOa:__Z21WriteImageAsyncThreadPv
s6:__ZL16GetInterfaceImpl18UnityInterfaceGUID
Y$i:__ZN6il2cpp2vmL17SetupFieldOffsetsENS0_15FieldLayoutKindEP11Il2CppClassjRKNSt3__26vectorIjNS4_9allocatorIjEEEE
LEe:_Collection_1_GetEnumerator_m2816357893_gshared
Y8f:__ZL105RectTransform_t3349966182_CustomAttributesCacheGenerator_RectTransform_INTERNAL_get_anchorMin_m3180545469P21CustomAttributesCache
bqe:_List_1_System_Collections_IList_get_Item_m936612973_gshared
hU:__ZN13EmscriptenWWW7GetSizeEv
QEj:__ZN6il2cpp6icalls8mscorlib6System15MonoCustomAttrs27GetCustomAttributesInternalEP12Il2CppObjectP20Il2CppReflectionTypeb
aXc:_UNITY_TT_Set_MM_Blend
uwg:_ObjectReader_ReadAssembly_m869834280
Yjb:__ZN22RenderingCommandBufferD0Ev
MQe:_ReadOnlyCollection_1_System_Collections_IList_get_Item_m1831743662_gshared
$Je:_Collection_1_IsSynchronized_m971497175_gshared
q_:__ZNK18ScriptingObjectPtr17ToScriptingStringEv
wQd:_ExecuteEvents_Execute_m1617536317
ayh:_Text_get_cachedTextGeneratorForLayout_m1357670532
yI:__ZL31InitializeAudioScriptingClassesv
pTa:__Z14SortGUIByDepthP10GUIElementS0_
EYe:_NumberFormatter_NumberToString_m126384393
zZj:_emscripten_glVertexAttrib4fv__wrapper
y6:__ZN13RuntimeStaticI13dynamic_arrayIPK31TransferFunctionScriptingTraitsLj4EELb0EE16StaticInitializeEPv
Izi:_LogicalCallContext__ctor_m3173272863
eri:_AnimatorControllerPlayable_IsParameterControlledByCurveString_m4036987523
M6e:_MonoCustomAttrs__cctor_m2608447972
rYe:_Int32_FindSign_m3803672540
UNh:_Enumerator_System_Collections_IEnumerator_Reset_m70453843_AdjustorThunk
WSg:_GUISkin_get_scrollView_m2941173958
vX:__ZNK20LocalFileSystemPosix21GetAvailableDiskSpaceEPKcRy
faa:__ZNSt3__26__treeIiNS_4lessIiEENS_9allocatorIiEEE7destroyEPNS_11__tree_nodeIiPvEE
vSi:_Predicate_1__ctor_m2995226103_gshared
r8e:_MonoType_get_TypeHandle_m3750614457
ADf:_X509Certificate2__ctor_m1095336775
mua:__ZNK9GfxDevice14GetWorldMatrixEv
_Mg:_MonoProperty_GetGetMethod_m1100580870
Djh:_Dictionary_2__ctor_m1950568359_gshared
iEj:__ZN15dense_hashtableINSt3__24pairIK10KeyWrapperIPK19Il2CppGenericMethodEP10MethodInfoEES6_N6il2cpp8metadata23Il2CppGenericMethodHashEN14dense_hash_mapIS6_S9_SD_NS6_14EqualsComparerINSC_26Il2CppGenericMethodCompareEEENS0_9allocatorISA_EEE9SelectKeyESH_SJ_E13set_empty_keyERKSA_
$Va:__Z19scripting_array_new17ScriptingClassPtrjj
nN:__ZN11SoundHandle13CreateChannelEb
Nob:__ZN14SafeBinaryRead21TransferSTLStyleArrayI13dynamic_arrayI12LightmapDataLj4EEEEvRT_17TransferMetaFlags
ukf:_ArgumentException__ctor_m3312963299
Mfb:__ZN21AssetBundleFileSystem11CreateAsDirER13FileEntryData
qTb:__ZNSt3__26vectorIN9ShaderLab20SerializedSubProgram16TextureParameterENS_9allocatorIS3_EEE6assignIPS3_EENS_9enable_ifIXaasr21__is_forward_iteratorIT_EE5valuesr16is_constructibleIS3_NS_15iterator_traitsISA_E9referenceEEE5valueEvE4typeESA_SA_
NPe:_ReadOnlyCollection_1_get_Item_m1696267180_gshared
DBj:__ZNSt3__26vectorIN6il2cpp2os10ThreadImpl10APCRequestENS_9allocatorIS4_EEE26__swap_out_circular_bufferERNS_14__split_bufferIS4_RS6_EE
jRi:_U3CCreateWhereIteratorU3Ec__Iterator1D_1_MoveNext_m3533253043_gshared
Knj:__ZN15dense_hashtableINSt3__24pairIK10KeyWrapperIPK22Il2CppGenericParameterEPK24MonoGenericParameterInfoEES6_N6il2cpp5utils11PointerHashIS4_EEN14dense_hash_mapIS6_SA_SF_NS6_14EqualsComparerINS0_8equal_toIS5_EEEENS0_9allocatorISB_EEE9SelectKeyESK_SM_E15set_deleted_keyERKSB_
wEh:_InternalEnumerator_1_System_Collections_IEnumerator_Reset_m2726857860_AdjustorThunk
Vdg:__ZL124GUILayoutUtility_t996096873_CustomAttributesCacheGenerator_GUILayoutUtility_INTERNAL_CALL_Internal_GetWindowRect_m3236664463P21CustomAttributesCache
wGf:_X509SubjectKeyIdentifierExtension__ctor_m3887138480
wme:_Enumerator_System_Collections_IEnumerator_get_Current_m2853089017_AdjustorThunk
dzc:__ZN12b2WheelJoint24SolvePositionConstraintsERK12b2SolverData
Og:_emscripten_exit_fullscreen
o1d:_InputField_get_mesh_m3276583786
Fui:_GCHandle_Free_m1639542352_AdjustorThunk
zsf:_Context_set_ClientRandom_m631392719
Wui:_OutAttribute__ctor_m1447235100
nBj:__ZN6il2cpp6icalls8mscorlib6System6String19InternalAllocateStrEi
buc:__Z29Transfer_Blittable_ArrayFieldI8JSONRead11QuaternionfEvRT_R9ArrayInfoRK23StaticTransferFieldInfo
QTf:__ZL65SoapParameterAttribute_t2780084514_CustomAttributesCacheGeneratorP21CustomAttributesCache
ZW:__ZN20LocalFileSystemPosix8SetFlagsER13FileEntryDatajj
Bbc:__Z45Register_UnityEngine_Camera_get_targetDisplayv
I1b:__ZNK24RendererAnimationBinding15GenerateBindingERKN4core12basic_stringIcNS0_20StringStorageDefaultIcEEEEbRN11UnityEngine9Animation14GenericBindingE
Kjb:__Z15GetFlareManagerv
JYb:__ZN15ApplicationInfo24GetApplicationIdentifierEv
xPe:_ReadOnlyCollection_1_System_Collections_IList_Contains_m927375828_gshared
icb:__ZN9Behaviour8TransferI18StreamedBinaryReadILb0EEEEvRT_
UAi:_Enumerator_System_Collections_IEnumerator_get_Current_m1429268283
WLe:_ReadOnlyCollection_1_System_Collections_Generic_ICollectionU3CTU3E_Clear_m388357963_gshared
jOj:___toread
tT:__ZN19CloudServiceHandler10QueueEventEPN11UnityEngine15CloudWebService14CloudEventInfoE
xSj:___cxa_is_pointer_type
Kid:_String_Concat_m56707527
xu:__ZN7mecanim9animation16EvaluateAvatarDXEPKNS0_14AvatarConstantEPKNS0_11AvatarInputEPNS0_12AvatarMemoryEPNS0_15AvatarWorkspaceEPNS0_12AvatarOutputE
_Da:__ZN4gles20DestroyRenderSurfaceEP7ApiGLESP17RenderSurfaceGLES
vme:_Enumerator_System_Collections_IEnumerator_get_Current_m2853089017_gshared
_hc:__Z34Transform_CUSTOM_SetAsFirstSiblingP12Il2CppObject
Eij:__ZNK15dense_hashtableINSt3__24pairIK10KeyWrapperINS1_IPK14Il2CppAssemblyP11Il2CppClassEEEjEES9_17ReflectionMapHashIS8_EN14dense_hash_mapIS9_jSD_NS9_14EqualsComparerINS0_8equal_toIS8_EEEENS0_9allocatorISB_EEE9SelectKeyESI_SK_E10test_emptyEj
Foe:_Enumerator_get_Current_m827571811_AdjustorThunk
qcg:__ZL62Font_t4239498691_CustomAttributesCacheGenerator_textureRebuiltP21CustomAttributesCache
xia:__ZN17PersistentManager40GlobalToLocalSerializedFileIndexInternalERK26SerializedObjectIdentifier
fR:__ZN11UnityEngine15CloudWebService17SessionEventQueue14ParseEventDataERKN4core12basic_stringIcNS2_20StringStorageDefaultIcEEEE
hOd:_BaseEventData_get_selectedObject_m3551206992
gbf:_SimpleCollator_CompareOrdinal_m2176988387
hhg:__ZL47Rect_t3681755626_CustomAttributesCacheGeneratorP21CustomAttributesCache
IMd:_CCGregorianCalendar_GetYear_m1289900195
M3h:__Z441RuntimeInvoker_Boolean_t3825574718_Il2CppObject_Il2CppObject_Il2CppObject_ColorU26_t3402129837_Int32_t2071877448_Single_t2076509932_Single_t2076509932_Int32_t2071877448_SByte_t454417549_SByte_t454417549_Int32_t2071877448_Int32_t2071877448_Int32_t2071877448_Int32_t2071877448_SByte_t454417549_Int32_t2071877448_Single_t2076509932_Single_t2076509932_Single_t2076509932_Single_t2076509932_SByte_t454417549_SByte_t454417549_UInt32U26_t2197289955PK10MethodInfoPvPS2_
CYe:_Int16_ToString_m2592645088
Sya:__ZN13TranslateGLES4InitERK12GraphicsCaps16GfxDeviceLevelGL
PQb:__Z29Transfer_Blittable_ArrayFieldI18StreamedBinaryReadILb0EE10ColorRGBAfEvRT_R9ArrayInfoRK23StaticTransferFieldInfo
Vxg:_SerializationInfoEnumerator_Reset_m2206466680
Xai:__Z48RuntimeInvoker_Void_t1841601450_Slot_t2267560602PK10MethodInfoPvPS2_
_Na:__ZZ23InitPlayerLoopCallbacksvEN33PostLateUpdateInputEndFramestruct7ForwardEv
x2c:__Z32CustomEventData_CUSTOM_AddUInt32P12Il2CppObjectP12Il2CppStringj
Idg:__ZL78Event_t3028476042_CustomAttributesCacheGenerator_Event_get_keyCode_m3364681288P21CustomAttributesCache
_Zi:_GenericEqualityComparer_1_Equals_m1934771410_gshared
COf:__ZL57DebuggingModes_t2073970606_CustomAttributesCacheGeneratorP21CustomAttributesCache
SBb:__ZN24RingBufferMemoryFileDataD0Ev
KGe:_Collection_1_System_Collections_IList_get_IsFixedSize_m993584401_gshared
kAb:__ZNSt3__26vectorIN30RuntimeInitializeOnLoadManager15ClassMethodInfoE13stl_allocatorIS2_L18MemLabelIdentifier12ELi16EEE8__appendEj
v$b:__ZN13ProduceHelperI10TagManagerLb0EE7ProduceE18MemLabelIdentifier18ObjectCreationMode
M_h:__Z84RuntimeInvoker_Il2CppObject_Il2CppObject_Il2CppObject_Il2CppObject_Int32_t2071877448PK10MethodInfoPvPS2_
mMj:__ZN6il2cpp2os6Memory12AlignedAllocEjj
WHh:_InternalEnumerator_1__ctor_m691972083_gshared
XFj:__ZN6il2cpp8metadataL7CompareEPK10Il2CppTypeS3_
EIb:__Z18Transfer_BlittableI17RemapPPtrTransferLb0E11ColorRGBA32EvRK29SerializationCommandArgumentsR31RuntimeSerializationCommandInfo
B4f:__ZL84GameObject_t1756533147_CustomAttributesCacheGenerator_GameObject_get_tag_m1425941094P21CustomAttributesCache
fPg:_GameObject_set_layer_m2712461877
mof:_RSAManaged__ctor_m1370411656
rPb:__Z18Transfer_BlittableI18StreamedBinaryReadILb0EELb1E10ColorRGBAfEvRK29SerializationCommandArgumentsR31RuntimeSerializationCommandInfo
Lmb:__ZN12CubemapArray23VirtualRedirectTransferER17RemapPPtrTransfer
A8b:__ZL27GetComponentsImplementationILb0ELi0EEbR10GameObjectbRK17CompareParametersRK39GetComponentsImplementation_ReturnValue
NBf:_WebHeaderCollection_GetObjectData_m3940120977
vDb:__ZN9Scripting36IsSystemCollectionsGenericDictionaryE17ScriptingClassPtr
Xsh:_Raycast3DCallback_EndInvoke_m3234280377
UDi:_BalancingGroup__ctor_m2474435406
SWd:_ColorTweenCallback__ctor_m3619686788
H4:__ZL16ReadTypeTreeImplILb0EEbR8TypeTreeRK16TypeTreeIteratorRPKhS6_i
zqd:_Byte_System_IConvertible_ToInt32_m1032609763_AdjustorThunk
kWb:__ZN9ShaderLab7ProgramD0Ev
Llb:__ZNK22BuiltinResourceManager21GetResourceInstanceIDEPKN5Unity4TypeERKN4core12basic_stringIcNS4_20StringStorageDefaultIcEEEE
Cwa:__ZN9GfxDevice15BeginFrameStatsEv
Mcc:__Z42Register_UnityEngine_RectOffset_set_bottomv
Ntd:_ArrayListWrapper_IndexOf_m3574835167
Ulc:__Z28GUIStyleState_CUSTOM_CleanupP12Il2CppObject
kWa:__ZN28LightProbeProxyVolumeContext8CopyFromERKS_
nte:_List_1_Remove_m2660527978_gshared
JUd:_U3COnFinishSubmitU3Ec__Iterator0_System_Collections_Generic_IEnumeratorU3CobjectU3E_get_Current_m1823105495
H3a:__ZN23TransformChangeDispatch32QueueTransformChangeIfHasChangedER18TransformHierarchy
scd:_SymmetricAlgorithm_get_FeedbackSize_m544664262
b$a:__ZN18DeferredRenderLoop15RenderFinalPassEP13RenderTextureS1_
$Da:__ZN7ApiGLES18DeleteRenderbufferERj
VCa:__ZL23ProgramUniformMatrix4fvPK7ApiGLESjiihPKv
cYf:__ZL67ThreadInterruptedException_t63303933_CustomAttributesCacheGeneratorP21CustomAttributesCache
vIh:_InternalEnumerator_1_MoveNext_m3629145604_gshared
_Sb:__ZN9ShaderLab20SerializedSubProgram15MatrixParameter8TransferI14SafeBinaryReadEEvRT_
oYe:_Int32_Parse_m124693431
C8b:__ZL27GetComponentsImplementationILb0ELi1EEbR10GameObjectbRK17CompareParametersRK39GetComponentsImplementation_ReturnValue
cWc:_Round_Down_To_Grid
r4g:_UTF8Decoder__ctor_m1460357288
qea:__ZN13RenderTexture7ReleaseEv
bvb:__ZN10MeshFilter23VirtualRedirectTransferER14SafeBinaryRead
Z_a:__ZN19ShaderPropertySheet26SetTextureWithExplicitSizeEN9ShaderLab16FastPropertyNameE9TextureIDiiff
eAd:_Convert_ToByte_m1201588964
lvb:__ZN12MeshRenderer17MainThreadCleanupEv
Aac:__Z36AsyncOperation_Get_Custom_PropIsDoneP12Il2CppObject
KGa:__ZN22CreateGpuProgramOutput12CreateParamsEv
uyg:_RuntimeMethodHandle_GetHashCode_m2682236001_AdjustorThunk
Bvi:_ActivationServices_AllocateUninitializedClassInstance_m3410698501
nhj:__ZNSt3__26vectorIiNS_9allocatorIiEEE21__push_back_slow_pathIiEEvOT_
Iya:__ZNK14GfxContextGLES13GetDefaultFBOEv
vWi:_ObjStatsCorrect_Update_m4034391760
A7d:_Array_InternalArray__ICollection_Remove_TisSByte_t454417549_m2474211570_gshared
ped:_Evidence_get_IsSynchronized_m1427392003
hba:__ZN14GraphicsHelper5ClearE13GfxClearFlagsRK10ColorRGBAffjR17ShaderPassContext
Cfj:_il2cpp_class_is_enum
krj:__ZN6il2cpp2vm6Thread49CheckCurrentThreadForInterruptAndThrowIfNecessaryEv
Ike:_GameObject_AddComponent_TisIl2CppObject_m3813873105_gshared
vga:__ZNSt3__23mapIN9ShaderLab16FastPropertyNameEN18UnityPropertySheet11UnityTexEnvENS_4lessIS2_EENS_9allocatorINS_4pairIKS2_S4_EEEEEixERS9_
xta:__ZNK13TranslateGLES25GetTextureTargetDimensionEj
p2d:_InputField_SetToCustom_m250029371
cfe:_Array_InternalArray__set_Item_TisByte_t3683104436_m1694926640_gshared
nHe:_Collection_1_System_Collections_IList_Contains_m1897568526_gshared
OGg:_FieldBuilder_get_FieldType_m2267463269
Wnd:_SimpleEnumerator_Clone_m3032847657
HBi:_PatternCompiler_EmitInfo_m597931026
Dlf:_ModulusRing_Multiply_m3113924743
phc:__Z47Texture2D_CUSTOM_INTERNAL_CALL_GetPixelBilinearP12Il2CppObjectffR10ColorRGBAf
msf:_Context_get_ServerSettings_m225713600
Ni:_emscripten_glVertexAttrib4f
oTi:_InvokableCall_1_remove_Delegate_m3576859071_gshared
ALe:_ReadOnlyCollection_1_System_Collections_IEnumerable_GetEnumerator_m531171980_gshared
KVb:__ZNSt3__26vectorIN20GpuProgramParameters14ConstantBufferENS_9allocatorIS2_EEE8__appendEj
Ihe:_Array_Sort_TisUILineInfo_t3621277874_m3105833015_gshared
u8e:_MonoType_GetGenericArguments_m2708198481
BUa:__ZN11HaloManager21ReleaseGeometryJobMemEP25DynamicVBOGeometryJobData
hqe:_List_1_AddEnumerable_m2489692396_gshared
icg:__ZL93TextGenerator_t647235000_CustomAttributesCacheGenerator_TextGenerator_Dispose_cpp_m1755131202P21CustomAttributesCache
VPi:_WaitForSecondsRealtime__ctor_m1734539010
K4g:_WaitHandle__ctor_m1256161634
zza:__ZN4gles10SetTextureER15DeviceStateGLESjjj19BuiltinSamplerState
Hwa:__ZN9GfxDevice18SetGlobalDepthBiasEff
yyi:_Identity_get_ChannelSink_m3989446673
Rcj:__ZN6il2cpp6icalls8mscorlib6System8MonoType12get_AssemblyEP20Il2CppReflectionType
BZd:_FontData_get_richText_m2013560754
Afd:_SecurityException_get_PermissionType_m3543350822
_i:_emscripten_glGetPointerv
ju:__ZN8Animator22ApplyBuiltinRootMotionEv
iwj:__ZN15dense_hashtableI10KeyWrapperIP18Il2CppGenericClassES3_N6il2cpp8metadata22Il2CppGenericClassHashEN14dense_hash_setIS3_S6_NS3_14EqualsComparerINS5_25Il2CppGenericClassCompareEEENSt3__29allocatorIS3_EEE8IdentityESA_SD_E5clearEv
l$h:__Z74RuntimeInvoker_Boolean_t3825574718_Il2CppObject_IPv6AddressU26_t2456310193PK10MethodInfoPvPS2_
jqb:__ZN8Renderer23VirtualRedirectTransferER14SafeBinaryRead
DFg:_DerivedType_get_UnderlyingSystemType_m3904230233
pRd:_PointerEventData_get_rawPointerPress_m448871540
RUh:__Z135RuntimeInvoker_IntPtr_t_Il2CppObject_Int32_t2071877448_Int32_t2071877448_Int32_t2071877448_Int32_t2071877448_MonoIOErrorU26_t1029615899PK10MethodInfoPvPS2_
VSa:__Z27ConvertSubMeshesToTrianglesR13dynamic_arrayI7SubMeshLj4EERS_ItLj2EE
T$i:__ZN6il2cpp2vmL15GetBitmapNoInitEP11Il2CppClassPjRjj
xab:__ZL13MotionHandleriPK27EmscriptenDeviceMotionEventPv
_Ef:_X509Certificate2Collection__ctor_m819526826
j8f:__ZL114PlayableHandle_t1502856514_CustomAttributesCacheGenerator_PlayableHandle_INTERNAL_CALL_IsValidInternal_m2792360706P21CustomAttributesCache
$H:__ZN12AudioManager5ResetEv
Qmf:_KeyBuilder_Key_m3814433741
vkf:_ArgumentException__ctor_m158205422
iae:_Array_compare_TisVector3_t2243707580_m3709184876_gshared
T$d:_HorizontalLayoutGroup_SetLayoutHorizontal_m3237355818
au:__ZN7mecanim5human14RetargetToTDoFEPKNS0_5HumanEPNS0_9HumanPoseEPNS_8skeleton13SkeletonPoseTIN4math4trsXEEESB_
lrg:__ZL62GameManager_t2252321495_CustomAttributesCacheGenerator_UItimerP21CustomAttributesCache
$og:__ZL60AspectRatioFitter_t3114550109_CustomAttributesCacheGeneratorP21CustomAttributesCache
By:__ZN7mecanim5human18HumanPoseBlendNodeERNS0_9HumanPoseEPS1_f
URc:_UNITY_FT_RoundFix
TVb:__ZN9ShaderLab20SerializedSubProgram15AddTextureParamEPKcii16TextureDimension
Rr:__ZNK8Animator26GetTypeInfoVirtualInternalEv
rQ:__ZN23CloudWebServicesManager23VirtualRedirectTransferER17RemapPPtrTransfer
KDe:__ZN21InterfaceFuncInvoker1Ib40CustomAttributeTypedArgument_t1498197914E6InvokeEjP11Il2CppClassP12Il2CppObjectS0_
IFi:_Uri_get_Parser_m2250631932
foi:_Event_GetHashCode_m2214628668
k2i:__ZL24UnresolvedVirtualCall_63P12Il2CppObjectS0_S0_S0_PK10MethodInfo
TZd:_Graphic_set_color_m646149893
zkh:_Dictionary_2_System_Collections_ICollection_get_IsSynchronized_m960517203_gshared
Pga:__ZN14SafeBinaryRead19TransferSTLStyleMapINSt3__23mapIN4core12basic_stringIcNS3_20StringStorageDefaultIcEEEES7_NS1_4lessIS7_EE13stl_allocatorINS1_4pairIKS7_S7_EEL18MemLabelIdentifier1ELi16EEEEEEvRT_17TransferMetaFlags
q9g:_Type_MakeByRefType_m1323101575
SZc:__ZN2UI6Canvas27UpdateEventIndexesRecursiveERi
yx:__ZN7mecanim9animation18EvaluateRootMotionERKNS0_18ClipMuscleConstantERKNS0_15ClipMuscleInputEPKfS8_RNS0_12MotionOutputEb
lR:__ZN11UnityEngine15CloudWebService16SessionContainer21PrepareDataErrorEventERN4core12basic_stringIcNS2_20StringStorageDefaultIcEEEE
VNc:_UNITY_FT_Outline_New
gEj:__ZNSt3__218uninitialized_copyIPNS_4pairIK10KeyWrapperIPK19Il2CppGenericMethodEP10MethodInfoEESB_EET0_T_SD_SC_
Odg:__ZL85GUI_t4082743951_CustomAttributesCacheGenerator_GUI_set_nextScrollStepTime_m2724006954P21CustomAttributesCache
nMb:__Z19TransferField_ArrayI19StreamedBinaryWriteILb0EE27Converter_SimpleNativeClassI8GUIStyleEEvRK23StaticTransferFieldInfoR31RuntimeSerializationCommandInfoRT0_
VKi:_SpriteRenderer_SetSprite_INTERNAL_m2338909670
w2f:__ZL101AssetBundleRequest_t2674559435_CustomAttributesCacheGenerator_AssetBundleRequest_get_asset_m624603186P21CustomAttributesCache
jW:__ZNK13ScreenManager12GetIsFocusedEv
Mog:__ZL70SpriteState_t1353336012_CustomAttributesCacheGenerator_m_PressedSpriteP21CustomAttributesCache
Kug:_RemotingServices_RegisterInternalChannels_m1827304423
ATg:_GUIStyle_get_onNormal_m1675201777
mr:__ZL32CleanupAnimationScriptingClassesv
rbj:__ZNSt3__213__vector_baseIN6il2cpp2os19SocketHandleWrapperENS_9allocatorIS3_EEED2Ev
Mdf:_ASN1_get_Length_m3359111015
QSg:_GUISkin_get_verticalScrollbarThumb_m649633186
xVg:_GUIStyleState_Cleanup_m705006206
ic:invoke_viiffi
c7a:__ZN13sorted_vectorINSt3__24pairIN4core12basic_stringIcNS2_20StringStorageDefaultIcEEEEPK17MessageIdentifierEEN10vector_mapIS6_S9_NS0_4lessIS6_EENS0_9allocatorISA_EEE13value_compareESF_E10insert_oneERKSA_
hu:__ZNSt3__227__insertion_sort_incompleteIRPFbPKN8Animator11AnimatorJobES4_EPS4_EEbT0_S9_T_
A5g:_Thread_GetCachedCurrentUICulture_m5590127
Imb:__ZNK12CubemapArray20GetRuntimeMemorySizeEv
dPi:_Vector3_Dot_m3161182818
lwi:_CrossAppDomainSink_get_TargetDomainId_m775204051
PTb:__Z14resize_trimmedINSt3__26vectorIN9ShaderLab18SerializedPropertyENS0_9allocatorIS3_EEEEEvRT_j
Z3i:__ZL25UnresolvedVirtualCall_158P12Il2CppObject18Color32_t874517518PK10MethodInfo
Mze:_List_1_CheckMatch_m4018158235_gshared
P9h:__Z91RuntimeInvoker_Int32_t2071877448_UICharInfo_t3056636800_UICharInfo_t3056636800_Il2CppObjectPK10MethodInfoPvPS2_
Jbf:_Context_t2636657155_marshal_pinvoke_back
l9i:__ZN6il2cpp2vm13MetadataCache38GetMethodInfoFromMethodDefinitionIndexEi
mqd:_Byte_System_IConvertible_ToDateTime_m1583041031
p2i:__ZL24UnresolvedVirtualCall_68P12Il2CppObjectS0_iS0_S0_S0_S0_S0_S0_PK10MethodInfo
esb:__ZN10VertexData8TransferI24GenerateTypeTreeTransferEEvRT_
wdg:__ZL98CanvasRenderer_t261436805_CustomAttributesCacheGenerator_CanvasRenderer_get_absoluteDepth_m4243141P21CustomAttributesCache
NDj:__ZN13Il2CppHashMapIPK19Il2CppGenericMethodP10MethodInfoN6il2cpp8metadata23Il2CppGenericMethodHashENS6_26Il2CppGenericMethodCompareENSt3__29allocatorINS9_4pairIK10KeyWrapperIS2_ES4_EEEEEC2EjRKS7_RKS8_
Dhf:_EncryptedData_get_EncryptionAlgorithm_m1301274243
roh:_EqualityComparer_1_System_Collections_IEqualityComparer_Equals_m1089835085_gshared
o0a:__ZL10CullLightsRK22SceneCullingParametersR11CullResults
ZYd:_Dropdown__cctor_m264401557
Zbi:__Z94RuntimeInvoker_Void_t1841601450_Int32U5BU5DU26_t1341332175_Int32_t2071877448_Int32_t2071877448PK10MethodInfoPvPS2_
nnd:_Array_IndexOf_m2819632474
TMh:_Comparer_1__cctor_m3996541505_gshared
ez:__ZN7mecanim12statemachine20GetBlendTreeConstantERKNS0_13StateConstantEi
B4b:__Z40GetTemporaryCachePathApplicationSpecificv
Uua:__ZN9GfxDevice16EndAsyncJobFrameEv
$0d:_Image_get_minWidth_m1809071077
Vlj:__ZNK15dense_hashtableINSt3__24pairIK10KeyWrapperINS1_IPK12PropertyInfoP11Il2CppClassEEEjEES9_17ReflectionMapHashIS8_EN14dense_hash_mapIS9_jSD_NS9_14EqualsComparerINS0_8equal_toIS8_EEEENS0_9allocatorISB_EEE9SelectKeyESI_SK_E10test_emptyERK30dense_hashtable_const_iteratorISB_S9_SD_SM_SI_SK_E
POc:_UNITY_tt_face_load_hhea
OBb:__ZN24RingBufferMemoryFileData11SetGrowableEb
Ooi:_PersistentCall__ctor_m2079279187
Ezd:_Convert_ToBase64String_m1936815455
Tk:___syscall3
Wk:___syscall6
iwa:__ZN9GfxDevice15GetNextCPUFenceEv
Yk:___syscall4
vId:_Decimal_ToString_m759431975
eIe:_Collection_1_System_Collections_IList_get_IsFixedSize_m2204750039_gshared
iWi:_GarbageScoring_Start_m317816287
IUd:_ColorBlock_get_fadeDuration_m987725262
mng:__ZL195U3CMouseDragOutsideRectU3Ec__Iterator1_t2599668326_CustomAttributesCacheGenerator_U3CMouseDragOutsideRectU3Ec__Iterator1_System_Collections_Generic_IEnumeratorU3CobjectU3E_get_Current_m2602955272P21CustomAttributesCache
Fxj:__ZN6il2cpp2vm3RCW14QueryInterfaceILb1EEEP14Il2CppIUnknownP15Il2CppComObjectRK10Il2CppGuid
Jzg:_CryptographicException__ctor_m2415891459
tEc:__ZNSt3__26__sortIR24RayHitsByDepthComparitorP12RaycastHit2DEEvT0_S5_T_
evc:__ZN27PerformanceReportingManager23VirtualRedirectTransferER14SafeBinaryRead
Ute:_List_1_AddCollection_m3266731889_gshared
N8b:__ZN9Scripting25BroadcastScriptingMessageER10GameObjectPKc18ScriptingObjectPtr
ll:_emscripten_glShaderBinary
FEe:_Collection_1_System_Collections_IList_set_Item_m150887383_gshared
vge:_Array_qsort_TisVector2_t2243707579_TisVector2_t2243707579_m3308480721_gshared
pmd:_Array_InternalArray__RemoveAt_m1126483634
Qji:_Camera_INTERNAL_CALL_RaycastTry_m1030092423
kX:__ZNK20LocalFileSystemPosix6ExistsERK13FileEntryData
wFh:_InternalEnumerator_1_Dispose_m4038440306_AdjustorThunk
b$g:_RangeInt_get_end_m913869897
Ryf:_DictionaryNodeEnumerator_get_DictionaryNode_m3521889822
Pu:__ZN7mecanim5human19MaskHasLeftFootGoalERKNS_6bitsetILj70EEE
uYg:_Mesh_get_colors32_m4153271224
NFc:__ZNK17Physics2DSettings26GetTypeInfoVirtualInternalEv
k1c:__Z58Register_UnityEngine_Canvas_GetETC1SupportedCanvasMaterialv
n_g:_Physics2D_INTERNAL_CALL_GetRayIntersectionAll_m161475998
qOb:__ZN17AnimationCurveTplIfE8TransferI18StreamedBinaryReadILb1EEEEvRT_
FGd:_DateTimeOffset_GetHashCode_m3312197462_AdjustorThunk
S4c:__ZN18UnityConnectClientD2Ev
tBf:_ServicePoint_set_UseNagleAlgorithm_m2618011464
Vej:_il2cpp_set_data_dir
DFi:_Uri_get_IsUnc_m2111738174
$gb:__ZN16LevelGameManager23VirtualRedirectTransferER19StreamedBinaryWriteILb0EE
asb:__Z32TransferEnumWithNameForceIntSizeI14SafeBinaryRead16GfxPrimitiveTypeEvRT_RT0_PKc17TransferMetaFlags
BLh:_DefaultComparer__ctor_m1961329658_gshared
iJg:_ParameterBuilder_get_Attributes_m2421099277
XMi:_TouchScreenKeyboard_get_done_m406461410
$Ki:_DataUtility_INTERNAL_CALL_GetPadding_m1621366113
ilj:__ZN15dense_hashtableINSt3__24pairIK10KeyWrapperINS1_IPK11Il2CppImageP11Il2CppClassEEEjEES9_17ReflectionMapHashIS8_EN14dense_hash_mapIS9_jSD_NS9_14EqualsComparerINS0_8equal_toIS8_EEEENS0_9allocatorISB_EEE9SelectKeyESI_SK_E5clearEv
z4i:__ZL25UnresolvedVirtualCall_186P12Il2CppObject20TimeSpan_t3430258949PK10MethodInfo
b4c:__ZN11UnityEngine15PlatformWrapper30GetGraphicsDriverLibraryStringEv
Acg:__ZL51UIVertex_t1204258818_CustomAttributesCacheGeneratorP21CustomAttributesCache
uOi:_Vector2_ToString_m775491729
uue:_List_1_get_Count_m1752597149_gshared
Ynf:_EncryptedPrivateKeyInfo_Decode_m1706190306
sPb:__Z18Transfer_BlittableI18StreamedBinaryReadILb0EELb0E4AABBEvRK29SerializationCommandArgumentsR31RuntimeSerializationCommandInfo
MDd:_Convert_ToUInt16_m1665900934
cTe:_Converter_2_BeginInvoke_m898151494_gshared
B2a:__Z14DrawGUITextureRK5RectTIfEP7Texture11ColorRGBA32P8Materiali
hyh:_Text_get_supportRichText_m3291105891
h1g:_RectTransform_GetParentSize_m1571597933
_s:__ZN9BlobWrite8TransferI22OffsetPtrArrayTransferIKN4math7_float4EEEEvRT_PKc17TransferMetaFlags
SQe:_ReadOnlyCollection_1_get_Count_m336636247_gshared
Jvc:__ZNK11b2EdgeShape7RayCastEP15b2RayCastOutputRK14b2RayCastInputRK11b2Transformi
tRh:__Z52RuntimeInvoker_Decimal_t724701077_Double_t4078015681PK10MethodInfoPvPS2_
RAi:_MatchCollection_GetEnumerator_m3516985966
zrc:__ZN9JSONWrite8TransferI4AABBEEvRT_PKc17TransferMetaFlags
A3g:_UTF7Encoding__ctor_m2365939916
BKa:__ZN25MultiBlocksMemoryFileData9SetLengthEy
aN:__Z30GetAudioSpatializerDefinitionsR13dynamic_arrayIP29AudioEffectInternalDefinitionLj4EE
K_g:_Quaternion_Set_m1917191631_AdjustorThunk
KLi:_TextGenerationSettings_Equals_m3944651893_AdjustorThunk
arh:_MatEntry__ctor_m3650167335
w6h:__Z143RuntimeInvoker_Void_t1841601450_Il2CppObject_Vector2_t2243707579_Vector2_t2243707579_Color32_t874517518_Vector2_t2243707579_Vector2_t2243707579PK10MethodInfoPvPS2_
EYi:_ListPool_1_U3Cs_ListPoolU3Em__0_m441310157_gshared
jAc:__ZN10Collider2D13AwakeFromLoadE17AwakeFromLoadMode
qAb:__ZNSt3__26vectorIN30RuntimeInitializeOnLoadManager9ClassInfoE13stl_allocatorIS2_L18MemLabelIdentifier12ELi16EEE8__appendEj
qnb:__ZNK9Texture2D20GetRuntimeMemorySizeEv
w9g:_TypeInitializationException__ctor_m2993591639
Wnh:_EqualityComparer_1__ctor_m3788663378_gshared
um:_emscripten_glUniform2iv
kVf:__ZL46DES_t1353513560_CustomAttributesCacheGeneratorP21CustomAttributesCache
PXe:_Int16_System_IConvertible_ToInt64_m733340257
EZf:__ZL79Convert_t2607082565_CustomAttributesCacheGenerator_Convert_ToSingle_m2156102599P21CustomAttributesCache
MKc:_UNITY_FT_Outline_Transform
gTg:_SkinChangedDelegate_BeginInvoke_m4259161711
jhc:__Z60Register_UnityEngine_Sprites_DataUtility_Internal_GetMinSizev
k0i:__ZN6il2cpp2vm5Class10GetMethodsEP11Il2CppClassPPv
H$g:_Rect_get_x_m1393582490_AdjustorThunk
cYa:__Z30AddDefaultStreamsToMeshBuffersR9GfxDeviceR11MeshBuffersRK16DrawBuffersRange17ShaderChannelMaskS6_
cMf:__ZL65Il2CppArray_CustomAttributesCacheGenerator_Array_Sort_m3500510484P21CustomAttributesCache
Ded:_Hash_GetObjectData_m315532943
bza:__ZN7ApiGLES17DeleteFramebufferERN2gl6HandleILNS0_10ObjectTypeE9EEES3_
$$i:__ZN13dynamic_arrayIP11Il2CppClassLj4EE7reserveEj
PFa:__ZN15UniformTFMethod13MapBoneBufferEj
jrf:_RecordProtocol_SendAlert_m2816808523
UYc:__ZN2UI14CanvasRendererD2Ev
Wzi:_MethodCall_get_LogicalCallContext_m3769562079
Krj:__ZN6il2cpp6icalls8mscorlib6System5Array8SetValueEP11Il2CppArrayP12Il2CppObjectS5_
Q4e:_SynchronizedReader_Read_m1399666181
ALg:_MonoEvent_get_Name_m2796714646
laa:__Z9SetupArgviPPKc
q9d:_Array_InternalArray__IEnumerable_GetEnumerator_TisHitInfo_t1761367055_m2486283755_gshared
ERd:_PointerEventData_set_worldNormal_m2025727441
qsf:_Context_get_SentConnectionEnd_m3114190867
ncb:__ZN12ImmediatePtrI10GameObjectE8TransferI19StreamedBinaryWriteILb0EEEEvRT_
Mmb:__ZN12CubemapArray23VirtualRedirectTransferER24GenerateTypeTreeTransfer
x1i:__ZL24UnresolvedVirtualCall_22P12Il2CppObjectS0_iS0_S0_S0_PK10MethodInfo
j5:__ZN12FileAccessor4OpenER15FileSystemEntry14FilePermission16FileAutoBehavior
_Me:_ReadOnlyCollection_1__ctor_m2364452928_gshared
kCj:__ZN6il2cpp2os9Directory6CreateERKNSt3__212basic_stringIcNS2_11char_traitsIcEENS2_9allocatorIcEEEEPi
Nha:__ZN4PPtrI6ShaderE8TransferI18StreamedBinaryReadILb0EEEEvRT_
Jqb:__ZN23TransformChangeDispatch32QueueTransformChangeIfHasChangedERK15TransformAccess
hRd:_PointerEventData_set_clickTime_m3931922487
kQg:_WindowFunction__ctor_m977095815
jUe:_NumberFormatter_AppendNonNegativeNumber_m629862866
Bia:__ZNSt3__26vectorINS_4pairIN9ShaderLab16FastPropertyNameEN18UnityPropertySheet11UnityTexEnvEEENS_9allocatorIS6_EEE21__push_back_slow_pathIKS6_EEvRT_
PMa:__ZN15ArchiveReadFile5WriteEyPKvPy
Cti:_ResourceInfo__ctor_m2401359321_AdjustorThunk
cDj:__ZN6il2cpp2os26LibraryNamePrefixAndSuffixC2EPKcS3_
Kwd:_Hashtable__ctor_m392789568
j5g:_Mutex_CreateMutex_internal_m2352956576
B3g:_UTF7Encoding__cctor_m4192443836
Amc:__Z31GUIStyle_CUSTOM_SetFontInternalP12Il2CppObjectS0_
B:tempValue
V8a:__Z29StdTemplateConversionFunctionIaiEbPvR14SafeBinaryRead
QMj:__ZN6il2cpp8metadata24Il2CppGenericContextHash4HashEPK20Il2CppGenericContext
TXe:_Int16_System_IConvertible_ToSingle_m3277935657
H_:__Z29scripting_class_from_fullnamePKcS0_S0_
r4f:__ZL97GameObject_t1756533147_CustomAttributesCacheGenerator_GameObject_GetComponentInParent_m1235194528P21CustomAttributesCache
Vsh:_Raycast3DCallback_Invoke_m2271859924
Dz:__ZN26AnimatorControllerPlayable18DeallocateBindingsEv
xN:__ZN11AudioSource19CreateOpenALRolloffEfff
Kdg:__ZL83Event_t3028476042_CustomAttributesCacheGenerator_Event_set_displayIndex_m3631666901P21CustomAttributesCache
CPc:_UNITY_FT_Stream_ReadAt
N7f:__ZL111Object_t1021602117_CustomAttributesCacheGenerator_Object_DestroyImmediate_m3563317232____allowDestroyingAssets1P21CustomAttributesCache
dpa:__ZN9Texture3D34UpdateFileTextureUploadInstructionEP28FileTextureUploadInstructionj
aUg:_GUIStyle_get_lineHeight_m2132859383
cai:__Z102RuntimeInvoker_Int32_t2071877448_Il2CppObject_UIVertex_t1204258818_Int32_t2071877448_Int32_t2071877448PK10MethodInfoPvPS2_
l9f:__ZL82Physics2D_t2540166467_CustomAttributesCacheGenerator_Physics2D_Raycast_m1220041042P21CustomAttributesCache
ipi:_UnityEvent_FindMethod_Impl_m3303953986
B9g:_UInt16_System_IConvertible_ToBoolean_m887616848
N2f:__ZL120ScriptableObject_t1975622470_CustomAttributesCacheGenerator_ScriptableObject_Internal_CreateScriptableObject_m1778903390P21CustomAttributesCache
$O:__ZN11AudioModule22CreateAudioClipFromWWWEP10IWWWStreamPKcbbi
mPh:__Z142RuntimeInvoker_Boolean_t3825574718_Il2CppObject_Int32_t2071877448_Il2CppObject_SByte_t454417549_UInt32U26_t2197289955_ExceptionU26_t1467204777PK10MethodInfoPvPS2_
l2g:_StringBuilder_set_Length_m3039225444
ZHe:_Collection_1_System_Collections_IList_Contains_m3870109702_gshared
L6d:_Array_InternalArray__ICollection_Contains_TisRaycastResult_t21186376_m3188614988_gshared
vEd:_CultureAwareComparer_GetHashCode_m3681260951
R_c:__Z13RegisterClassIN2UI11CanvasGroupEEvv
hYi:_U3CStartU3Ec__Iterator0__ctor_m951808111_gshared
wf:_emscripten_glClear
cth:_Selectable__ctor_m1440593935
z3i:__ZL25UnresolvedVirtualCall_132P12Il2CppObject17Color_t2020392075faaaPK10MethodInfo
$3b:__ZNK8Playable6HandleEv
MLf:__ZL65Il2CppArray_CustomAttributesCacheGenerator_Array_Clear_m782967417P21CustomAttributesCache
uSj:___cxa_guard_abort
VDg:_CustomAttributeTypedArgument_t1498197914_marshal_pinvoke_back
w3:__ZN14MessageHandler28MessageIDToMessageIdentifierEi
iAf:_HttpRequestCreator_Create_m3607509610
beg:__ZL50GUISkin_t1436893342_CustomAttributesCacheGeneratorP21CustomAttributesCache
T2i:__ZL24UnresolvedVirtualCall_98P12Il2CppObject8IntPtr_tPK10MethodInfo
NAe:_List_1_Shift_m3824049528_gshared
vvg:_ArrayFixupRecord__ctor_m3659990982
Csf:_Context_get_RandomCS_m3946020109
IKf:__ZL72IntPtr_t_CustomAttributesCacheGenerator_IntPtr_op_Inequality_m3044532593P21CustomAttributesCache
jYd:_Dropdown_get_onValueChanged_m3334401942
yKj:__ZN6il2cpp2vm10WaitHandle19NewManualResetEventEb
rOe:_ReadOnlyCollection_1_System_Collections_IList_Contains_m3707723158_gshared
ydh:_Version_GetHashCode_m880841176
dgi:_CustomEventData_Add_m4160204358
eE:__Z51Register_UnityEngine_Animator_get_hasBoundPlayablesv
ARi:_Nullable_1_ToString_m1238126148_AdjustorThunk
Nd:emscriptenWebGLGetUniform
Bo:FUNCTION_TABLE_iiiiiiiiiii
Lpa:__Z32TransferEnumWithNameForceIntSizeI14SafeBinaryRead13TextureFormatEvRT_RT0_PKc17TransferMetaFlags
Ong:__ZL86Scrollbar_t3248359358_CustomAttributesCacheGenerator_Scrollbar_ClickRepeat_m3403943364P21CustomAttributesCache
R1a:__ZL10CleanUpJobP20CullingGroupsJobData
Yrd:_Char_CompareTo_m3044885427_AdjustorThunk
S0e:_FileStream_GetSecureFileName_m508045384
bYa:__Z20IsRunningNativeTestsv
xHh:_InternalEnumerator_1_System_Collections_IEnumerator_get_Current_m2035754659_AdjustorThunk
avb:__ZN10MeshFilter23VirtualRedirectTransferER24GenerateTypeTreeTransfer
u2a:__ZN13RenderManager15BatchModeUpdateEv
aSi:_Predicate_1_EndInvoke_m973058386_gshared
N5f:__ZL52LayerMask_t3188175821_CustomAttributesCacheGeneratorP21CustomAttributesCache
GEe:_Collection_1_Add_m3985367602_gshared
btb:__ZN14SafeBinaryRead21TransferSTLStyleArrayI13dynamic_arrayI8Vector2fLj4EEEEvRT_17TransferMetaFlags
wia:__ZN17PersistentManager51InstanceIDToLocalSerializedObjectIdentifierInternalEiR31LocalSerializedObjectIdentifier
FCc:__ZN10ClipperLib7Clipper15SetWindingCountERNS_5TEdgeE
VNg:_StrongNameKeyPair_System_Runtime_Serialization_IDeserializationCallback_OnDeserialization_m2330221363
GUc:_UNITY_FT_Create_Class_cff_services
zLh:_DefaultComparer__ctor_m1661558765_gshared
qd:_glVertexAttribIPointer
Sch:_UnhandledExceptionEventHandler_EndInvoke_m2207457167
cih:_Dictionary_2_System_Collections_ICollection_get_IsSynchronized_m304009368_gshared
wBg:_HMAC_set_HashName_m457235014
v6b:__ZNK6Sprite10GetPaddingE20SpriteRenderDataMode
W5d:_Array_InternalArray__ICollection_Contains_TisTableRange_t2011406615_m605506746_gshared
yih:_Dictionary_2_Add_m1296007576_gshared
uDd:_Decimal_op_Explicit_m729046406
Tzg:_CryptoConfig_CreateFromName_m2169102076
r_d:_Graphic_OnEnable_m2900261811
Wzg:_CryptographicUnexpectedOperationException__ctor_m3552441227
Nri:_AnimatorControllerPlayable_GetAnimatorClipInfoCountInternal_m826336390
Jtd:_ArrayListWrapper_Clear_m321161741
u3d:_InputField_LineDownCharacterPosition_m2690468785
BPc:_UNITY_ft_glyphslot_alloc_bitmap
Yci:__Z56RuntimeInvoker_ContentType_t1028629049_Int32_t2071877448PK10MethodInfoPvPS2_
Mhe:_Array_Sort_TisVector2_t2243707579_TisVector2_t2243707579_m2582252549_gshared
Bbh:_UInt64_System_IConvertible_ToDouble_m2828923873
sUh:__Z45RuntimeInvoker_Il2CppObject_Int16_t4041245914PK10MethodInfoPvPS2_
k7i:__ZN15dense_hashtableI10KeyWrapperIPK17Il2CppGenericInstES4_N6il2cpp8metadata21Il2CppGenericInstHashEN14dense_hash_setIS4_S7_NS4_14EqualsComparerINS6_24Il2CppGenericInstCompareEEENSt3__29allocatorIS4_EEE8IdentityESB_SE_E16reset_thresholdsEv
B_b:__ZZN2UI13RectTransform15InitializeClassEvEN31FunctorImpl_62kTransformChanged4CallEPviR11MessageData
Lve:_List_1_System_Collections_IList_set_Item_m1129584681_gshared
XQc:_ft_raster1_render
mgc:__Z57Register_UnityEngine_RectTransform_INTERNAL_set_anchorMaxv
Fqe:_List_1_set_Capacity_m491101164_gshared
eRj:__ZNKSt3__221__basic_string_commonILb1EE20__throw_length_errorEv
J2g:_StringBuilder_Insert_m1733097906
O_h:__Z88RuntimeInvoker_Void_t1841601450_Il2CppObject_Int32_t2071877448_Il2CppObject_Il2CppObjectPK10MethodInfoPvPS2_
WMh:_Comparer_1__ctor_m1157133632_gshared
Zwf:_SslStreamBase_get_HashStrength_m480059173
XSe:_Comparison_1_EndInvoke_m2678763282_gshared
Wgh:_ValueCollection_System_Collections_Generic_ICollectionU3CTValueU3E_Clear_m3271993638_gshared
pzd:_Enumerator_MoveNext_m1419609883
oJ:__ZN4FMOD7Channel19setReverbPropertiesEPK29FMOD_REVERB_CHANNELPROPERTIES
X2:__ZN13MonoBehaviour22GetScriptFullClassNameEv
igj:_il2cpp_object_get_class
NPf:__ZL111DerivedType_t1016359113_CustomAttributesCacheGenerator_DerivedType_MakeGenericType_m742223168____typeArguments0P21CustomAttributesCache
OQe:_ReadOnlyCollection_1_Contains_m1816350632_gshared
sAf:_ServicePointManager_FindServicePoint_m3137356168
w2g:_StringBuilder_Append_m3541816491
Coa:__ZN20SphericalHarmonicsL211AddWeightedERKS_f
WRd:_PointerInputModule_GetPointerData_m1695674453
iJb:__Z19TransferField_ArrayI17RemapPPtrTransfer27Converter_SimpleNativeClassI8GUIStyleEEvRK23StaticTransferFieldInfoR31RuntimeSerializationCommandInfoRT0_
b1:__ZL22StaticInitializeShaderPv
qEd:_Convert_ToUInt64_m345450801
DRi:_Predicate_1_BeginInvoke_m2559992383_gshared
Ivj:__ZN6il2cpp2vm3RCW7CleanupEP15Il2CppComObject
Koc:__ZN9JSONWrite8TransferI10ColorRGBAfEEvRT_PKc17TransferMetaFlags
kbi:__Z52RuntimeInvoker_Void_t1841601450_Keyframe_t1449471340PK10MethodInfoPvPS2_
vMe:_ReadOnlyCollection_1_get_Item_m1909688500_gshared
q3:__Z25scripting_method_get_name18ScriptingMethodPtr
vgc:__Z35Register_UnityEngine_Resources_Loadv
THb:__Z19TransferField_ArrayI14SafeBinaryRead16Converter_StringEvRK23StaticTransferFieldInfoR31RuntimeSerializationCommandInfoRT0_
zQj:_rename
zIj:_GC_exit_check
MNi:_Transform_INTERNAL_CALL_TransformDirection_m2899991790
N8e:_NotSupportedException__ctor_m3232764727
Izf:_TypeConverterAttribute_Equals_m2330345916
Reg:__ZL86GUIStyle_t1799908754_CustomAttributesCacheGenerator_GUIStyle_get_alignment_m3513439031P21CustomAttributesCache
V1:__Z20UnlockObjectCreationv
g0h:__Z55RuntimeInvoker_Il2CppObject_RegexOptionsU26_t3063574985PK10MethodInfoPvPS2_
s0e:_MonoIO_CreateDirectory_m379525469
bae:__ZN21InterfaceFuncInvoker2Ii22UILineInfo_t3621277874S0_E6InvokeEjP11Il2CppClassP12Il2CppObjectS0_S0_
Rs:__ZN9BlobWrite8TransferI22OffsetPtrArrayTransferI9OffsetPtrIN7mecanim12statemachine18StateMachineMemoryEEEEEvRT_PKc17TransferMetaFlags
YMc:_UNITY_ft_smooth_renderer_class_pic_free
vye:_List_1_System_Collections_IList_Remove_m3763718607_gshared
Vii:_Bounds_get_center_m129401026
nf:_emscripten_glStencilOpSeparate
Ghd:_String_Concat_m2000667605
obj:__ZN6il2cpp2os19SocketHandleWrapperC2ERKS1_
ABj:__ZN6il2cpp2os10ThreadImpl12QueueUserAPCEPFvPvES2_
pG:__Z32TransferEnumWithNameForceIntSizeI14SafeBinaryReadN10SampleClip17CompressionFormatEEvRT_RT0_PKc17TransferMetaFlags
J4c:__ZN22BaseUnityConnectClient10QueueEventERN11UnityEngine15CloudWebService17CloudServiceEventEPKcjb
lYg:_Mesh_DefaultDimensionForChannel_m153181993
Pve:__ZN23InterfaceActionInvoker2IP28UICharInfoU5BU5D_t2749705857iE6InvokeEjP11Il2CppClassP12Il2CppObjectS1_i
G5f:__ZL81Input_t1785128008_CustomAttributesCacheGenerator_Input_get_touchCount_m2050827666P21CustomAttributesCache
Sbd:_SHA384Managed_unpackWord_m2501009050
wWc:_UNITY_FT_Hypot
Cod:_BitConverter_ToInt64_m1329623425
h$b:__ZN8RendererC2E12RendererType18MemLabelIdentifier18ObjectCreationMode
SWf:__ZL95ASCIIEncoding_t3022927988_CustomAttributesCacheGenerator_ASCIIEncoding_GetByteCount_m1396020051P21CustomAttributesCache
wfj:_il2cpp_class_is_abstract
yjg:__ZL92PointerEventData_t1599784723_CustomAttributesCacheGenerator_U3CpointerDragU3Ek__BackingFieldP21CustomAttributesCache
Gf:_emscripten_glGetError
bK:__Z14FMOD_FILE_SeekPvjS_
qzi:_MethodCall_get_Properties_m1893707917
dLf:__ZL72Enum_t2459695545_CustomAttributesCacheGenerator_Enum_ToObject_m604645223P21CustomAttributesCache
Ieh:_ShimEnumerator_get_Entry_m2387156530_gshared
D2c:__Z56Register_UnityEngine_Analytics_CustomEventData_AddStringv
c3a:__ZNK13RenderTexture32CalculateNeedsInvertedProjectionEv
Lab:__ZN10systeminfo18GetOperatingSystemEv
Of:emscriptenWebGLGet
s0g:_Rect_GetHashCode_m559954498_AdjustorThunk
p5:__Z19CanReplaceComponentRN5Unity9ComponentEPKNS_4TypeEPN4core12basic_stringIcNS5_20StringStorageDefaultIcEEEE
N0b:__ZN12CubemapArray11InitTextureEiii13TextureFormatb
Kwe:_List_1_GrowIfNeeded_m2433342921_gshared
l2h:__Z36RuntimeInvoker_Matrix4x4_t2933234003PK10MethodInfoPvPS2_
AJa:__ZNK15Lz4Decompressor20DecompressStreamInitEPPv
fkj:__ZN24dense_hashtable_iteratorINSt3__24pairIK10KeyWrapperIPK10Il2CppTypeEjEES6_N6il2cpp8metadata14Il2CppTypeHashEN14dense_hash_mapIS6_jSB_NS6_14EqualsComparerINSA_26Il2CppTypeEqualityComparerEEENS0_9allocatorIS8_EEE9SelectKeyESF_SH_E30advance_past_empty_and_deletedEv
iEe:_Collection_1_set_Item_m3803272710_gshared
zYg:_Mesh_SetUVs_m841280343
LMg:_MonoMethodInfo_t3646562144_marshal_pinvoke_cleanup
KDf:_X509Certificate2_get_SignatureAlgorithm_m3069898012
hAf:_HttpRequestCreator__ctor_m2513916021
YE:__Z105Register_UnityEngine_Experimental_Director_AnimatorControllerPlayable_INTERNAL_CALL_GetLayerCountInternalv
ZZe:_Int64_System_IConvertible_ToSingle_m1678482180
eXh:__Z54RuntimeInvoker_Il2CppObject_IntPtr_t_Int32_t2071877448PK10MethodInfoPvPS2_
LUg:_GUIStyle_INTERNAL_CALL_Internal_CalcSizeWithConstraints_m1203344891
zt:__ZN7mecanim5human13HumanFixTwistEPKNS0_5HumanEPNS_8skeleton13SkeletonPoseTIN4math4trsXEEES9_iiRKf
MYa:__ZL24AssignProjectorQueuesJobP30AssignProjectorQueuesJobHeader
S6g:_TimeSpan_get_Hours_m3804628138
AZd:_FontData_set_alignByGeometry_m2819509290
Xwj:__ZN14dense_hash_mapI10KeyWrapperIP12Il2CppObjectEN6il2cpp2gc9CachedCCWENS4_5utils11PointerHashIS1_EENS3_14EqualsComparerINSt3__28equal_toIS2_EEEENSB_9allocatorINSB_4pairIKS3_S6_EEEEEC2EjRKS9_RKSE_
_Bi:_Regex__ctor_m3250610064
QVb:__ZN9ShaderLab20SerializedSubProgram14SetConstBufferEPKci
zkf:_ArgumentNullException__ctor_m911049464
cLg:_TargetParameterCountException__ctor_m2760108938
Gsg:_SoapAttribute_SetReflectionObject_m2774156012
HQi:_Check_Source_m3385315029
FTi:_InvokableCall_4_Find_m1467690987_gshared
xSe:_Comparison_1_Invoke_m345024424_gshared
XSc:_cf2_getStdVW
zPe:_ReadOnlyCollection_1_System_Collections_IList_Insert_m3936197025_gshared
WLd:_EventHandler_BeginInvoke_m3027583606
GV:__Z40DebugStringToFilePostprocessedStacktraceRK21DebugStringToFileData
jtc:__Z29Transfer_Blittable_ArrayFieldI8JSONReadjEvRT_R9ArrayInfoRK23StaticTransferFieldInfo
kLi:_StateMachineBehaviour_OnStateEnter_m1095276890
PZg:_Object_GetInstanceID_m1920497914
Xxi:_ContextAttribute__ctor_m4006843177
ZGh:_InternalEnumerator_1_get_Current_m314017974_AdjustorThunk
Msi:_AnimatorControllerPlayable_Play_m1337154648
tg:__setLetterbox
_1e:_MemoryStream__ctor_m1043059966
Nia:__ZNSt3__26__treeINS_12__value_typeIN9ShaderLab16FastPropertyNameEfEENS_19__map_value_compareIS3_S4_NS_4lessIS3_EELb1EEENS_9allocatorIS4_EEE12__find_equalIS3_EERPNS_16__tree_node_baseIPvEENS_21__tree_const_iteratorIS4_PNS_11__tree_nodeIS4_SE_EEiEESH_RKT_
fMi:_TextGenerator_Populate_Internal_m1817393161
bOf:__ZL57CollectionBase_t1101587467_CustomAttributesCacheGeneratorP21CustomAttributesCache
esg:__ZN21InterfaceFuncInvoker3IP12Il2CppObjectP6Type_t28StreamingContext_t1417235061PS1_E6InvokeEjP11Il2CppClassS1_S3_S4_S5_
Xtb:__ZNSt3__26vectorI17BlendShapeChannelNS_9allocatorIS1_EEE6assignINS_11__wrap_iterIPS1_EEEENS_9enable_ifIXaasr21__is_forward_iteratorIT_EE5valuesr16is_constructibleIS1_NS_15iterator_traitsISA_E9referenceEEE5valueEvE4typeESA_SA_
D4d:_LayoutElement_set_preferredWidth_m3072758716
BUi:_UnityEvent_1_AddListener_m1708363187_gshared
tCf:_AsnEncodedData_ToString_m724151831
L2a:__ZN11TimeManager11GetRealtimeEv
dDe:_Collection_1_System_Collections_IList_get_IsFixedSize_m2408637569_gshared
v4g:_UTF8Encoding_GetByteCount_m1469571127
YHj:_GC_print_block_list
oK:__ZN29AudioEffectInternalDefinitionC2EP26UnityAudioEffectDefinitionb
mLg:_MonoMethodInfo_GetDeclaringType_m4186531677
etg:_SoapTypeAttribute_SetReflectionObject_m1566293812
Wlh:_DefaultComparer__ctor_m418731767_gshared
aB:__ZN4PPtrI6AvatarE8TransferI18StreamedBinaryReadILb0EEEEvRT_
e_i:_Enumerator_System_Collections_IEnumerator_Reset_m2573763156_AdjustorThunk
Tug:_RemotingServices_CreateClientProxy_m1631035355
fch:_UInt64_ToString_m2892887310
cfg:__ZL88GUIStyle_t1799908754_CustomAttributesCacheGenerator_GUIStyle_set_fixedHeight_m1517737608P21CustomAttributesCache
qhd:_String_System_IConvertible_ToType_m512800076
UDj:__ZN15dense_hashtableINSt3__24pairIK10KeyWrapperIPK19Il2CppGenericMethodEP10MethodInfoEES6_N6il2cpp8metadata23Il2CppGenericMethodHashEN14dense_hash_mapIS6_S9_SD_NS6_14EqualsComparerINSC_26Il2CppGenericMethodCompareEEENS0_9allocatorISA_EEE9SelectKeyESH_SJ_EC2ERKSM_j
Plj:__ZN15dense_hashtableINSt3__24pairIK10KeyWrapperINS1_IPK12PropertyInfoP11Il2CppClassEEEjEES9_17ReflectionMapHashIS8_EN14dense_hash_mapIS9_jSD_NS9_14EqualsComparerINS0_8equal_toIS8_EEEENS0_9allocatorISB_EEE9SelectKeyESI_SK_E5clearEv
gvb:__ZN4PPtrI4MeshE8TransferI14SafeBinaryReadEEvRT_
Rzc:__ZN24b2ChainAndCapsuleContact6CreateEP9b2FixtureiS1_iP16b2BlockAllocator
$Ja:__Z37ReadDirectoryInfo_UnityWebAndUnityRawR12FileAccessorRKN20ArchiveStorageHeader6HeaderERNS1_13DirectoryInfoE
Q8d:_Array_InternalArray__IEnumerable_GetEnumerator_TisInt64_t909078037_m1219751804_gshared
J0:__ZNSt3__26__treeINS_12__value_typeIPKciEENS_19__map_value_compareIS3_S4_15compare_tstringIS3_ELb1EEENS_9allocatorIS4_EEE7destroyEPNS_11__tree_nodeIS4_PvEE
XMf:__ZL96RuntimeTypeHandle_t2330101084_CustomAttributesCacheGenerator_RuntimeTypeHandle_Equals_m452760426P21CustomAttributesCache
clh:_Dictionary_2_ToTValue_m1381983709_gshared
E8e:_MulticastDelegate_KPM_m1592985119
F$g:_RaycastHit2D_get_collider_m2568504212_AdjustorThunk
KKe:_Collection_1_ConvertItem_m3941916604_gshared
LVa:__ZN20DynamicPropertySheet14SetValueQueuedEN9ShaderLab16FastPropertyNameEN19ShaderPropertySheet12PropertyTypeEjNS2_8SetFlagsE
DZc:__ZN2UI6Canvas26MarkAllNestedCanvasesDirtyEv
uvj:__ZN6il2cpp2vm12ReboxIfBoxedEP14Il2CppIUnknownP11Il2CppClass
swe:_List_1__ctor_m2766376432_gshared
w7a:__ZN25PathNamePersistentManagerD2Ev
O1:__ZN17PersistentManager48IntegrateObjectAndUnlockIntegrationMutexInternalEi
hQe:_ReadOnlyCollection_1_System_Collections_IList_get_IsReadOnly_m3872065502_gshared
pQf:__ZL112TypeBuilder_t3308873219_CustomAttributesCacheGenerator_TypeBuilder_MakeGenericType_m4282022646____typeArguments0P21CustomAttributesCache
mfi:__Z89RuntimeInvoker_Il2CppObject_Scene_t1684909666_Scene_t1684909666_Il2CppObject_Il2CppObjectPK10MethodInfoPvPS2_
tp:__ZN6Object12SetHideFlagsENS_9HideFlagsE
mFc:__ZN9b2Fixture11SynchronizeEP12b2BroadPhaseRK11b2TransformS4_
XXj:_emscripten_glGetFramebufferAttachmentParameteriv__wrapper
b2a:__ZN13RendererScene15InitializeUmbraEv
whi:_AnimatorTransitionInfo_IsName_m2561957738_AdjustorThunk
moa:__Z28CalculateGlobalMatrixInverse23TransformAccessReadOnly
Eqc:__ZN4PPtrI6ObjectE8TransferI9JSONWriteEEvRT_
wrj:__ZN6il2cpp2vm6Thread13MemoryBarrierEv
RRd:_PointerEventData_ToString_m1218584363
trd:_Char_System_IConvertible_ToChar_m1489061093_AdjustorThunk
J3g:_UTF7Encoding_GetCharCount_m2589913583
Big:__ZL117RenderPipelineManager_t984453155_CustomAttributesCacheGenerator_RenderPipelineManager_set_currentPipeline_m3825706412P21CustomAttributesCache
lZh:__Z91RuntimeInvoker_DateTime_t693205669_Il2CppObject_Il2CppObject_Il2CppObject_Int32_t2071877448PK10MethodInfoPvPS2_
pQa:_UNITY_png_write_sCAL_s
R2e:_MemoryStream_CalculateNewCapacity_m3533542025
dig:__ZL66ExcludeFromDocsAttribute_t665825653_CustomAttributesCacheGeneratorP21CustomAttributesCache
OMj:__ZN6il2cpp6icalls8mscorlib6System6Object7GetTypeEP12Il2CppObject
t6i:__ZNK15dense_hashtableINSt3__24pairIK10KeyWrapperIPKcEP11Il2CppClassEES5_N6il2cpp5utils11StringUtils12StringHasherIS4_EEN14dense_hash_mapIS5_S8_SE_NS5_14EqualsComparerINSC_21CaseSensitiveComparerEEENS0_9allocatorIS9_EEE9SelectKeyESI_SK_E5beginEv
kfg:__ZL88GUIStyle_t1799908754_CustomAttributesCacheGenerator_GUIStyle_GetFontInternal_m3509743324P21CustomAttributesCache
r7g:_TimeSpan_Equals_m4102942751_AdjustorThunk
fbi:__Z59RuntimeInvoker_Void_t1841601450_X509ChainStatus_t4278378721PK10MethodInfoPvPS2_
Vgh:_ValueCollection_System_Collections_Generic_ICollectionU3CTValueU3E_Add_m1903672223_gshared
BG:__ZN4FMOD6SoundI7releaseEv
Ovb:__ZN14SpriteRenderer13AwakeFromLoadE17AwakeFromLoadMode
qSd:_MouseButtonEventData__ctor_m618518000
PKa:__ZN10MemoryFile9SetLengthEy
rah:_UInt16_ToString_m2038947049_AdjustorThunk
Smh:_DefaultComparer_Equals_m3143385420_gshared
vyc:__ZNK15b2RevoluteJoint10GetAnchorBEv
Tob:__ZN14SafeBinaryRead21TransferSTLStyleArrayI13dynamic_arrayI7Hash128Lj8EEEEvRT_17TransferMetaFlags
KDb:__Z28scripting_class_is_interface17ScriptingClassPtr
Jh:_glTexStorage2D
DVb:__ZNK9ShaderLab10SubProgram14EnsureCompiledEv
nxg:_ObjectManager_RecordFixup_m3572285566
ZAa:__ZN18AsyncUploadManager22WaitForActiveAsyncReadEv
UOf:__ZL55DaylightTime_t3800227331_CustomAttributesCacheGeneratorP21CustomAttributesCache
myd:_SortedList_InitTable_m460350503
i3:__Z18BuildScriptClassId17ScriptingClassPtr
RDh:_InternalEnumerator_1_get_Current_m4279678504_AdjustorThunk
Iq:__ZNK16LevelGameManager7GetNameEv
fDe:_Collection_1_System_Collections_IList_get_Item_m2415649949_gshared
p1b:__ZN8Renderer28HandleParentHierarchyChangesEPK23TransformAccessReadOnlyj
aIg:_ILTokenInfo_t149559338_marshal_pinvoke_cleanup
NX:__ZL31DeleteLastPathNameComponentImplRKN4core12basic_stringIcNS_20StringStorageDefaultIcEEEEPKc
_Yb:__Z13RegisterClassI18DelayedCallManagerEvv
V4c:__ZN18UnityConnectClient15GetCloudServiceEv
wJb:__Z18Transfer_BlittableI24GenerateTypeTreeTransferLb0EiEvRK29SerializationCommandArgumentsR31RuntimeSerializationCommandInfo
lbj:__ZN6il2cpp2os19SocketHandleWrapperD2Ev
vzc:__ZN15b2CircleContact6CreateEP9b2FixtureiS1_iP16b2BlockAllocator
GDb:__ZL28SerializationCommandGroupForRK31TransferFunctionScriptingTraits17ScriptingClassPtr17ScriptingFieldPtrRK20CoreScriptingClasses
Bhb:__ZN10TagManager32RegisterDefaultTagsAndLayerMasksEv
wYi:_TweenRunner_1_StopTween_m2135918118_gshared
Hhh:_ValueCollection_get_Count_m4142113966_gshared
vgg:__ZL118AttributeHelperEngine_t958797062_CustomAttributesCacheGenerator_AttributeHelperEngine_GetRequiredComponents_m120894667P21CustomAttributesCache
Ceb:__ZN14CachingManager12ReadInfoFileERKN4core12basic_stringIcNS0_20StringStorageDefaultIcEEEEPlPNSt3__26vectorIS4_NS8_9allocatorIS4_EEEE
c9f:__ZL105RectTransform_t3349966182_CustomAttributesCacheGenerator_RectTransform_INTERNAL_get_sizeDelta_m3975625099P21CustomAttributesCache
L2c:__Z56Register_UnityEngine_Analytics_CustomEventData_AddUInt32v
ftd:_ArrayList_InsertRange_m1478230997
$qg:__ZL75BinCollisionScript_t479385200_CustomAttributesCacheGenerator_nGarbageInsideP21CustomAttributesCache
Rya:__ZN4gles8InitCapsEP7ApiGLESP12GraphicsCapsR16GfxDeviceLevelGL
kja:__ZN6prcore14BlitImageFloatERK14ImageReferenceRS0_NS0_8BlitModeE
Znd:_Swapper_EndInvoke_m677693941
ofb:__ZN21AssetBundleFileSystem4ReadER13FileEntryDatayyPvPy
LXg:_Matrix4x4_Equals_m1321236479_AdjustorThunk
d3f:__ZL99Camera_t189460977_CustomAttributesCacheGenerator_Camera_INTERNAL_CALL_ScreenToWorldPoint_m196899300P21CustomAttributesCache
qi:_glEnable
tgb:__ZNK13Lz4Compressor29CalculateCompressedBufferSizeEj
dcj:__ZN6il2cpp2vm19SocketPollingThreadC2Ev
ATa:__ZNK25CameraStackRenderingState21GetImageEffectTextureEb
oyg:_RuntimeMethodHandle__ctor_m2437574937_AdjustorThunk
v8f:__ZL99Transform_t3275118058_CustomAttributesCacheGenerator_Transform_INTERNAL_get_localPosition_m94028171P21CustomAttributesCache
S9g:_UInt16_System_IConvertible_ToInt64_m2835280558_AdjustorThunk
S_g:_Quaternion_GetHashCode_m2270520528_AdjustorThunk
k2f:__ZL53g_UnityEngine_Assembly_CustomAttributesCacheGeneratorP21CustomAttributesCache
lSi:_Predicate_1_BeginInvoke_m3926587117_gshared
zzb:__ZNSt3__26vectorI4PPtrI6ObjectE13stl_allocatorIS3_L18MemLabelIdentifier51ELi16EEE6assignINS_11__wrap_iterIPS3_EEEENS_9enable_ifIXaasr21__is_forward_iteratorIT_EE5valuesr16is_constructibleIS3_NS_15iterator_traitsISD_E9referenceEEE5valueEvE4typeESD_SD_
HCg:_AssemblyName_get_Name_m1815759940
yte:_List_1_get_Item_m1231764300_gshared
GXd:_DefaultControls_CreateToggle_m1568873127
hAe:_List_1__cctor_m1022807427_gshared
RNf:__ZL63KeyNotFoundException_t1722175009_CustomAttributesCacheGeneratorP21CustomAttributesCache
Okh:_Dictionary_2_InitArrays_m2270022740_gshared
Rzd:_Convert_ToBoolean_m2188088811
D3c:__ZN11UnityEngine7Connect15DeviceInfoEvent16CollectExtraInfoEv
jZh:__Z115RuntimeInvoker_Boolean_t3825574718_Il2CppObject_Int32_t2071877448_Il2CppObject_SByte_t454417549_Int32U26_t455636984PK10MethodInfoPvPS2_
W2g:_UnicodeEncoding_GetChars_m3765282346
N_e:_IntPtr__ctor_m4104029105
uUf:__ZL114BinaryFormatter_t1866979105_CustomAttributesCacheGenerator_BinaryFormatter_get_DefaultSurrogateSelector_m219714691P21CustomAttributesCache
jIh:_InternalEnumerator_1_System_Collections_IEnumerator_get_Current_m771161214_AdjustorThunk
C7e:_MonoType_get_attributes_m1493788675
DQj:_atol
BKj:__ZN6il2cpp6icalls8mscorlib6System10Reflection9FieldInfo25internal_from_handle_typeE12Il2CppIntPtrS5_
zJj:__ZThn8_N6il2cpp2vm13CachedCCWBaseINS0_13ManagedObjectEE6AddRefEv
nCd:_Convert_ToDouble_m4236754739
cwf:_SslClientStream_get_PrivateKeyCertSelectionDelegate_m3715949545
SYd:_Dropdown_CreateItem_m2702141380
tRe:_ReadOnlyCollection_1_IndexOf_m224962127_gshared
yOf:__ZL48Stack_t1043988394_CustomAttributesCacheGeneratorP21CustomAttributesCache
Fo:FUNCTION_TABLE_viifi
Go:FUNCTION_TABLE_viiff
rrg:__ZL184U3CRestoreColliderU3Ec__Iterator0_t202191388_CustomAttributesCacheGenerator_U3CRestoreColliderU3Ec__Iterator0_System_Collections_Generic_IEnumeratorU3CobjectU3E_get_Current_m3244468671P21CustomAttributesCache
xLg:_MonoEvent_GetAddMethod_m4289563120
GMf:__ZL37Type_t_CustomAttributesCacheGeneratorP21CustomAttributesCache
LWc:_UNITY_tt_face_free_hdmx
xpj:__ZN15dense_hashtableINSt3__24pairIK10KeyWrapperINS1_IP11Il2CppClassjEEES4_EES6_N6il2cpp8metadata14ArrayClassHashEN14dense_hash_mapIS6_S4_SB_NS6_14EqualsComparerINSA_17ArrayClassCompareEEENS0_9allocatorIS8_EEE9SelectKeyESF_SH_E5clearEv
b6i:__ZNSt3__218uninitialized_copyIPNS_4pairIK10KeyWrapperIPK11Il2CppClassEPKcEESB_EET0_T_SD_SC_
Xgj:__ZN6il2cpp2vm14TypeNameParser5ParseEb
Jsh:_ReflectionMethodsCache__ctor_m1835220
lYh:__Z51RuntimeInvoker_Int16_t4041245914_Single_t2076509932PK10MethodInfoPvPS2_
YNf:__ZL71SynchronizedArrayListWrapper_t3317806524_CustomAttributesCacheGeneratorP21CustomAttributesCache
Y6c:__ZN23UnityPurchasingSettingsC2Ev
BKd:_Double_ToString_m1864290157
zQh:__Z63RuntimeInvoker_Il2CppObject_Int16_t4041245914_Int32_t2071877448PK10MethodInfoPvPS2_
FGh:_InternalEnumerator_1_get_Current_m4154059426_AdjustorThunk
x7:__ZNSt3__26__treeINS_12__value_typeI18VertexChannelsInfo16MeshVertexFormatEENS_19__map_value_compareIS2_S4_NS_4lessIS2_EELb1EEE13stl_allocatorIS4_L18MemLabelIdentifier16ELi16EEE12__find_equalIS2_EERPNS_16__tree_node_baseIPvEENS_21__tree_const_iteratorIS4_PNS_11__tree_nodeIS4_SF_EEiEESI_RKT_
Dyj:__ZNK24NamespaceAndNamePairHashclERKNSt3__24pairIPKcS3_EE
vpa:__ZL37stbir__resample_horizontal_downsampleP11stbir__infoiPf
gFe:__ZN21InterfaceFuncInvoker1Ib18Color32_t874517518E6InvokeEjP11Il2CppClassP12Il2CppObjectS0_
Nma:__ZNK5Unity9Component38MarkGameObjectAndComponentDependenciesER27GarbageCollectorThreadState
XX:__ZL16OutOfMemoryErrorjj18MemLabelIdentifieriPKc
krf:_RecordProtocol_SendRecord_m132002114
PN:__ZNK7Texture21GetShadowSamplingModeEv
yW:__ZN13ScreenManager21OnWindowRegainedFocusEv
ZPb:__Z18Transfer_BlittableI18StreamedBinaryReadILb0EELb1EdEvRK29SerializationCommandArgumentsR31RuntimeSerializationCommandInfo
nKc:__ZN13sorted_vectorIN20TextRenderingPrivate8FontImpl13CharacterInfoENSt3__24lessIS2_EE13stl_allocatorIS2_L18MemLabelIdentifier1ELi16EEE10insert_oneERKS2_
uki:_WillRenderCanvases_BeginInvoke_m1914028027
JWe:_Guid__ctor_m2599802704
q1e:_FileStream_get_CanRead_m4148920720
p7c:__ZN13RuntimeStaticINSt3__26vectorIPN5physx15PxVehicleWheelsENS0_9allocatorIS4_EEEELb0EE13StaticDestroyEPv
CBa:__ZN4crnd12symbol_codec32decode_receive_static_data_modelERNS_25static_huffman_data_modelE
w_b:__ZN18ScriptingArguments8AddFloatEf
yVe:_GregorianCalendar_set_CalendarType_m2438362222
aXd:_FloatTween_get_targetValue_m2120061648_AdjustorThunk
Pbi:__Z71RuntimeInvoker_Void_t1841601450_Int32_t2071877448_UriScheme_t1876590943PK10MethodInfoPvPS2_
U6d:_Array_InternalArray__ICollection_Contains_TisVector2_t2243707579_m3625698589_gshared
kqc:__Z18Transfer_BlittableI9JSONWriteLb0EaEvRK29SerializationCommandArgumentsR31RuntimeSerializationCommandInfo
HQ:__ZN11UnityEngine15CloudWebService14DataDispatcher34OnSessionContainerArchivedAndReadyERNS0_16SessionContainerE
vBc:__ZN7b2World11CreateJointEPK10b2JointDef
hWe:_NumberFormatInfo_GetFormat_m3247563525
LYf:__ZL77Convert_t2607082565_CustomAttributesCacheGenerator_Convert_ToByte_m2303223565P21CustomAttributesCache
aqf:_CipherSuiteCollection__ctor_m2154226461
pLb:__Z18Transfer_BlittableI19StreamedBinaryWriteILb0EELb0E8Vector3fEvRK29SerializationCommandArgumentsR31RuntimeSerializationCommandInfo
eQg:_RectOffset__ctor_m2227510254
YRb:__ZN14SafeBinaryRead19TransferSTLStyleMapINSt3__23mapIN4core12basic_stringIcNS3_20StringStorageDefaultIcEEEEiNS1_4lessIS7_EENS1_9allocatorINS1_4pairIKS7_iEEEEEEEEvRT_17TransferMetaFlags
flj:__ZN15dense_hashtableINSt3__24pairIK10KeyWrapperINS1_IPK11Il2CppImageP11Il2CppClassEEEjEES9_17ReflectionMapHashIS8_EN14dense_hash_mapIS9_jSD_NS9_14EqualsComparerINS0_8equal_toIS8_EEEENS0_9allocatorISB_EEE9SelectKeyESI_SK_ED2Ev
sOc:_gray_move_to
XAg:_DSAParameters_t1872138834_marshal_pinvoke
bpi:_UnityAction_BeginInvoke_m407736228
eKe:_Collection_1_System_Collections_IEnumerable_GetEnumerator_m4174600764_gshared
dzi:_ConstructionCall_InitDictionary_m4046452035
TAb:__ZN5Cache9URLToPathERKN4core12basic_stringIcNS0_20StringStorageDefaultIcEEEE7Hash128
$lj:__ZN6il2cpp2vm10Reflection14GetEventObjectEP11Il2CppClassPK9EventInfo
l6h:__Z43RuntimeInvoker_VerticalWrapMode_t3668245347PK10MethodInfoPvPS2_
trf:_TlsStream_Write_m2271546135
e8b:__Z30RegisterValidateMethodCallbackiPF18ScriptingMethodPtrS_17ScriptingClassPtrP6ObjectEPKc
uY:__ZN20LocalFileSystemPosixD0Ev
yNd:_CultureInfo_ConstructInternalLocaleFromCurrentLocale_m1342751405
FYh:__Z50RuntimeInvoker_UInt16_t986882611_Int16_t4041245914PK10MethodInfoPvPS2_
rfb:__ZN21AssetBundleFileSystem5WriteER13FileEntryDatayPvPy
Sld:_Latin1Encoding_GetString_m3553289597
QPc:_tt_cmap_init
TCa:__ZL25ProgramUniformMatrix4x2fvPK7ApiGLESjiihPKv
eOh:_Enumerator_get_Current_m1020413567_AdjustorThunk
Xqe:_List_1_System_Collections_IList_get_IsFixedSize_m1122077912_gshared
Fwj:__ZN15dense_hashtableI10KeyWrapperIP18Il2CppGenericClassES3_N6il2cpp8metadata22Il2CppGenericClassHashEN14dense_hash_setIS3_S6_NS3_14EqualsComparerINS5_25Il2CppGenericClassCompareEEENSt3__29allocatorIS3_EEE8IdentityESA_SD_E12maybe_shrinkEv
xci:__Z48RuntimeInvoker_Link_t865133271_Int32_t2071877448PK10MethodInfoPvPS2_
c_b:__ZN9TextAssetC2E18MemLabelIdentifier18ObjectCreationMode
Eni:_Display_RecreateDisplayList_m3412638488
Jlj:__ZN15dense_hashtableINSt3__24pairIK10KeyWrapperINS1_IPK12PropertyInfoP11Il2CppClassEEEjEES9_17ReflectionMapHashIS8_EN14dense_hash_mapIS9_jSD_NS9_14EqualsComparerINS0_8equal_toIS8_EEEENS0_9allocatorISB_EEE9SelectKeyESI_SK_E8min_sizeEjj
m_f:__ZL79Convert_t2607082565_CustomAttributesCacheGenerator_Convert_ToUInt64_m2215781574P21CustomAttributesCache
Ydi:__Z52RuntimeInvoker_KeyValuePair_2_t38854645_Il2CppObjectPK10MethodInfoPvPS2_
A1j:_emscripten_glCheckFramebufferStatus__wrapper
Jqj:__ZNK15dense_hashtableINSt3__24pairIK10KeyWrapperIP11Il2CppClassES4_EES5_N6il2cpp8metadata16SZArrayClassHashEN14dense_hash_mapIS5_S4_SA_NS5_14EqualsComparerINS9_19SZArrayClassCompareEEENS0_9allocatorIS7_EEE9SelectKeyESE_SG_E12test_deletedEj
Fsc:__Z18Transfer_BlittableI8JSONReadLb0EdEvRK29SerializationCommandArgumentsR31RuntimeSerializationCommandInfo
lwe:_List_1_TrimExcess_m2004514756_gshared
H5g:_Thread_ClrState_m822263449
ubf:_SimpleCollator_LastIndexOfOrdinalIgnoreCase_m550798345
EUg:_GUIStyle_INTERNAL_CALL_Internal_GetCursorStringIndex_m3074318281
Wm:FUNCTION_TABLE_viiiiiifiii
nua:__ZNK9GfxDevice13GetViewMatrixEv
Zma:__ZN17RemapPPtrTransferC2E24TransferInstructionFlagsb
F4:__ZN8TypeTree8BlobReadERPKhS1_ib
KLe:_ReadOnlyCollection_1_System_Collections_IList_get_IsFixedSize_m942145650_gshared
lla:__ZN11prophecysdk4half7convertEi
rib:__ZN6CameraD0Ev
Vcf:_ModulusRing_Multiply_m386339435
d9:__ZN31CanvasBatchIntermediateRenderer16StaticInitializeEPv
l$d:_GraphicRaycaster_U3CRaycastU3Em__0_m3971200721
TNe:_ReadOnlyCollection_1_System_Collections_IList_RemoveAt_m3004588099_gshared
VBd:_Decimal_op_Implicit_m4246329390
Bkf:_ArgumentNullException__ctor_m2252076819
P4a:__ZN10GameObjectC2E18MemLabelIdentifier18ObjectCreationMode
vNc:_raccess_guess_apple_double
Jyf:_ListDictionary_GetEnumerator_m1511032609
QFg:_TypeBuilder_get_FullName_m1626507516
Lwg:_SerializationInfo__ctor_m4016423422
BCa:__ZL18ProgramUniform1uivPK7ApiGLESjiihPKv
X0b:__ZN14Texture2DArray13RebuildMipMapEv
D5i:__ZN13Il2CppHashSetIPK17Il2CppGenericInstN6il2cpp8metadata21Il2CppGenericInstHashENS4_24Il2CppGenericInstCompareENSt3__29allocatorI10KeyWrapperIS2_EEEEC2EjRKS5_RKS6_
WDe:_Collection_1_Clear_m2734620236_gshared
GCj:__ZN6il2cpp2gc16GarbageCollector14RemoveWeakLinkEPPv
RVb:__ZN9ShaderLab20SerializedSubProgram14AddVectorParamEPKcii15ShaderParamTypei
Gse:_List_1_System_Collections_Generic_IEnumerableU3CTU3E_GetEnumerator_m3123730956_gshared
l$c:__ZN2UI14CanvasRenderer12CleanupClassEv
AQe:_ReadOnlyCollection_1_System_Collections_IEnumerable_GetEnumerator_m1734360860_gshared
ymh:_DefaultComparer__ctor_m1052417779_gshared
wfd:_SystemException__ctor_m2688248668
Oti:_ResourceSet_ReadResources_m1669023823
Dfb:__ZNK17FileSystemHandler6ParentERK13FileEntryDataRN4core12basic_stringIcNS3_20StringStorageDefaultIcEEEE
Kif:_PKCS12_RemoveCertificate_m1590055870
vrj:__ZN6il2cpp2vm6Thread7SetNameEP12Il2CppThreadP12Il2CppString
OFg:_TypeBuilder_get_DeclaringType_m3236598700
Xaa:__ZN13ScreenManager18SetAllowCursorLockEb
hAb:__ZN30RuntimeInitializeOnLoadManager15ClassMethodInfo8TransferI14SafeBinaryReadEEvRT_
GCb:__ZN9TextAsset8TransferI14SafeBinaryReadEEvRT_
hpg:__ZL73CanvasScaler_t2574720772_CustomAttributesCacheGenerator_m_ScreenMatchModeP21CustomAttributesCache
yP:__ZL22InitializeModule_Audiov
ODc:__ZN16Physics2DManager13DynamicUpdateEv
X9a:__ZN16MemoryFileSystem8IsLockedERK13FileEntryData
qOi:_Vector2_get_Item_m2792130561_AdjustorThunk
eLg:_MonoCMethod_Invoke_m931478014
Vti:_SatelliteContractVersionAttribute__ctor_m2605651717
Zk:_emscripten_glBindRenderbuffer
zGg:_EnumBuilder_HasElementTypeImpl_m1414733955
mmc:__Z32GUIStyle_Set_Custom_PropClippingP12Il2CppObjecti
ukd:_DecoderExceptionFallbackBuffer_GetNextChar_m1727394816
uIj:_GC_dirty_init
jnd:_Array_Copy_m1969461849
dwg:_MessageFormatter_ReadMethodResponse_m4134629501
cyj:__ZN6il2cpp2vm5Field14GetValueObjectEP9FieldInfoP12Il2CppObject
G_c:__ZNK2UI6Canvas16GetTargetDisplayEv
nHi:_PKCS12_GetSymmetricAlgorithm_m3196291685
WWi:_StatsScreen_Update_m2473670527
JLd:_Environment_get_OSVersion_m1247315981
W7:__ZN6Object17FindObjectsOfTypeEPKN5Unity4TypeER13dynamic_arrayIPS_Lj4EEb
Q4b:__ZNSt3__26vectorINS_4pairIiiEE13stl_allocatorIS2_L18MemLabelIdentifier1ELi16EEE21__push_back_slow_pathIKS2_EEvRT_
EGf:_Capture_get_Length_m1952322390
Pqc:__ZN9JSONWrite8TransferI4PPtrI9Texture2DEEEvRT_PKc17TransferMetaFlags
$pi:_AnimationOffsetPlayable_INTERNAL_CALL_GetRotation_m2705874827
cDb:__ZN13MonoBehaviour17RemoveFromManagerEv
Uib:__ZN12ImageFilters14AddImageFilterERK11ImageFilter
u$c:__ZL23RegisterModuleICalls_UIv
Arb:__ZL11DecodeValuePPKcS0_
afh:_ShimEnumerator_MoveNext_m2013866013_gshared
JU:__ZN13MemoryManagerC2Ev
xFa:__ZN12SkinMeshInfo10DeallocateEPS_
OAj:__ZNK6il2cpp5utils11StringUtils21CaseSensitiveComparerclEPKcS4_
HNi:_Transform_SetParent_m1963830867
aNa:__ZN20ArchiveStorageReader28AcquireAndPrefillUnusedBlockEjPNS_11CacheResultE
JZh:__Z78RuntimeInvoker_Il2CppObject_SByte_t454417549_SByte_t454417549_SByte_t454417549PK10MethodInfoPvPS2_
R0b:__Z12NHxRoughnessIA4_tEvP9Texture2DPT_iiii
MMi:_Touch_get_phase_m196706494_AdjustorThunk
_2i:__ZL25UnresolvedVirtualCall_105P12Il2CppObjecthPK10MethodInfo
mAi:_MethodDictionary_get_SyncRoot_m673971424
u8:__ZN18AsyncUploadManagerD2Ev
EXb:__ZN9Transform5ResetEv
dLb:__Z22TransferField_NonArrayI24GenerateTypeTreeTransfer16Converter_StringEvRK23StaticTransferFieldInfoR31RuntimeSerializationCommandInfoRT0_
HPc:_UNITY_FT_CMap_New
ewb:__ZNK17InstancedPropInfo21RenderSpriteInstancesERK15RenderNodeQueuePK17BatchInstanceDataj17ShaderChannelMask
oAf:_HttpWebRequest_System_Runtime_Serialization_ISerializable_GetObjectData_m3671622902
Oaa:__Z17MainLoopKeepalivePv
Bqi:_AnimatorControllerPlayable_INTERNAL_CALL_SetBoolString_m1232105510
JAi:_MatchCollection__ctor_m1944681790
S7c:_HMACSHA512__ctor_m1667460019
J1a:__Z24ScheduleCullingAllGroupsR8JobFenceRK22SceneCullingParameters4PPtrI6CameraERK13CullingOutputRK13dynamic_arrayIP12CullingGroupLj4EERKS_
Jcd:_ToBase64Transform_get_OutputBlockSize_m949275583
HKe:_Collection_1_set_Item_m3254085220_gshared
b1a:__Z14CalcHullBoundsPK8Vector3fPKhhRK5PlaneRK10Matrix4x4fR10MinMaxAABB
_tg:_RealProxy__ctor_m2147093603
z$g:_RaycastHit2D_get_point_m442317739_AdjustorThunk
rEb:__ZN11PreloadData39ShouldIgnoreInGarbageDependencyTrackingEv
lye:_List_1__ctor_m3511181530_gshared
GVa:__Z19SetupLODFadeKeywordR17ShaderPassContexti
cOe:_ReadOnlyCollection_1_get_Count_m2180604490_gshared
HLb:__Z18Transfer_BlittableI19StreamedBinaryWriteILb0EELb0E5RectTIfEEvRK29SerializationCommandArgumentsR31RuntimeSerializationCommandInfo
_Gj:_GC_set_fl_marks
QEa:__ZL25CheckCopyTextureArgumentsRK7ApiGLESP11GLESTextureS3_
o8:__ZN13dynamic_arrayI26EnlightenSystemInformationLj8EE6insertEPS0_PKS0_S4_
lPc:_tt_name_entry_ascii_from_utf16
G8e:_MulticastNotSupportedException__ctor_m2164514827
QEd:_DateTime_System_IConvertible_ToChar_m2489529194_AdjustorThunk
KKb:__Z29Transfer_Blittable_ArrayFieldI24GenerateTypeTreeTransferyEvRT_R9ArrayInfoRK23StaticTransferFieldInfo
GJ:__ZN4FMOD7SystemI9playSoundE17FMOD_CHANNELINDEXPNS_5SoundEbPPNS_7ChannelE
qii:_AttributeHelperEngine_GetRequiredComponents_m120894667
w5f:__ZL77Input_t1785128008_CustomAttributesCacheGenerator_Input_GetAxisRaw_m4133353720P21CustomAttributesCache
QY:__GLOBAL__sub_I_runtime_graphics_mesh2_lump_cpp
lhg:__ZL68PreferBinarySerialization_t2472773525_CustomAttributesCacheGeneratorP21CustomAttributesCache
ecg:__ZL127AnimationOffsetPlayable_t859920217_CustomAttributesCacheGenerator_AnimationOffsetPlayable_INTERNAL_CALL_SetRotation_m2224758383P21CustomAttributesCache
Ugj:__ZN6il2cpp2os4File4ReadEPNS0_10FileHandleEPciPi
cI:__ZN12AudioManager23VirtualRedirectTransferER18StreamedBinaryReadILb0EE
Ape:_List_1_Remove_m2616693989_gshared
Dtb:__ZN10VertexData13SwapEndianessEv
QQj:_realloc
hic:__Z57Register_UnityEngine_Transform_INTERNAL_get_localRotationv
Wvh:_ScrollRect_SetLayoutVertical_m1225848090
Kng:__ZL60Scrollbar_t3248359358_CustomAttributesCacheGenerator_m_ValueP21CustomAttributesCache
h8g:_Type_get_IsInterface_m3583817465
Wzb:__ZN30RuntimeInitializeOnLoadManager23VirtualRedirectTransferER17RemapPPtrTransfer
OUj:dynCall_viif
QLg:_MonoField_get_DeclaringType_m1591666235
nBh:_InternalEnumerator_1__ctor_m2111763266_AdjustorThunk
ZIf:_Enumerator_MoveNext_m4234629003
tS:__ZN11UnityEngine15CloudWebService13WWWRestClient21ParseHTTPHeaderStringEN4core12basic_stringIcNS2_20StringStorageDefaultIcEEEERNS0_16WWWRestHeaderMapERjPKc
YTc:_cf2_hint_lock
MIb:__ZL26Transfer_SimpleNativeClassI17RemapPPtrTransfer8GradientLb0EEvRK29SerializationCommandArgumentsR31RuntimeSerializationCommandInfo
y8i:__ZNK15dense_hashtableINSt3__24pairIK10KeyWrapperI13dynamic_arrayIPK10Il2CppTypeLj4EEEPFvvEEES8_N6il2cpp8metadata19Il2CppSignatureHashEN14dense_hash_mapIS8_SB_SF_NS8_14EqualsComparerINSE_22Il2CppSignatureCompareEEENS0_9allocatorISC_EEE9SelectKeyESJ_SL_E10test_emptyEj
Dgb:__ZNSt3__26vectorIN20ArchiveStorageHeader12StorageBlockE13stl_allocatorIS2_L18MemLabelIdentifier54ELi16EEE21__push_back_slow_pathIKS2_EEvRT_
Scj:__ZN6il2cpp6icalls8mscorlib6System8MonoType14get_attributesEP20Il2CppReflectionType
beb:__Z43DestroyWithoutLoadingButDontDestroyFromFilei
D7e:_MonoType_GetDefaultConstructor_m925465120
Y8g:_Type_IsArrayImpl_m3073208555
qVj:dynCall_viifffi
hTj:dynCall_viiiiiffi
p9f:__ZL95Physics2D_t2540166467_CustomAttributesCacheGenerator_Physics2D_Raycast_m2303387255____distance2P21CustomAttributesCache
Hc:_emscripten_glBlendFuncSeparate
qHg:_GenericTypeParameterBuilder_IsPrimitiveImpl_m1198748291
r_:__Z20scripting_string_newPKc
Bgc:__Z43Material_CUSTOM_Internal_CreateWithMaterialP12Il2CppObjectS0_
l0e:_Directory_GetCurrentDirectory_m44486537
dVh:__Z45RuntimeInvoker_RuntimeFieldHandle_t2331729674PK10MethodInfoPvPS2_
Lhg:__ZL56UnityEventBase_t828812576_CustomAttributesCacheGeneratorP21CustomAttributesCache
zBe:_Collection_1_System_Collections_ICollection_CopyTo_m1047946700_gshared
sei:__Z36RuntimeInvoker_Enumerator_t975728254PK10MethodInfoPvPS2_
erg:__ZL74BinCollisionScript_t479385200_CustomAttributesCacheGenerator_scoreEmptyBinP21CustomAttributesCache
cDd:_Convert_ToInt64_m4057339019
ACf:_AsnEncodedData_Default_m4197142414
iF:__Z103Register_UnityEngine_Experimental_Director_AnimatorControllerPlayable_INTERNAL_CALL_ResolveHashInternalv
gqj:__ZNSt3__218uninitialized_copyIPNS_4pairIK10KeyWrapperIP11Il2CppClassES4_EES8_EET0_T_SA_S9_
du:__ZNSt3__26__sortIRPFbPKN8Animator11AnimatorJobES4_EPS4_EEvT0_S9_T_
sH:__ZN17AudioCustomFilterD2Ev
ilc:__ZN11IMGUIModule26SetDeveloperConsoleVisibleEb
Rkc:__ZNK8GUIStyle13GetLineHeightEv
XDa:__ZN18GfxFramebufferGLES18ReleaseFramebufferEP17RenderSurfaceBaseP14GfxContextGLES
kxi:_Context_GetDynamicPropertyCollection_m1987747444
NDf:_X509Certificate2_get_Version_m1927399907
N2b:__ZN13ProduceHelperI6CameraLb0EE7ProduceE18MemLabelIdentifier18ObjectCreationMode
T0d:_Image_RadialCut_m3229543088
KT:__ZN19CloudServiceHandler34HandleSaveFileWebRequestPlayerLoopEv
Xz:__ZN7mecanim21ValueArrayReverseCopyEPKNS_18ValueArrayConstantEPKNS_10ValueArrayES2_PS3_PKi
dH:__Z31GetParentSampleClipFromInstancePN11SoundHandle8InstanceE
C_b:__ZNK28RectTransformPropertyBinding13GetFloatValueERKN11UnityEngine9Animation10BoundCurveE
A3a:__ZN6Camera22StandaloneCustomRenderENS_10RenderFlagEP6ShaderRKN4core12basic_stringIcNS3_20StringStorageDefaultIcEEEEPNS_21PerformRenderFunctionE
hNj:__ZN6il2cpp2os16ThreadLocalValue8GetValueEPPv
Q9i:__ZN6il2cpp2vm13MetadataCache14GetGenericInstEPKPK10Il2CppTypej
Kbd:_SHA384Managed_Initialize_m712692291
iCh:_InternalEnumerator_1__ctor_m2688327768_gshared
Pb:invoke_iiidii
VRf:__ZL60CallingConvention_t3354538265_CustomAttributesCacheGeneratorP21CustomAttributesCache
Aic:__Z52Object_CUSTOM_GetOffsetOfInstanceIDInCPlusPlusObjectv
cbg:__ZL124AnimatorControllerPlayable_t4078305555_CustomAttributesCacheGenerator_AnimatorControllerPlayable_PlayInFixedTime_m2966168794P21CustomAttributesCache
fO:__ZN9AudioClip15InitializeClassEv
np:setThrew
BRh:__Z36RuntimeInvoker_IntPtr_t_Il2CppObjectPK10MethodInfoPvPS2_
J0b:__ZL21BuildEmptyCubeTexturePKci11ColorRGBA3217TextureColorSpace
$Rb:__ZN14SafeBinaryRead21TransferSTLStyleArrayINSt3__26vectorIN9ShaderLab20SerializedSubProgramENS1_9allocatorIS4_EEEEEEvRT_17TransferMetaFlags
WSd:_StandaloneInputModule_set_cancelButton_m2642677329
Src:__Z15Transfer_StringI8JSONReadLb1EEvRK29SerializationCommandArgumentsR31RuntimeSerializationCommandInfo
Cka:__ZN6prcoreL17RemapGenericFloatI17TexFormatRGBFloat15TexFormatRGHalfEEvPKNS_9InnerInfoE
jXa:__Z25DoForwardShaderRenderLoopR17RenderLoopContextR13dynamic_arrayI16RenderObjectDataLj4EERK11CullResultsbbbN6Camera10RenderFlagE
LOc:_sfnt_load_face
Thf:_PKCS12_GetSymmetricAlgorithm_m1812022677
$3g:_UTF8Encoding_GetByteCount_m2372933408
hxi:_Context_get_NeedsContextSink_m1907794755
COc:_UNITY_ft_service_list_lookup
Pmf:_ARC4Managed_GenerateKey_m716135508
FIb:__Z18Transfer_BlittableI17RemapPPtrTransferLb1E11ColorRGBA32EvRK29SerializationCommandArgumentsR31RuntimeSerializationCommandInfo
N2h:__Z57RuntimeInvoker_Il2CppObject_PlayableHandleU26_t3483893774PK10MethodInfoPvPS2_
rkc:__ZN5IMGUI21SelectReceivingWindowER8GUIStateb
jD:__ZNK26AnimatorControllerPlayable17ValidateGoToStateERiS0_
QHh:_InternalEnumerator_1_get_Current_m3179981210_gshared
nbb:__ZN13BaseAllocator13TryDeallocateEPv
MMb:__Z29Transfer_Blittable_ArrayFieldI19StreamedBinaryWriteILb0EEfEvRT_R9ArrayInfoRK23StaticTransferFieldInfo
Vmd:_Array_CreateInstance_m1054139389
dSg:_GUIStyleState_GetGUIStyleState_m2816150617
DCh:_InternalEnumerator_1__ctor_m967618647_AdjustorThunk
F9a:__ZN16MemoryFileSystem5WriteER13FileEntryDatayPvPy
f0d:_LayoutGroup_GetAlignmentOnAxis_m1783063916
djb:__ZNSt3__26vectorIN12FlareManager10FlareEntryENS_9allocatorIS2_EEE21__push_back_slow_pathIKS2_EEvRT_
qDg:_Default_check_arguments_with_score_m1714931543
bbd:_SHA1_Create_m4086509717
xSh:__Z57RuntimeInvoker_Il2CppObject_RuntimeTypeHandle_t2330101084PK10MethodInfoPvPS2_
TUi:_UnityEvent_1_GetDelegate_m3098147632_gshared
zMg:_MonoMethodInfo_GetMethodInfo_m3298558752
PH:__ZN13AudioListener17RemoveFromManagerEv
Cd:_glAttachShader
WYd:_Dropdown_SetAlpha_m2769981009
NOa:__ZNK6Camera19GetProjectionMatrixEv
PRi:_Predicate_1_BeginInvoke_m1856151290_gshared
XR:__ZN11UnityEngine15CloudWebService10RestClientINS0_16WWWRestHeaderMapEE6SetUrlERKN4core12basic_stringIcNS4_20StringStorageDefaultIcEEEE
W0h:__Z139RuntimeInvoker_Il2CppObject_Il2CppObject_Int32_t2071877448_SByte_t454417549_SByte_t454417549_SByte_t454417549_SByte_t454417549_Il2CppObjectPK10MethodInfoPvPS2_
BJd:_StackTrace__ctor_m2404985356
Q2:__Z38PreallocateObjectFromPersistentManagerib
cFd:_DateTime_System_IConvertible_ToSingle_m3927769066
UIf:_CostDelegate__ctor_m80452417
SY:__GLOBAL__sub_I_runtime_interfaces_lump_cpp
xnb:__ZNK9Texture2D20GetUnscaledTextureIDEv
nDd:_Convert_ToSByte_m883113940
D_j:_glFenceSync__wrapper
dMd:_Exception_get_Message_m173095527
Gmg:__ZL53InputField_t1631627530_CustomAttributesCacheGeneratorP21CustomAttributesCache
zUd:_ButtonClickedEvent__ctor_m938038541
OQb:__ZN18StreamedBinaryReadILb0EE21TransferSTLStyleArrayI13dynamic_arrayI4AABBLj4EEEEvRT_17TransferMetaFlags
M9g:_UInt16_System_IConvertible_ToDouble_m4100549304_AdjustorThunk
MUh:__Z116RuntimeInvoker_Il2CppObject_Il2CppObject_Il2CppObject_Int32_t2071877448_Int32_t2071877448_MonoIOErrorU26_t1029615899PK10MethodInfoPvPS2_
Lna:__Z29ClearRepeatingLogMessageStatev
Bjc:__ZN13TextRendering17TextMeshGenerator13GetTextOffsetERK5RectTIfE
L_i:_HashSet_1_OnDeserialization_m1222146673_gshared
ogd:_Single_System_IConvertible_ToInt16_m962677079
I7:__ZN21EnlightenSceneMappingaSERKS_
kJe:_Collection_1_SetItem_m546457615_gshared
BNj:__ZNK6il2cpp8metadata21Il2CppGenericInstHashclEPK17Il2CppGenericInst
Cgd:_Single_System_IConvertible_ToUInt32_m2447833283
vPe:_ReadOnlyCollection_1_System_Collections_IList_Add_m3806843030_gshared
QIa:__ZN7ApiGLESD2Ev
f4a:__ZN9Transform47ClearTransformHierarchyAndApplyToSerializedDataEv
lGh:_InternalEnumerator_1_get_Current_m4083613828_AdjustorThunk
j9c:_RijndaelManaged_GenerateKey_m3366247933
T$e:_BinaryReader_ReadUInt64_m1893783375
kji:_Bounds_op_Equality_m2161830280
C7a:__ZN17PersistentManager9AddStreamEv
eVj:dynCall_fidi
ejj:__ZN15dense_hashtableINSt3__24pairIK10KeyWrapperINS1_IPK9FieldInfoP11Il2CppClassEEEjEES9_17ReflectionMapHashIS8_EN14dense_hash_mapIS9_jSD_NS9_14EqualsComparerINS0_8equal_toIS8_EEEENS0_9allocatorISB_EEE9SelectKeyESI_SK_E12resize_deltaEjj
lnc:__Z47Register_UnityEngine_GUIStyle_set_imagePositionv
Omc:__Z49GUIStyle_CUSTOM_INTERNAL_CALL_Internal_DrawCursor13Il2Cpp_IntPtrRK5RectTIfEP12Il2CppObjectiRK10ColorRGBAf
wuh:_ScrollRect_set_movementType_m3292965850
DYf:__ZL59AttributeTargets_t1984597432_CustomAttributesCacheGeneratorP21CustomAttributesCache
H0g:_RectTransform_set_anchorMin_m4247668187
MS:__ZN11UnityEngine15CloudWebService14RestDownloaderD2Ev
p8a:__Z29StdTemplateConversionFunctionIjhEbPvR14SafeBinaryRead
Vjb:__ZN22RenderingCommandBufferC2ERKS_
Q3i:__ZL25UnresolvedVirtualCall_149P12Il2CppObject23SpriteState_t1353336012S1_PK10MethodInfo
ipe:_List_1_GrowIfNeeded_m2986672263_gshared
LAh:_ArrayReadOnlyList_1_Remove_m2325516426_gshared
Xwd:_Hashtable_get_Count_m830088216
a9b:__ZNK13MonoBehaviour13GetScriptTypeEv
Mca:__ZN13RenderTexture12SetDimensionE16TextureDimension
aKi:_ScriptableObject_CreateInstance_m3921674852
re:_SDL_FreeRW
igf:_PKCS1_OS2IP_m1273945439
kbd:_SHA1Internal_FillBuff_m891541953
U$f:__ZL62ResolveEventHandler_t3842432458_CustomAttributesCacheGeneratorP21CustomAttributesCache
Y$c:__Z34CanvasRenderer_Get_Custom_PropCullP12Il2CppObject
nAh:_ArrayReadOnlyList_1_get_IsReadOnly_m2717922212_gshared
tN:__ZN20SoundChannelInstance8getDelayE14FMOD_DELAYTYPEPjS1_
$eb:__ZN21AssetBundleFileSystemC2EPKc
v2h:__Z113RuntimeInvoker_Int32_t2071877448_Vector2_t2243707579_Vector2_t2243707579_ContactFilter2D_t1672660996_Il2CppObjectPK10MethodInfoPvPS2_
$Rh:__Z61RuntimeInvoker_Void_t1841601450_Il2CppObject_Int64_t909078037PK10MethodInfoPvPS2_
Y1d:_InputField_set_customCaretColor_m3534590098
Guh:_ScrollRect_set_viewport_m323693490
A1:__ZN10UnitySceneD0Ev
FUe:_NumberFormatter_FormatExponential_m3975285307
uJc:__ZNSt3__26vectorIN20TextRenderingPrivate8FontImpl13CharacterInfoE13stl_allocatorIS3_L18MemLabelIdentifier1ELi16EEE8__appendEj
v:tempBigInt
ze:_emscripten_glVertexAttrib1fv
ASb:__ZNSt3__26vectorIN9ShaderLab20SerializedSubProgram12UAVParameterENS_9allocatorIS3_EEE7reserveEj
sgi:_AnimationCurve_Init_m1486386337
imi:_Component_GetComponents_m3712441745
smg:__ZL79GraphicRaycaster_t410733016_CustomAttributesCacheGenerator_U3CU3Ef__amU24cache0P21CustomAttributesCache
I2d:_InputField_get_selectionAnchorPosition_m466595604
aYf:__ZL99Thread_t241561612_CustomAttributesCacheGenerator_Thread_t241561612____ExecutionContext_PropertyInfoP21CustomAttributesCache
Akd:_DecoderReplacementFallback_get_DefaultString_m3399348550
xUi:_UnityAction_4_Invoke_m3312096275_gshared
sqg:__ZL111LayoutUtility_t4076838048_CustomAttributesCacheGenerator_LayoutUtility_U3CGetPreferredHeightU3Em__5_m1524880643P21CustomAttributesCache
Mci:__Z57RuntimeInvoker_ResourceInfo_t3933049236_Int32_t2071877448PK10MethodInfoPvPS2_
Mkj:__ZN24dense_hashtable_iteratorINSt3__24pairIK10KeyWrapperINS1_IPK10MethodInfoP11Il2CppClassEEEjEES9_17ReflectionMapHashIS8_EN14dense_hash_mapIS9_jSD_NS9_14EqualsComparerINS0_8equal_toIS8_EEEENS0_9allocatorISB_EEE9SelectKeyESI_SK_E30advance_past_empty_and_deletedEv
m1g:_RectTransformUtility_ScreenPointToRay_m1842507230
N2a:__ZN16ReflectionProbes16UpdateSampleDataEv
eSh:__Z71RuntimeInvoker_Int32_t2071877448_Il2CppObject_Il2CppObject_Il2CppObjectPK10MethodInfoPvPS2_
JEb:__ZN14SafeBinaryRead21TransferSTLStyleArrayI10vector_setI4PPtrI10MonoScriptENSt3__24lessIS4_EE13stl_allocatorIS4_L18MemLabelIdentifier76ELi16EEEEEvRT_17TransferMetaFlags
cWh:__Z103RuntimeInvoker_Il2CppObject_Il2CppObject_StreamingContext_t1417235061_ISurrogateSelectorU26_t2635255864PK10MethodInfoPvPS2_
evi:_SafeHandle_Finalize_m1839546519
Dsb:__ZN14Texture2DArray5ResetEv
qtc:__ZN8JSONRead21TransferSTLStyleArrayINSt3__26vectorI10RectOffset13stl_allocatorIS3_L18MemLabelIdentifier1ELi16EEEEEEvRT_S5_17TransferMetaFlags
eKh:_InternalEnumerator_1_MoveNext_m252820768_AdjustorThunk
Sxi:_Context_AllocateNamedDataSlot_m3200404053
xqa:__ZN14BatchAllocator6CommitE18MemLabelIdentifier
LCf:_X509EnhancedKeyUsageExtension_Decode_m3866320499
BUe:_NumberFormatter_AppendIntegerStringWithGroupSeparator_m1401773574
Xye:_List_1_Remove_m1237648310_gshared
ppf:_CipherSuite_get_ServerHMAC_m3566778727
EOf:__ZL64DebuggerBrowsableState_t944457511_CustomAttributesCacheGeneratorP21CustomAttributesCache
We:_JS_Sound_Play
g1d:_Image_IsRaycastLocationValid_m864962354
CRb:__ZN9ShaderLab16SerializedShader8TransferI14SafeBinaryReadEEvRT_
Wqa:__ZN5Mutex7TryLockEv
lRh:__Z51RuntimeInvoker_Int16_t4041245914_Decimal_t724701077PK10MethodInfoPvPS2_
Bt:__ZN7mecanim8skeleton13SkeletonAlignEPKNS0_8SkeletonERKN4math7_float4ES7_i
A1b:__ZN19ShaderPropertySheet16SetVectorIndexedEN9ShaderLab16FastPropertyNameEifRK8Vector4fNS_8SetFlagsE
Bq:__ZN14SafeBinaryRead21TransferSTLStyleArrayIN4core12basic_stringIcNS1_20StringStorageDefaultIcEEEEEEvRT_17TransferMetaFlags
uug:_RemotingConfiguration_RegisterWellKnownServiceType_m2491506630
X4f:__ZL89Screen_t786852042_CustomAttributesCacheGenerator_Screen_t786852042____height_PropertyInfoP21CustomAttributesCache
PSf:__ZL55_TypeBuilder_t2783404358_CustomAttributesCacheGeneratorP21CustomAttributesCache
R4i:__ZL25UnresolvedVirtualCall_204P12Il2CppObjectPK10MethodInfo
T8a:__Z29StdTemplateConversionFunctionIayEbPvR14SafeBinaryRead
Ise:_List_1_System_Collections_IEnumerable_GetEnumerator_m2923618987_gshared
Fue:_List_1_System_Collections_IList_IndexOf_m4061554721_gshared
qT:__ZN11UnityEngine15CloudWebService14DataDispatcher4StopEv
CSb:__ZNSt3__26vectorIN9ShaderLab20SerializedSubProgram12UAVParameterENS_9allocatorIS3_EEE8__appendEj
_De:_Collection_1_GetEnumerator_m434271983_gshared
Fmj:__ZNK15dense_hashtableINSt3__24pairIK10KeyWrapperINS1_IPK9EventInfoP11Il2CppClassEEEjEES9_17ReflectionMapHashIS8_EN14dense_hash_mapIS9_jSD_NS9_14EqualsComparerINS0_8equal_toIS8_EEEENS0_9allocatorISB_EEE9SelectKeyESI_SK_E12test_deletedERK24dense_hashtable_iteratorISB_S9_SD_SM_SI_SK_E
sdd:_X509Certificate_ToString_m1582581274
wgh:_Enumerator_get_Current_m2986380627_gshared
lfa:__ZN17ScriptingGCHandle7AcquireE18ScriptingObjectPtr25ScriptingGCHandleWeakness
Twi:_LifetimeServices_set_LeaseTime_m1487876644
CEg:_ConstructorBuilder_not_supported_m3687319507
DMf:__ZL48IList_t3321498491_CustomAttributesCacheGeneratorP21CustomAttributesCache
tgd:_Single_System_IConvertible_ToInt64_m3555853323_AdjustorThunk
dLh:_InternalEnumerator_1__ctor_m3901400705_AdjustorThunk
XTj:dynCall_iifiii
y5h:__Z48RuntimeInvoker_PersistentListenerMode_t857969000PK10MethodInfoPvPS2_
XVh:__Z87RuntimeInvoker_Il2CppObject_Il2CppObject_Il2CppObject_Il2CppObject_StringU26_t638738783PK10MethodInfoPvPS2_
kpa:__Z21HasAlphaTextureFormat13TextureFormat
KO:__ZN12AudioManager6UpdateEv
ipa:__ZN14ImageReference9BlitImageERKS_NS_8BlitModeE
oMg:_MonoMethod_get_MethodHandle_m1882915015
Zr:__ZN8Animator12AddToManagerEv
SQf:__ZL93ConstructorInfo_t2851816542_CustomAttributesCacheGenerator_ConstructorInfo_Invoke_m2144827141P21CustomAttributesCache
aEb:__ZN23CachedSerializationDataD2Ev
n2a:__ZNK25CameraStackRenderingState31CalculateStereoCameraTargetTypeEv
vlb:__ZN14RenderSettings23VirtualRedirectTransferER14SafeBinaryRead
fwc:__ZNK13b2CircleShape5CloneEP16b2BlockAllocator
IBj:__ZN6il2cpp2os10ThreadImpl15CurrentThreadIdEv
SIe:_Collection_1_System_Collections_IList_get_IsReadOnly_m4005091053_gshared
Kw:__ZN30dense_hashtable_const_iteratorINSt3__24pairIKN11UnityEngine9Animation14GenericBindingENS3_10BoundIndexEEES4_NS3_25GenericBindingHashFunctorEN14dense_hash_mapIS4_S6_S8_NS3_30GenericBindingValueArrayUniqueE13stl_allocatorIS7_L18MemLabelIdentifier1ELi16EEE9SelectKeyESA_SD_E30advance_past_empty_and_deletedEv
J6d:_Array_InternalArray__ICollection_Contains_TisColor32_t874517518_m2818328910_gshared
qkb:__ZN17GlobalGameManager8TransferI17RemapPPtrTransferEEvRT_
ikf:_AppDomainInitializer_EndInvoke_m4003801172
Z4i:__ZL25UnresolvedVirtualCall_212P12Il2CppObjecti38CustomAttributeNamedArgument_t94157543PK10MethodInfo
y$g:_RaycastHit2D_get_point_m442317739
_Zh:__Z72RuntimeInvoker_Il2CppObject_Il2CppObject_Decimal_t724701077_Il2CppObjectPK10MethodInfoPvPS2_
hlb:__ZN16LevelGameManager8TransferI18StreamedBinaryReadILb0EEEEvRT_
QWc:_UNITY_tt_face_load_fpgm
Xwb:__ZN12InputManagerD0Ev
BLj:__ZN6il2cpp6icalls8mscorlib6System11Diagnostics10StackTrace9get_traceEP15Il2CppExceptionib
QVe:_NumberFormatInfo_set_NumberNegativePattern_m1050626150
A8i:__ZN15dense_hashtableINSt3__24pairIK10KeyWrapperI13dynamic_arrayIPK10Il2CppTypeLj4EEEPFvvEEES8_N6il2cpp8metadata19Il2CppSignatureHashEN14dense_hash_mapIS8_SB_SF_NS8_14EqualsComparerINSE_22Il2CppSignatureCompareEEENS0_9allocatorISC_EEE9SelectKeyESJ_SL_E8min_sizeEjj
t6h:__Z37RuntimeInvoker_FillMethod_t1640962579PK10MethodInfoPvPS2_
QTg:_GUIStyle_get_overflow_m1125058093
Qsi:_AnimatorControllerPlayable_Play_m4092315465
Hoa:__ZNK16LightmapSettings14GetLightProbesEv
Duh:_ScrollRect_get_scrollSensitivity_m1160815603
Q2g:_UnicodeEncoding_GetBytes_m1337660232
zPb:__Z18Transfer_BlittableI18StreamedBinaryReadILb0EELb1EtEvRK29SerializationCommandArgumentsR31RuntimeSerializationCommandInfo
VQj:_posix_memalign
Q1b:__ZN13ProduceHelperI12MeshRendererLb0EE7ProduceE18MemLabelIdentifier18ObjectCreationMode
zVi:_BinCollisionScript_Start_m3958157723
$Ae:_List_1_get_Count_m1249351212_gshared
bLh:_InternalEnumerator_1_get_Current_m747506907_AdjustorThunk
wji:_Camera_get_eventMask_m4241372419
HRg:_GUILayoutUtility_LayoutFromEditorWindow_m1847418289
awf:_SslClientStream_get_ClientCertSelectionDelegate_m2316959461
Gud:_SynchronizedArrayListWrapper_get_SyncRoot_m1466044127
T2:__ZNK15MonoScriptCache7ReleaseEv
W$i:__ZN6il2cpp2vm5Class13HasReferencesEP11Il2CppClass
jg:_glBindTexture
XDe:_Collection_1_ClearItems_m3585785594_gshared
iPj:_snprintf
ypg:__ZL84HorizontalOrVerticalLayoutGroup_t1968298610_CustomAttributesCacheGenerator_m_SpacingP21CustomAttributesCache
YCg:_Binder__ctor_m1361613966
F2d:_InputField_set_caretPosition_m888572237
THg:_ILGenerator__cctor_m3943061018
Xtd:_ArrayListWrapper_Clone_m1506311066
koi:_Event_get_character_m3740896233
zma:__Z36scripting_liveness_calculation_begin17ScriptingClassPtriPFvPP12Il2CppObjectiPvES3_PFvvES7_
Epf:_CipherSuite_set_Context_m4127897124
LGa:__ZN16UniformCacheGLES6CreateERK20GpuProgramParameters
i4g:_UTF8Encoding_Fallback_m811555654
Ubh:_UInt64_CompareTo_m3513742483
ZJi:_ScriptableObject_t1975622470_marshal_pinvoke_cleanup
Ald:_Encoding_GetString_m1894033578
qOe:_ReadOnlyCollection_1_System_Collections_IList_Clear_m1918003010_gshared
sRi:_Nullable_1_Equals_m3860982732_gshared
VXj:_emscripten_glGetProgramInfoLog__wrapper
ucg:__ZL94Font_t4239498691_CustomAttributesCacheGenerator_Font_InvokeTextureRebuilt_Internal_m2007522718P21CustomAttributesCache
m4g:_UTF8Encoding_InternalGetChars_m373801468
D5:__ZN17PersistentManager23DestroyFromFileInternalEi
$7f:__ZL98Object_t1021602117_CustomAttributesCacheGenerator_Object_DoesObjectWithInstanceIDExist_m2570795274P21CustomAttributesCache
gKi:_ScrollViewState__ctor_m535685782
BLd:_Enum_ToString_m2112979707
ULi:_TextGenerator_ValidatedSettings_m1640214759
nUf:__ZL55SoapServices_t3397513225_CustomAttributesCacheGeneratorP21CustomAttributesCache
Qrg:_MonoMethodMessage_get_MethodName_m3580519713
vv:__ZN26AnimatorControllerPlayable18PrepareForPlaybackERN7mecanim6memory9AllocatorE
KKd:_Enum_t2459695545_marshal_pinvoke_cleanup
d4g:_UTF8Encoding_GetBytes_m4170182058
hle:_Mesh_GetAllocArrayFromChannel_TisColor32_t874517518_m2030100417_gshared
dga:__ZN22CreateGpuProgramOutputC2Ev
vFf:_X509Chain__ctor_m2242540866
UOg:_Object__ctor_m197157284
_6f:__ZL99SortingLayer_t221838959_CustomAttributesCacheGenerator_SortingLayer_GetLayerValueFromID_m4029056996P21CustomAttributesCache
D2e:_MemoryStream_InternalConstructor_m2423667240
gEi:_CapturingGroup_set_Index_m2175936006
wOh:__Z70RuntimeInvoker_Il2CppObject_Il2CppObject_Il2CppObject_SByte_t454417549PK10MethodInfoPvPS2_
Osg:_SoapMethodAttribute_SetReflectionObject_m3431595769
gxh:_Slider_set_maxValue_m2951480075
t2b:__ZN8GUILayer12CleanupClassEv
T3d:_InputField_OnSubmit_m2856515494
V$i:__ZN6il2cpp2vm5Class4InitEP11Il2CppClass
ha:invoke_vidi
EOi:_Vector2_op_Subtraction_m1984215297
Zhf:_DeriveBytes_Adjust_m105515328
d_c:__ZN2UI14CanvasRenderer17SyncDirtyElementsER8JobFence
wPb:__Z18Transfer_BlittableI18StreamedBinaryReadILb0EELb0ExEvRK29SerializationCommandArgumentsR31RuntimeSerializationCommandInfo
jWd:_ColorBlock_op_Inequality_m1517672458
LAj:__ZN6il2cpp5utils11StringUtils15StringDuplicateEPKc
F4a:__Z15CanAddComponentR10GameObjectPKN5Unity4TypeE
yfa:__ZNK9ShaderLab21ShaderRasterStateDesc16ToGfxRasterStateEPK19ShaderPropertySheetS3_R14GfxRasterState
wV:_tlsf_memalign
cAg:_CspParameters__ctor_m2480441577
qNj:__ZN6il2cpp2os9EventImplC2Ebb
txi:_DynamicPropertyCollection_NotifyMessage_m840388347
qFi:_Uri_ParseUri_m5711497
vB:__ZN4PPtrI13MonoBehaviourE8TransferI19StreamedBinaryWriteILb0EEEEvRT_
ucb:__ZNK5Unity9Component26GetTypeInfoVirtualInternalEv
J$:__Z20IsMatrixBuiltinParamPKcPi
ZEe:_Collection_1_CheckWritable_m2467777750_gshared
wng:__ZL108MaskableGraphic_t540192618_CustomAttributesCacheGenerator_MaskableGraphic_ParentMaskStateChanged_m3643747340P21CustomAttributesCache
Bkj:__ZN15dense_hashtableINSt3__24pairIK10KeyWrapperINS1_IPK10MethodInfoP11Il2CppClassEEEjEES9_17ReflectionMapHashIS8_EN14dense_hash_mapIS9_jSD_NS9_14EqualsComparerINS0_8equal_toIS8_EEEENS0_9allocatorISB_EEE9SelectKeyESI_SK_E16reset_thresholdsEv
i1b:__ZN8Renderer19PostInitializeClassEv
iMc:__ZN20TextRenderingPrivate15DynamicFontDataD2Ev
FBh:_InternalEnumerator_1_get_Current_m1943362081_AdjustorThunk
hPi:_Vector3_get_sqrMagnitude_m1814096310_AdjustorThunk
SJj:__ZN6il2cpp6icalls8mscorlib6System8Delegate23CreateDelegate_internalEP20Il2CppReflectionTypeP12Il2CppObjectP22Il2CppReflectionMethodb
kDg:_Default_check_type_m2363631305
nDb:__ZN18DelayedCallManager18CancelCallDelayed2E4PPtrI6ObjectEPF15CallObjectStatePS1_PvES7_
zue:_List_1__cctor_m911493842_gshared
pri:_AnimatorControllerPlayable_INTERNAL_CALL_GetLayerIndexInternal_m1847150746
sbb:__ZN25ThreadsafeLinearAllocator10ReallocateEPvji
lFb:__Z18Transfer_BlittableI14SafeBinaryReadLb1E11QuaternionfEvRK29SerializationCommandArgumentsR31RuntimeSerializationCommandInfo
Dbe:_Array_InternalArray__IndexOf_TisRaycastHit2D_t4063908774_m3739817942_gshared
ZMg:_MonoProperty_GetAccessors_m3704698731
oVh:__Z146RuntimeInvoker_Il2CppObject_Int32_t2071877448_Il2CppObject_ObjectU5BU5DU26_t3223402458_Il2CppObject_Il2CppObject_Il2CppObject_ObjectU26_t597476745PK10MethodInfoPvPS2_
fJj:_GC_disable
Qtb:__ZN10Matrix4x4f8TransferI14SafeBinaryReadEEvRT_
T5e:_UnmanagedMemoryStream_ReadByte_m2501145010
nwg:_ObjectRecord_UnchainFixup_m3025030310
sv:__ZN14AvatarPlayback8StopTimeEv
Y5:__Z6AppendRKN4core12basic_stringIcNS_20StringStorageDefaultIcEEEEPKc
TKf:__ZL60MulticastDelegate_t3201952435_CustomAttributesCacheGeneratorP21CustomAttributesCache
yma:__ZL14OnWorldStoppedv
XMb:__Z18Transfer_BlittableI18StreamedBinaryReadILb1EELb0E8Vector3fEvRK29SerializationCommandArgumentsR31RuntimeSerializationCommandInfo
reb:__ZN14CachingManager15ClearTempFolderEv
zmg:__ZL61Image_t2042527209_CustomAttributesCacheGenerator_m_FillCenterP21CustomAttributesCache
Mza:__ZN7ApiGLES18ClearBufferSubDataEjN2gl12BufferTargetEll
OMi:_Touch_get_type_m3264731406_AdjustorThunk
pbc:__Z37Camera_Get_Custom_PropAllCamerasCountv
Ysb:__ZN14Texture2DArray8TransferI18StreamedBinaryReadILb0EEEEvRT_
Frj:__ZN6il2cpp6icalls8mscorlib6System5Array9GetLengthEP11Il2CppArrayi
K$a:__Z18ApplyOcclusionMaskR19ProbeOcclusionCacheRK17LightProbeContextRK10RenderNodeb
zwa:__ZN13GfxDeviceGLES13AfterDrawCallEv
X1e:_FileStreamAsyncResult__ctor_m1096228032
rRc:_Split_Cubic
eb:invoke_fiiii
x7f:__ZL78Time_t31991979_CustomAttributesCacheGenerator_Time_get_unscaledTime_m862335845P21CustomAttributesCache
_Gd:_DBNull_System_IConvertible_ToSByte_m1228193074
EDe:_Collection_1__ctor_m2818834331_gshared
wke:_Array_InternalArray__get_Item_TisUICharInfo_t3056636800_m3872982785_gshared
pxe:_List_1__ctor_m2168280176_gshared
KBj:__ZN6il2cpp2os10ThreadImpl22CreateForCurrentThreadEv
VGe:_Collection_1_Insert_m3041550124_gshared
x1e:_FileStream_FlushBuffer_m2594140542
Gnc:__Z64Register_UnityEngine_GUIStyle_GetFontInternalDuringLoadingThreadv
pKe:_Collection_1_System_Collections_IList_get_Item_m1995028750_gshared
rFj:__ZN6il2cpp2vm8Profiler12GCHeapResizeEx
mVj:dynCall_viiifi
CDa:__ZN18GfxFramebufferGLES20ActiveContextChangedEPP17RenderSurfaceBaseS2_
dZa:__ZN19ShaderPropertySheet17UpdateTextureInfoEiN9ShaderLab16FastPropertyNameEPK10TextureRef
yDa:__Z19PluginsRenderMarkeri
d8f:__ZL80Object_t1021602117_CustomAttributesCacheGenerator_Object_Instantiate_m2439155489P21CustomAttributesCache
mC:__ZN10HumanTrait18InitializeBoneNameEv
aFi:__ZN23InterfaceActionInvoker1ItE6InvokeEjP11Il2CppClassP12Il2CppObjectt
Csb:__ZN14Texture2DArray21AwakeFromLoadThreadedEv
pQb:__Z29Transfer_Blittable_ArrayFieldI18StreamedBinaryReadILb0EEyEvRT_R9ArrayInfoRK23StaticTransferFieldInfo
EHi:_X509CertificateEnumerator_get_Current_m3129374511
Bnh:_EqualityComparer_1_get_Default_m875724809_gshared
wzj:__ZNSt3__214__split_bufferIN6il2cpp2vm5Image20EmbeddedResourceDataERNS_9allocatorIS4_EEEC2EjjS7_
QQa:__ZN5Image13ReformatImageERK14ImageReferenceii13TextureFormatNS0_8BlitModeE
$Rf:__ZL57DispIdAttribute_t607560947_CustomAttributesCacheGeneratorP21CustomAttributesCache
BH:__ZN12AudioManager17RemoveAudioSourceEP11AudioSource
Smi:_CullingGroup_Finalize_m3172731580
XQi:_AesManaged_get_KeySize_m2773901127
lke:_Array_InternalArray__get_Item_TisUInt64_t2909196914_m2580870875_gshared
upj:__ZN15dense_hashtableINSt3__24pairIK10KeyWrapperINS1_IP11Il2CppClassjEEES4_EES6_N6il2cpp8metadata14ArrayClassHashEN14dense_hash_mapIS6_S4_SB_NS6_14EqualsComparerINSA_17ArrayClassCompareEEENS0_9allocatorIS8_EEE9SelectKeyESF_SH_E4swapERSK_
y$b:__ZN13ProduceHelperI14SpriteRendererLb0EE7ProduceE18MemLabelIdentifier18ObjectCreationMode
IP:__ZN5physx14PxLightCpuTask12addReferenceEv
dEc:__Z10b2DistanceP16b2DistanceOutputP14b2SimplexCachePK15b2DistanceInput
ypb:__ZN21EnlightenSceneMapping8TransferI19StreamedBinaryWriteILb0EEEEvRT_
txj:__ZN6il2cpp2gc16GarbageCollector19InitializeFinalizerEv
Wjc:__ZN10GUIManager10DoGUIEventER10InputEventb
Wpf:_Context_get_ClientWriteKey_m2235605337
Kdh:_Enumerator__ctor_m3597047336_AdjustorThunk
hGj:_GC_bl_init_no_interiors
w0:__Z20CalculateSqrDistanceRK8Vector3fRK4AABB
TXh:__Z48RuntimeInvoker_Byte_t3683104436_Int64_t909078037PK10MethodInfoPvPS2_
Vzj:__ZN6il2cpp2vm12GenericClass8GetClassEP18Il2CppGenericClass
xL:__Z32AudioMixerDuckingProcessCallbackP21UnityAudioEffectStatePfS1_jii
ZDg:_CustomAttributeTypedArgument_GetHashCode_m999147081_AdjustorThunk
o0b:__ZN26CustomRenderTextureManagerD2Ev
G1e:_FileStream_Read_m3880951166
hI:__ZN12AudioManager8TransferI24GenerateTypeTreeTransferEEvRT_
fja:__Z25GetBytesFromTextureFormat13TextureFormat
c3h:__Z105RuntimeInvoker_Void_t1841601450_Int32_t2071877448_Single_t2076509932_Int32_t2071877448_Single_t2076509932PK10MethodInfoPvPS2_
fpa:__ZN9Texture3D19UnloadFromGfxDeviceEb
jTj:dynCall_iiffi
Sje:_Array_InternalArray__get_Item_TisInt16_t4041245914_m2533263979_gshared
Si:_emscripten_webgl_init_context_attributes
Y_f:__ZL67Math_t2022911894_CustomAttributesCacheGenerator_Math_Min_m105057611P21CustomAttributesCache
LB:__ZN16MecanimAnimation25RegisterIAnimationBindingEPKN5Unity4TypeEiP17IAnimationBinding
P3:__Z32scripting_class_get_assemblyname17ScriptingClassPtr
iEc:__ZN9b2Simplex9ReadCacheEPK14b2SimplexCachePK15b2DistanceProxyRK11b2TransformS5_S8_
xih:_Dictionary_2_Resize_m2532139610_gshared
iLi:_StackTraceUtility__cctor_m1132099289
Sye:_List_1_IndexOf_m2019441835_gshared
n7g:_TimeSpan_Equals_m2029123271_AdjustorThunk
uaj:__ZN6il2cpp2vm13MetadataCache23GetInvokerMethodPointerEPK10MethodInfoPK20Il2CppGenericContext
SHa:__ZN9GfxDevice21RegisterNativeTextureE9TextureIDi16TextureDimension
uNd:_CultureInfo__ctor_m456863818
TKj:__ZN6il2cpp6icalls8mscorlib6System10Reflection4Emit11TypeBuilder20create_generic_classEP27Il2CppReflectionTypeBuilder
Jdj:__ZNSt3__26vectorIPK10MethodInfoNS_9allocatorIS3_EEE26__swap_out_circular_bufferERNS_14__split_bufferIS3_RS5_EE
Yne:_Enumerator_MoveNext_m2504790928_gshared
Eog:__ZL61Slider_t297367283_CustomAttributesCacheGenerator_m_HandleRectP21CustomAttributesCache
TV:__ZN3WWW20GetCachedErrorStringEv
GKi:_SliderState__ctor_m1096533539
rWb:__ZN12ScriptMapperD2Ev
qjg:__ZL85AxisEventData_t1524870173_CustomAttributesCacheGenerator_U3CmoveDirU3Ek__BackingFieldP21CustomAttributesCache
c8c:_KeyedHashAlgorithm_Dispose_m1864300576
xHi:_X509Certificate_PEM_m49854707
yif:_PKCS12_get_RNG_m3620550062
OCf:_X509BasicConstraintsExtension__ctor_m3320418592
HGi:_ExtendedKeyUsageExtension_Decode_m901297139
yTb:__Z32TransferEnumWithNameForceIntSizeI14SafeBinaryRead7FogModeEvRT_RT0_PKc17TransferMetaFlags
yhc:__Z52Register_UnityEngine_RenderTexture_Internal_GetWidthv
yNf:__ZL89SafeWaitHandle_t481461830_CustomAttributesCacheGenerator_SafeWaitHandle__ctor_m1710231470P21CustomAttributesCache
RHj:_GC_check_leaked
$Ub:__ZN9ShaderLab20SerializedSubProgram16TextureParameter8TransferI19StreamedBinaryWriteILb0EEEEvRT_
_ee:_Array_InternalArray__Insert_TisVector4_t2243707581_m1643342708_gshared
Qqh:_Mask_OnSiblingGraphicEnabledDisabled_m865494155
rzf:_KeysCollection_System_Collections_ICollection_get_SyncRoot_m2289369147
yT:__ZN11UnityEngine15CloudWebService16SessionContainer8AddEventEPNS0_14CloudEventInfoE
NGa:__Z4TrimRKN4core12basic_stringIcNS_20StringStorageDefaultIcEEEES5_
oyh:_Text_set_resizeTextMaxSize_m4034967714
eNf:__ZL55GuidAttribute_t222072359_CustomAttributesCacheGeneratorP21CustomAttributesCache
EPg:_GUIStyle_SetDefaultFont_m2095841351
KDg:_CustomAttributeNamedArgument_Equals_m2691468532
bKf:__ZL74String_t_CustomAttributesCacheGenerator_String_Concat_m3881798623____args0P21CustomAttributesCache
fVf:__ZL103CryptoConfig_t896479599_CustomAttributesCacheGenerator_CryptoConfig_CreateFromName_m2169102076____args1P21CustomAttributesCache
Trb:__ZN10VertexData8TransferI14SafeBinaryReadEEvRT_
AJ:__ZN4FMOD8ChannelI8setDelayE14FMOD_DELAYTYPEjj
$yd:_Stack__ctor_m2410583781
LIj:_GC_malloc_atomic
iDg:_Default_GetBetterMethod_m4255740863
QD:__Z93Register_UnityEngine_Experimental_Director_AnimationClipPlayable_INTERNAL_CALL_SetApplyFootIKv
tLi:_StateMachineBehaviour_OnStateExit_m4064436078
Gei:__Z48RuntimeInvoker_UIVertex_t1204258818_Il2CppObjectPK10MethodInfoPvPS2_
yzj:__ZNSt3__214__split_bufferIN6il2cpp2vm5Image20EmbeddedResourceDataERNS_9allocatorIS4_EEED2Ev
Xdb:__ZN15dense_hashtableINSt3__24pairIKN4core12basic_stringIcNS2_20StringStorageDefaultIcEEEEP11AssetBundleEES6_20StringHash32FunctionIS6_EN14dense_hash_mapIS6_S9_SC_NS0_8equal_toIS6_EENS0_9allocatorISA_EEE9SelectKeyESF_SH_E4findERS7_
W1:__ZL20SortItemByInstanceIDRKN18AwakeFromLoadQueue4ItemES2_
rJg:_TypeBuilder_create_runtime_class_m2719530260
gad:_RNGCryptoServiceProvider_RngClose_m2921734810
qfg:__ZL85GUIStyle_t1799908754_CustomAttributesCacheGenerator_GUIStyle_set_richText_m1853532836P21CustomAttributesCache
ev:__ZNK34AnimationStateMachineMixerPlayable26GetInterruptedPosePlayableEv
R5c:__ZN20UnityConnectSettings8TransferI24GenerateTypeTreeTransferEEvRT_
bt:__ZN34BlobWriteTransferSTLStyleArrayImplI22OffsetPtrArrayTransferIbEEclERS1_17TransferMetaFlagsR9BlobWrite
kdi:__Z37RuntimeInvoker_LabelFixup_t4090909514PK10MethodInfoPvPS2_
Iui:_GCHandle_GetHashCode_m1664905595_AdjustorThunk
Iaf:_SimpleCollator_IsHalfKana_m4255579023
gxf:_InternalAsyncResult_get_Count_m1291942796
CBe:_Collection_1_System_Collections_IList_Contains_m3365884450_gshared
eEj:__ZNK15dense_hashtableINSt3__24pairIK10KeyWrapperIPK19Il2CppGenericMethodEP10MethodInfoEES6_N6il2cpp8metadata23Il2CppGenericMethodHashEN14dense_hash_mapIS6_S9_SD_NS6_14EqualsComparerINSC_26Il2CppGenericMethodCompareEEENS0_9allocatorISA_EEE9SelectKeyESH_SJ_E10test_emptyERK30dense_hashtable_const_iteratorISA_S6_SD_SL_SH_SJ_E
HMa:__Z16FlaggedAsSkippedIN4core12basic_stringIcNS0_20StringStorageDefaultIcEEEEEbRK13FileEntryInfoRKT_19FileEnumerationFlag
jJe:_Collection_1_set_Item_m3440986310_gshared
y7:__ZL31InitializeRendererUpdateManagerPv
rUd:_BaseMeshEffect__ctor_m2843647600
xO:__ZN13AudioListener12CleanupClassEv
Nrf:_ClientSessionInfo_Dispose_m2571428025
a5d:_LayoutGroup_DelayedSetDirty_m4276695617
Zuf:_RecordProtocol_decryptRecordFragment_m2510859489
_eg:__ZL105GUIStyle_t1799908754_CustomAttributesCacheGenerator_GUIStyle_INTERNAL_set_Internal_clipOffset_m2024478897P21CustomAttributesCache
aeb:__Z28GetAbsoluteAssetBundlePrefixRKN4core12basic_stringIcNS_20StringStorageDefaultIcEEEE
ePd:_BaseRaycaster_get_sortOrderPriority_m3340181311
Mxb:__ZN11TimeManager8TransferI19StreamedBinaryWriteILb0EEEEvRT_
m2e:_DelegatePInvokeWrapper_ReadDelegate_t3184826381
Z1f:__ZL91HashSet_1_t2624254809_CustomAttributesCacheGenerator_HashSet_1_OnDeserialization_m627602129P21CustomAttributesCache
qSc:_compare_uni_maps
wIe:_Collection_1_get_Count_m804306016_gshared
g4c:__ZN11UnityEngine15PlatformWrapper27GetGraphicsCapsSupportFlagsEv
yYc:__ZNSt3__218__insertion_sort_3IRPFbPN2UI6CanvasES3_EPS3_EEvT0_S8_T_
tKf:__ZL80Decimal_t724701077_CustomAttributesCacheGenerator_Decimal_op_Explicit_m714968249P21CustomAttributesCache
pId:_Decimal_Equals_m1115043331
JMb:__ZN12NativeBufferI16Converter_StringE15SetupForWritingER9ArrayInfo
$Sd:_StandaloneInputModule_DeactivateModule_m2952848884
XWj:___cxa_end_catch__wrapper
Cig:__ZL119RenderPipelineManager_t984453155_CustomAttributesCacheGenerator_RenderPipelineManager_CleanupRenderPipeline_m2242901458P21CustomAttributesCache
whh:_ValueCollection_System_Collections_Generic_ICollectionU3CTValueU3E_Clear_m231380274_gshared
eQd:_Entry__ctor_m1176697586
S$e:_BinaryReader_ReadUInt32_m1363572147
f_f:__ZL79Convert_t2607082565_CustomAttributesCacheGenerator_Convert_ToUInt32_m3391339025P21CustomAttributesCache
Lei:__Z37RuntimeInvoker_Enumerator_t1147558387PK10MethodInfoPvPS2_
Ykb:__ZThn268_N31CanvasBatchIntermediateRenderer20OnAssetBoundsChangedEv
z4a:__ZN13MonoBehaviour22DoScriptRebuildWarningEv
rbc:__Z38Camera_CUSTOM_INTERNAL_CALL_RaycastTryP12Il2CppObjectRK3Rayfi
xyh:_Text_get_verticalOverflow_m3134063496
Arj:__ZN6il2cpp6icalls8mscorlib6System5Array13ClearInternalEP11Il2CppArrayii
zui:_GCHandle_get_Target_m2327042781
TGe:_Collection_1_GetEnumerator_m1417525918_gshared
KSj:_llvm_cttz_i32
hDf:_PublicKey_DecodeDSA_m1169363495
glc:__ZN11IMGUIModule25GetGUIStyleScriptingClassEv
oVc:_tt_get_interface
Mzg:_AsymmetricKeyExchangeFormatter__ctor_m3362140205
Dsj:__ZN6il2cpp5utils9PathUtils7CombineIcEENSt3__212basic_stringIT_NS3_11char_traitsIS5_EENS3_9allocatorIS5_EEEERKSA_SC_
izf:_NameObjectCollectionBase_BaseGet_m667273025
Krc:__ZN9JSONWrite8TransferI13dynamic_arrayIiLj4EEEEvRT_PKc17TransferMetaFlags
u_:__Z18ConvertUTF16toUTF8PPKtS0_PPhS2_15ConversionFlags
aDj:__ZN6il2cpp2os20PathErrnoToErrorCodeERKNSt3__212basic_stringIcNS1_11char_traitsIcEENS1_9allocatorIcEEEEi
E8g:_TypeLoadException__ctor_m1903359728
gXi:__ZL16my_g_bit_nth_msfj
Sfh:_Transform_1_BeginInvoke_m3014766640_gshared
d8c:_KeySizes__ctor_m3526899007
_pj:__ZN15dense_hashtableINSt3__24pairIK10KeyWrapperIP11Il2CppClassES4_EES5_N6il2cpp8metadata16SZArrayClassHashEN14dense_hash_mapIS5_S4_SA_NS5_14EqualsComparerINS9_19SZArrayClassCompareEEENS0_9allocatorIS7_EEE9SelectKeyESE_SG_E12expand_arrayEjN21dense_hash_map_traits17integral_constantIbLb0EEE
eWb:__ZNK12ShaderErrors11ShaderErrorltERKS0_
xhg:__ZL69ArgumentCache_t4810721_CustomAttributesCacheGenerator_m_FloatArgumentP21CustomAttributesCache
BCe:_Collection_1_CopyTo_m1578267616_gshared
Xkd:_EncoderReplacementFallback__ctor_m2208438262
rUa:__Z23SetupStereoFlareElementP11FlareVertexRK8Vector2fS3_S3_RK11ColorRGBA32RK10Matrix4x4fRK8Vector3fb
h0i:__ZN6il2cpp2vm5Class15GetInstanceSizeEPK11Il2CppClass
ua:invoke_iiiifiiii
Skh:_Dictionary_2_CopyTo_m1495142643_gshared
Kuc:__ZN9rapidjson8internal6u64toaEyPc
Jsg:_SoapFieldAttribute_IsInteropXmlElement_m4243409842
JXi:_EventFunction_1_BeginInvoke_m3064802067_gshared
P_f:__ZL67IndexOutOfRangeException_t3527622107_CustomAttributesCacheGeneratorP21CustomAttributesCache
Hpj:__ZNK15dense_hashtableINSt3__24pairIK10KeyWrapperINS1_IP11Il2CppClassjEEES4_EES6_N6il2cpp8metadata14ArrayClassHashEN14dense_hash_mapIS6_S4_SB_NS6_14EqualsComparerINSA_17ArrayClassCompareEEENS0_9allocatorIS8_EEE9SelectKeyESF_SH_E12test_deletedERK30dense_hashtable_const_iteratorIS8_S6_SB_SJ_SF_SH_E
w0e:_Directory_GetFiles_m4036267478
ZKd:_Enum_System_IConvertible_ToType_m2669300536
MVe:_NumberFormatInfo_get_CurrencyNegativePattern_m3972163809
dEa:__ZL19BlitFramebufferImplRN4gles23BlitFramebufferDrawQuadER9GfxDevice9TextureIDRK8Vector4f
cIb:__Z18Transfer_BlittableI17RemapPPtrTransferLb0EhEvRK29SerializationCommandArgumentsR31RuntimeSerializationCommandInfo
yOh:__Z44RuntimeInvoker_Byte_t3683104436_Il2CppObjectPK10MethodInfoPvPS2_
Gjj:__ZN15dense_hashtableINSt3__24pairIK10KeyWrapperIPK10Il2CppTypeEjEES6_N6il2cpp8metadata14Il2CppTypeHashEN14dense_hash_mapIS6_jSB_NS6_14EqualsComparerINSA_26Il2CppTypeEqualityComparerEEENS0_9allocatorIS8_EEE9SelectKeyESF_SH_E4findERS7_
dMe:_ReadOnlyCollection_1_System_Collections_IList_Add_m2333231354_gshared
mLc:_UNITY_FT_List_Add
hJg:_OpCodes__cctor_m939885911
L0b:__ZN14Texture2DArray11InitTextureEiii13TextureFormatb
Qnf:_PKCS1_RSASP1_m1748738009
Fmb:__ZN12CubemapArray21AwakeFromLoadThreadedEv
AGi:_UriParser_InitializeAndValidate_m251943319
Bcd:_SymmetricAlgorithm_set_Padding_m3081984460
vxb:__ZN9InputAxis8TransferI18StreamedBinaryReadILb0EEEEvRT_
ZUf:__ZL91X509Certificate_t283079845_CustomAttributesCacheGenerator_X509Certificate_Reset_m1676863543P21CustomAttributesCache
itd:_ArrayList_RemoveAt_m2578928333
OFb:__Z18Transfer_BlittableI14SafeBinaryReadLb0EaEvRK29SerializationCommandArgumentsR31RuntimeSerializationCommandInfo
vqi:_AnimatorControllerPlayable_INTERNAL_CALL_GetBoolString_m538178071
M8i:__ZN30dense_hashtable_const_iteratorINSt3__24pairIK10KeyWrapperI13dynamic_arrayIPK10Il2CppTypeLj4EEEPFvvEEES8_N6il2cpp8metadata19Il2CppSignatureHashEN14dense_hash_mapIS8_SB_SF_NS8_14EqualsComparerINSE_22Il2CppSignatureCompareEEENS0_9allocatorISC_EEE9SelectKeyESJ_SL_E30advance_past_empty_and_deletedEv
jLe:_ReadOnlyCollection_1_System_Collections_IList_set_Item_m1233322304_gshared
OGi:_GeneralNames_get_DNSNames_m2721668874
PKd:_Enum_System_IConvertible_ToByte_m38374586
TKe:_ReadOnlyCollection_1_System_Collections_Generic_IListU3CTU3E_RemoveAt_m1592158292_gshared
OBg:_PlatformNotSupportedException__ctor_m3301654967
iWj:_emscripten_glFrustum__wrapper
pvf:_ReceiveRecordAsyncResult_get_CompletedWithError_m2670396551
aId:_Decimal_Equals_m1798565377
mkb:__ZN17GlobalGameManager8TransferI24GenerateTypeTreeTransferEEvRT_
Umg:__ZL66InputField_t1631627530_CustomAttributesCacheGenerator_m_CaretColorP21CustomAttributesCache
ZFg:_TypeBuilder_check_created_m2929267877
dRa:__Z20SyncFenceCullResultsR11CullResults
EFa:__ZN15TextureTFMethod20IsBoneCountSupportedEi
lD:__ZN26AnimatorControllerPlayable9GotoStateEiifff
JSg:_GUISkin_set_horizontalScrollbarThumb_m2119687595
ulb:__ZN14RenderSettings23VirtualRedirectTransferER24GenerateTypeTreeTransfer
bFd:_DateTime_System_IConvertible_ToSByte_m2575078084_AdjustorThunk
lJb:__Z22TransferField_NonArrayI17RemapPPtrTransfer27Converter_SimpleNativeClassI8GUIStyleEEvRK23StaticTransferFieldInfoR31RuntimeSerializationCommandInfoRT0_
qhi:_AnimatorStateInfo_IsTag_m1529621725_AdjustorThunk
U_b:__ZNK17AnimationCurveTplIfE20EvaluateWithoutCacheEfRf
zDj:__ZN6il2cpp2os6Thread12QueueUserAPCEPFvPvES2_
C8d:_Array_InternalArray__IEnumerable_GetEnumerator_TisDictionaryEntry_t3048875398_m3498834924_gshared
tVg:_GUIStyleState__ctor_m3611888666
kEe:_Collection_1_IsValidItem_m1304951912_gshared
W5b:__ZN4Mesh10SetNormalsEPK8Vector3fj
PMg:_PropertyInfo__ctor_m1808219471
SHc:__Z66Register_UnityEngine_Physics2D_INTERNAL_CALL_GetRayIntersectionAllv
oBd:_Convert_ToDateTime_m4161927553
h0h:__Z76RuntimeInvoker_Void_t1841601450_RegexOptionsU26_t3063574985_SByte_t454417549PK10MethodInfoPvPS2_
dGg:_TypeBuilder_GetConstructors_m774120094
Qcg:__ZL87Canvas_t209405766_CustomAttributesCacheGenerator_Canvas_set_overrideSorting_m3982973573P21CustomAttributesCache
CAj:__ZNSt3__212basic_stringIDsNS_11char_traitsIDsEENS_9allocatorIDsEEE9__grow_byEjjjjjj
qr:__ZN17AnimationCurveTplIfE8TransferI14SafeBinaryReadEEvRT_
IVi:_CameraScroller_Update_m1863871041
TEi:_RegularExpression_set_GroupCount_m2991393456
tMd:_Calendar_get_EraNames_m452820602
irb:__ZNSt3__26vectorIN15QualitySettings14QualitySettingENS_9allocatorIS2_EEE6assignIPS2_EENS_9enable_ifIXaasr21__is_forward_iteratorIT_EE5valuesr16is_constructibleIS2_NS_15iterator_traitsIS9_E9referenceEEE5valueEvE4typeES9_S9_
Ccb:__ZNK5Unity9Component10GetEnabledEv
sSa:__ZNK19ShaderPropertySheet11HasPropertyERKN9ShaderLab16FastPropertyNameE
OEd:_DateTime_System_IConvertible_ToByte_m2670443498_AdjustorThunk
Dfj:_il2cpp_class_get_image
$4:__Z16AsyncReadRequestP16AsyncReadCommand
Y$f:__ZL81BigInteger_t925946153_CustomAttributesCacheGenerator_BigInteger__ctor_m4013661868P21CustomAttributesCache
Hlf:_BigInteger_op_Addition_m1734797151
_5h:__Z110RuntimeInvoker_Boolean_t3825574718_Vector2_t2243707579_Vector2_t2243707579_Single_t2076509932_SByte_t454417549PK10MethodInfoPvPS2_
fte:_List_1_CheckMatch_m1814522134_gshared
hDe:_Collection_1_System_Collections_IList_set_Item_m3488446830_gshared
yGg:_EnumBuilder_CreateNotSupportedException_m62763134
c2c:__Z24GetUnityAnalyticsManagerv
o6e:_Math_Log_m3371716878
SPg:_GUILayoutUtility_Layout_m3812180708
mxb:__ZN9InputAxis8TransferI14SafeBinaryReadEEvRT_
j2:__ZNK21ExecutionOrderManager30GetCustomAwakeFromLoadQueueForEPKN5Unity4TypeE
$6c:__Z27RegisterModule_UnityConnectv
qoe:_Enumerator_Dispose_m3717265706_AdjustorThunk
k6g:_Scheduler_Remove_m1930366072
bji:_Bounds_get_size_m1728027642_AdjustorThunk
Vtg:_RealProxy__ctor_m3041043303
VTe:_NumberFormatter_Init_m2654758994
H7c:_HMACSHA1__ctor_m1168389339
L5f:__ZL100Input_t1785128008_CustomAttributesCacheGenerator_Input_INTERNAL_get_compositionCursorPos_m2426914348P21CustomAttributesCache
WK:__ZN10ObjectPoolIN4FMOD12ChannelGroupENS0_13ChannelGroupIEE7SetSizeEi
Bdf:_PrimalityTest_BeginInvoke_m966469054
KOe:_ReadOnlyCollection_1_System_Collections_Generic_ICollectionU3CTU3E_Clear_m1785953911_gshared
Ebh:_UInt64_System_IConvertible_ToInt16_m2797150165_AdjustorThunk
VOa:__ZN5Image13ReformatImageEii13TextureFormatN14ImageReference8BlitModeE
Zje:_Array_InternalArray__get_Item_TisLabelData_t3712112744_m863115768_gshared
sZe:_Int32_Parse_m753946802
UCc:__ZN19CollisionListener2D15ProcessContactsEP10Collider2Db
vYb:__ZN9Polygon2D7SetPathEiRK13dynamic_arrayI8Vector2fLj4EE
oV:__Z22ValidateTlsfAllocationPvjiS_
Zye:_List_1_RemoveAt_m2331128844_gshared
Doj:__ZN14dense_hash_mapI10KeyWrapperINSt3__24pairIPK9EventInfoP11Il2CppClassEEEj17ReflectionMapHashIS8_ENS9_14EqualsComparerINS1_8equal_toIS8_EEEENS1_9allocatorINS2_IKS9_jEEEEE15set_deleted_keyERSH_
PJg:_UnmanagedMarshal_ToMarshalAsAttribute_m3695569337
gHb:__Z14resize_trimmedINSt3__26vectorI17AnimationCurveTplIfE13stl_allocatorIS3_L18MemLabelIdentifier1ELi16EEEEEvRT_j
m2a:__ZN25CameraStackRenderingState19SetupLastEyeCamerasERK11CameraStack
Jgb:__Z12GUIDToStringRK9UnityGUID
A4d:_LayoutElement_get_minHeight_m2070403283
aH:__ZN11SoundHandleC2ERKS_
Rqh:_Mask_OnEnable_m501850981
Jnf:_RSASslSignatureFormatter__ctor_m2530528184
hki:_Canvas_get_targetDisplay_m316548313
JHg:_GenericTypeParameterBuilder_GetGenericTypeDefinition_m2936287336
gdf:_BigInteger_op_Addition_m1196561843
t8a:__Z29StdTemplateConversionFunctionItxEbPvR14SafeBinaryRead
Zwi:_FormatterData__ctor_m3974986124
rPf:__ZL64FileNotFoundException_t4200667904_CustomAttributesCacheGeneratorP21CustomAttributesCache
s9c:_RijndaelManagedTransform_get_CanReuseTransform_m3735256596
kwd:_Comparer__cctor_m1327316974
r0e:_MonoIO_ExistsFile_m1421941572
lGd:_DateTime_op_GreaterThanOrEqual_m3818963848
nta:__ZNSt3__26__treeINS_12__value_typeI18VertexChannelsInfoP17VertexDeclarationEENS_19__map_value_compareIS2_S5_NS_4lessIS2_EELb1EEE13stl_allocatorIS5_L18MemLabelIdentifier14ELi16EEE12__find_equalIS2_EERPNS_16__tree_node_baseIPvEENS_21__tree_const_iteratorIS5_PNS_11__tree_nodeIS5_SG_EEiEESJ_RKT_
uy:__ZN17AnimationPlayable18DeallocateBindingsEv
vXd:_DefaultControls_SetDefaultTextValues_m1707718380
uTd:_TouchInputModule_UseFakeInput_m2112019004
wPd:_EventSystem_get_baseEventDataCache_m4294741599
Alb:__ZN14RenderSettings18TransferDeprecatedI14SafeBinaryReadEEvRT_
rfg:__ZL85GUIStyle_t1799908754_CustomAttributesCacheGenerator_GUIStyle_Internal_Draw_m694122665P21CustomAttributesCache
WX:__ZN12TLSAllocatorI14StackAllocatorE8AllocateEji
h3:__ZN16ScriptingManager18GetMonoScriptCacheEi
WQg:_GUIStyle_get_stretchHeight_m3396762700
i8i:__ZN13dynamic_arrayIPK10Il2CppTypeLj4EEC2ERKS3_
M5i:__ZN15dense_hashtableINSt3__24pairIK10KeyWrapperIPK11Il2CppClassEPKcEES6_N6il2cpp5utils11PointerHashIS3_EEN14dense_hash_mapIS6_S9_SE_NS6_14EqualsComparerINS0_8equal_toIS5_EEEENS0_9allocatorISA_EEE9SelectKeyESJ_SL_E15set_deleted_keyERKSA_
B$d:_GridLayoutGroup_CalculateLayoutInputHorizontal_m2355123124
W1f:__ZL84Locale_t4255929017_CustomAttributesCacheGenerator_Locale_GetText_m512920887____args1P21CustomAttributesCache
TFb:__Z18Transfer_BlittableI14SafeBinaryReadLb1EyEvRK29SerializationCommandArgumentsR31RuntimeSerializationCommandInfo
yig:__ZL89U3CInvokeMessageIdSubscribersU3Ec__AnonStorey0_t1899782350_CustomAttributesCacheGeneratorP21CustomAttributesCache
yoc:__ZN8JSONRead8TransferIfEEvRT_PKc17TransferMetaFlagsb
Xzh:_U3CGetEnumeratorU3Ec__Iterator0_Reset_m2980566576_gshared
Mmi:_Coroutine__ctor_m1253937571
CPe:_ReadOnlyCollection_1_System_Collections_ICollection_get_IsSynchronized_m4063596282_gshared
Yod:__ZN21InterfaceFuncInvoker2IP12Il2CppObjectP6Type_tS1_E6InvokeEjP11Il2CppClassS1_S3_S1_
tRj:__ZNSt3__212basic_stringIcNS_11char_traitsIcEENS_9allocatorIcEEE6appendEPKcj
jQf:__ZL54TypeBuilder_t3308873219_CustomAttributesCacheGeneratorP21CustomAttributesCache
Rka:__ZN6prcoreL17RemapGenericFloatI18TexFormatARGBFloat17TexFormatRGBAHalfEEvPKNS_9InnerInfoE
KFe:_Collection_1_CheckWritable_m691269733_gshared
aHg:_GenericTypeParameterBuilder_GetAttributeFlagsImpl_m3338182267
eQ:__ZN13Simd4iFactoryIN6detail9FourTupleEEC2Eiiii
L4e:_SynchronizedReader__ctor_m1408327515
W2h:__Z67RuntimeInvoker_AnimatorTransitionInfo_t2410896200_Int32_t2071877448PK10MethodInfoPvPS2_
Xdi:__Z54RuntimeInvoker_KeyValuePair_2_t3716250094_Il2CppObjectPK10MethodInfoPvPS2_
CQe:_ReadOnlyCollection_1_System_Collections_IList_Clear_m1858417639_gshared
Txd:_Slot_t2022531261_marshal_pinvoke_cleanup
aOa:__ZZ23InitPlayerLoopCallbacksvEN38PostLateUpdateShaderHandleErrorsstruct7ForwardEv
Yob:__ZN15SerializeTraitsI33EnlightenTerrainChunksInformationE8TransferI14SafeBinaryReadEEvRS0_RT_
lFc:__ZN6b2Body12SetTransformERK6b2Vec2f
x1b:__ZNK32RendererMaterialAnimationBinding9BindValueER6ObjectRKN11UnityEngine9Animation14GenericBindingERNS3_10BoundCurveE
LTh:__Z112RuntimeInvoker_Int32_t2071877448_Il2CppObject_Int32_t2071877448_Int32_t2071877448_Il2CppObject_Int32_t2071877448PK10MethodInfoPvPS2_
Dvb:__Z13GetIAnimationv
Bpa:__ZL18stbir__support_onef
Qre:_List_1_System_Collections_IList_Remove_m2040310137_gshared
IAi:_Match_get_Regex_m3526002767
DPf:__ZL49Stream_t3255436806_CustomAttributesCacheGeneratorP21CustomAttributesCache
wqc:__Z26Transfer_UnityEngineObjectI9JSONWriteLb0EEvRK29SerializationCommandArgumentsR31RuntimeSerializationCommandInfo
Lba:__ZN9ShaderLab4Pass9ApplyPassEjPK19ShaderPropertySheetR17ShaderPassContextP6ShaderiPKNS_10GrabPassesEPNS_11SubProgramsE
bld:_EncoderReplacementFallback_CreateFallbackBuffer_m3579126537
Lah:_UInt32_System_IConvertible_ToInt16_m2251335934_AdjustorThunk
rZc:__ZNSt3__27__sort5IRNS_6__lessIN2UI14DepthSortEntryES3_EEPS3_EEjT0_S7_S7_S7_S7_T_
h6i:__ZN14dense_hash_mapI10KeyWrapperIPKcEP11Il2CppClassN6il2cpp5utils11StringUtils12StringHasherIS2_EENS3_14EqualsComparerINS8_21CaseSensitiveComparerEEENSt3__29allocatorINSE_4pairIKS3_S5_EEEEE13set_empty_keyERSH_
mOh:__Z31RuntimeInvoker_Void_t1841601450PK10MethodInfoPvPS2_
Iod:_Boolean_System_IConvertible_ToType_m3990189691
plj:__ZNSt3__218uninitialized_copyIPNS_4pairIK10KeyWrapperINS1_IPK11Il2CppImageP11Il2CppClassEEEjEESC_EET0_T_SE_SD_
Da:invoke_vdd
Bn:FUNCTION_TABLE_fiii
IHh:_InternalEnumerator_1_Dispose_m3838127340_AdjustorThunk
I4h:__Z36RuntimeInvoker_FontStyle_t2764949590PK10MethodInfoPvPS2_
nKd:_Double_System_IConvertible_ToUInt32_m624993430
En:FUNCTION_TABLE_fiif
Mjg:__ZL89PointerEventData_t1599784723_CustomAttributesCacheGenerator_U3CdraggingU3Ek__BackingFieldP21CustomAttributesCache
O$b:__ZNK30SpriteRendererAnimationBinding12GetPPtrValueERKN11UnityEngine9Animation10BoundCurveE
i6g:_Scheduler_Add_m376749205
btd:_ArrayList_IndexOf_m2092981366
Gyj:__ZN15dense_hashtableINSt3__24pairIK10KeyWrapperINS1_IPKcS4_EEEiEES6_24NamespaceAndNamePairHashN14dense_hash_mapIS6_iS9_NS6_14EqualsComparerI26NamespaceAndNamePairEqualsEENS0_9allocatorIS8_EEE9SelectKeyESD_SF_E12resize_deltaEjj
z0b:__Z14RandomRotationP9Texture2DPhiiii
Wug:_SingleCallIdentity__ctor_m1512303454
kGh:_InternalEnumerator_1_MoveNext_m1594563423_AdjustorThunk
ZXd:_OptionDataList__ctor_m613113846
Ucg:__ZL86Canvas_t209405766_CustomAttributesCacheGenerator_Canvas_get_sortingLayerID_m1396307660P21CustomAttributesCache
uUh:__Z35RuntimeInvoker_TimeSpan_t3430258949PK10MethodInfoPvPS2_
Awe:_List_1_System_Collections_IList_Insert_m2036969360_gshared
b3d:_InputField_GetUnclampedCharacterLineFromPosition_m1912794077
N1e:_ReadDelegate__ctor_m885671467
KGd:_DateTimeOffset_ToString_m2121173678_AdjustorThunk
t0f:__ZL50X509Crl_t1699034837_CustomAttributesCacheGeneratorP21CustomAttributesCache
gaj:__ZN24dense_hashtable_iteratorINSt3__24pairIK10KeyWrapperIPKcEP11Il2CppClassEES5_N6il2cpp5utils11StringUtils12StringHasherIS4_EEN14dense_hash_mapIS5_S8_SE_NS5_14EqualsComparerINSC_21CaseSensitiveComparerEEENS0_9allocatorIS9_EEE9SelectKeyESI_SK_E30advance_past_empty_and_deletedEv
lj:_JS_WebRequest_SetResponseHandler
gU:__ZNK13EmscriptenWWW14GetPartialDataEv
m0j:_glDeleteProgram__wrapper
ybc:__Z50Register_UnityEngine_Camera_INTERNAL_get_pixelRectv
Wpi:_AnimationOffsetPlayable_set_position_m3583285645
U8h:__Z53RuntimeInvoker_UIVertex_t1204258818_Int32_t2071877448PK10MethodInfoPvPS2_
hka:__ZN6prcoreL18BlitFloatToIntegerERK14ImageReferenceRS0_
Bci:__Z57RuntimeInvoker_KeyValuePair_2_t38854645_Int32_t2071877448PK10MethodInfoPvPS2_
ajf:_X509CertificateCollection_get_Item_m410866272
bRg:_Rect_get_yMax_m2915146103
CWi:_PlayerOneAnimation__ctor_m2193170974
jgg:__ZL94CustomEventData_t1269126727_CustomAttributesCacheGenerator_CustomEventData_AddInt32_m103138778P21CustomAttributesCache
EFc:__ZN7b2Timer5ResetEv
QS:__ZN11UnityEngine15CloudWebService14RestDownloader17OnCompleteContentEv
V$d:_LayoutGroup_SetChildAlongAxis_m1615929339
Ra:invoke_viffi
Is:__ZN11UnityEngine9Animation40SetFlattenedSkeletonTransformsMainThreadER9TransformRKNS0_21AvatarBindingConstantEb
q$:__ZNSt3__26vectorI20ProcessCallbackGroupNS_9allocatorIS1_EEEC2ERKS4_
mA:__ZN17AnimationPlayable28UpdateInternalStateRecursiveILi1ELb0EEEvPK35AnimationPlayableEvaluationConstant
vze:_List_1_System_Collections_ICollection_get_SyncRoot_m1429670979_gshared
Ua:invoke_vifff
iec:__Z53Register_UnityEngine_Input_INTERNAL_get_mousePositionv
PAi:_MatchCollection_get_SyncRoot_m2567236647
Ve:_emscripten_request_fullscreen
Q$g:_Rect_get_xMin_m1161102488
aX:__ZN20LocalFileSystemWebGL6DeleteER13FileEntryDatab
OHd:_Decimal_System_IConvertible_ToUInt16_m1621568250
Xe:_emscripten_glDisableVertexAttribArray
b8f:__ZL79Object_t1021602117_CustomAttributesCacheGenerator_Object_Instantiate_m938141395P21CustomAttributesCache
Zm:FUNCTION_TABLE_iiiifiiii
d7g:_TimeSpan_get_TotalMinutes_m1645177229_AdjustorThunk
qc:invoke_fifffi
ygh:_Enumerator__ctor_m3539306986_gshared
oAa:__ZN4gles23ClearCurrentFramebufferEP7ApiGLESbbbRK10ColorRGBAffi
fz:__ZN7mecanim12statemachine20CreateStateWorkspaceEjjjRNS_6memory9AllocatorE
pef:__ZN21InterfaceFuncInvoker3IP22ByteU5BU5D_t3397334013S1_iiE6InvokeEjP11Il2CppClassP12Il2CppObjectS1_ii
p0c:__Z64Register_UnityEngine_CanvasRenderer_SplitIndiciesStreamsInternalv
$0h:__Z34RuntimeInvoker_Vector3_t2243707580PK10MethodInfoPvPS2_
gf:_emscripten_glDeleteObjectARB
bg:_IMG_Load
B5e:_UnexceptionalStreamReader_Read_m3839775235
yla:__ZN6prcoreL27StretchGenericFloatBilinearI18TexFormatARGBFloatEEvPKNS_9InnerInfoE
zhc:__Z53Register_UnityEngine_RenderTexture_Internal_GetHeightv
hug:_RealProxy_SetTargetDomain_m3940877656
ila:__ZN6prcoreL17RemapGenericFloatI17TexFormatRGBAHalf18TexFormatARGBFloatEEvPKNS_9InnerInfoE
VKd:_Enum_System_IConvertible_ToInt32_m2459904362
Kkc:__ZNK8GUIStyle21DrawWithTextSelectionER8GUIStateRK5RectTIfER10GUIContentbbbbbiiRK10ColorRGBAfSA_
Ykc:__Z14GetBuiltinSkini
Gof:_ContentInfo__ctor_m3871771681
GIh:_InternalEnumerator_1_MoveNext_m607849555_AdjustorThunk
tOd:_BaseInput_set_compositionCursorPos_m2632248731
d_i:_Enumerator_System_Collections_IEnumerator_Reset_m2573763156_gshared
f0e:_DirectoryInfo_Initialize_m2216118894
ffd:_WindowsIdentity_Dispose_m2649088337
bXb:__ZN2UI13RectTransform23VirtualRedirectTransferER14SafeBinaryRead
$Si:_InvokableCall_1__ctor_m54675381_gshared
S7e:_MonoType_GetMethodImpl_m593754598
cpe:_List_1_System_Collections_ICollection_get_SyncRoot_m3733894943_gshared
kve:_List_1_Reverse_m302978607_gshared
PO:__ZZL31InitializeAudioManagerCallbacksvEN33FixedUpdateAudioFixedUpdatestruct7ForwardEv
ITb:__ZNSt3__26vectorIN9ShaderLab20SerializedSubProgramENS_9allocatorIS2_EEE6assignIPS2_EENS_9enable_ifIXaasr21__is_forward_iteratorIT_EE5valuesr16is_constructibleIS2_NS_15iterator_traitsIS9_E9referenceEEE5valueEvE4typeES9_S9_
psc:__Z18Transfer_BlittableI8JSONReadLb0E8BitFieldEvRK29SerializationCommandArgumentsR31RuntimeSerializationCommandInfo
gvg:_SoapServices_RegisterInteropXmlType_m2949236705
gkj:__ZNK15dense_hashtableINSt3__24pairIK10KeyWrapperIPK10Il2CppTypeEjEES6_N6il2cpp8metadata14Il2CppTypeHashEN14dense_hash_mapIS6_jSB_NS6_14EqualsComparerINSA_26Il2CppTypeEqualityComparerEEENS0_9allocatorIS8_EEE9SelectKeyESF_SH_E10test_emptyERK24dense_hashtable_iteratorIS8_S6_SB_SJ_SF_SH_E
v7a:__ZN17PersistentManagerC2Eii
LNb:__ZL17Transfer_GUIStyleI18StreamedBinaryReadILb1EELb0EEvRK29SerializationCommandArgumentsR31RuntimeSerializationCommandInfo
Bjd:_String_CharCopy_m2550399897
VYb:__ZN11TypeManager20RegisterNonClassTypeEiP4RTTIPKcS3_
XRb:__ZN9ShaderLab14SerializedPass8TransferI14SafeBinaryReadEEvRT_
Qlc:__Z71Register_UnityEngine_GUILayoutUtility_INTERNAL_CALL_Internal_MoveWindowv
IO:__ZN12AudioManager16SetListenerPauseEb
PBc:__ZNSt3__26__sortIRN10ClipperLib12LocMinSorterEPNS1_12LocalMinimumEEEvT0_S6_T_
Msj:__ZN6il2cpp2vm9Exception25RaiseOutOfMemoryExceptionERKNS_5utils10StringViewIDsEE
zDe:_Collection_1_IsValidItem_m2254106115_gshared
mGg:_TypeBuilder_GetEvent_m3876348075
Exh:_Slider_OnMove_m641164662
ea:invoke_viiiiiiiiiii
VNj:___syscall_ret
l6g:_Scheduler__ctor_m3716265742
egf:_MACAlgorithm_Final_m4076939925
zYb:__ZN14qsort_internal30FindAndMovePivotToLastPositionIP8Vector2fi26PointDistanceSortPredicateEEvT_S4_T0_T1_
O2c:__Z56Register_UnityEngine_Analytics_CustomEventData_AddDoublev
tsb:__ZN11ChannelInfo8TransferI19StreamedBinaryWriteILb0EEEEvRT_
TBh:_InternalEnumerator_1_System_Collections_IEnumerator_get_Current_m3583252352_gshared
HBb:__ZN23ArchiveStorageConverter24ReadHeaderFromMemoryFileEv
PFg:_EnumBuilder_get_FullName_m2818393911
kVa:__ZN14qsort_internal13Partition3WayIP17RODataReplacementi19ROSorterReplacementEENSt3__24pairIT_S6_EES6_S6_T0_T1_
K3e:_StreamAsyncResult_get_Done_m2858832609
ydc:__Z34Register_UnityEngine_Gradient_Initv
$Yi:_ObjectPool_1_set_countAll_m1742773675_gshared
Exg:_SerializationEntry_get_Value_m1628109884_AdjustorThunk
WOd:_BaseInputModule_GetAxisEventData_m3903709281
mke:_Array_InternalArray__get_Item_TisUriScheme_t1876590943_m1821482697_gshared
lhe:_Array_Sort_TisIl2CppObject_m1954851512_gshared
Kkf:_BigInteger__ctor_m3239748086
xW:__ZN13ScreenManager23SetIsOrientationEnabledE18EnabledOrientationb
e2i:__ZL24UnresolvedVirtualCall_57P12Il2CppObjectiPK10MethodInfo
HZf:__ZL79Convert_t2607082565_CustomAttributesCacheGenerator_Convert_ToUInt16_m1043031438P21CustomAttributesCache
Ou:__ZN7mecanim5human25HumanPoseAddOverrideLayerERNS0_9HumanPoseERKS1_fRKNS_6bitsetILj70EEE
O_b:__ZN13ProduceHelperI9TransformLb0EE7ProduceE18MemLabelIdentifier18ObjectCreationMode
Hnc:__Z45Register_UnityEngine_GUIStyle_GetFontInternalv
Fgi:_AnimationEvent_set_floatParameter_m4139544688
c3i:__ZL25UnresolvedVirtualCall_109P12Il2CppObjectS0_S0_iiPK10MethodInfo
nDi:_Alternation_get_Alternatives_m1445219249
wlh:_DefaultComparer_GetHashCode_m2506382068_gshared
pmi:_Component_SendMessageUpwards_m19741277
cph:_EqualityComparer_1_System_Collections_IEqualityComparer_GetHashCode_m1012273405_gshared
Rce:_Array_InternalArray__ICollection_Add_TisHitInfo_t1761367055_m2956071622_gshared
N6f:__ZL74Random_t1170710517_CustomAttributesCacheGenerator_Random_Range_m2884721203P21CustomAttributesCache
cIh:_InternalEnumerator_1_MoveNext_m470170271_AdjustorThunk
_4a:__ZN10GameObject23VirtualRedirectTransferER18StreamedBinaryReadILb0EE
Cme:_Enumerator_get_Current_m2577424081_gshared
QKh:_InternalEnumerator_1_Dispose_m2270401482_AdjustorThunk
xg:_glFrontFace
bxg:_ObjectRecord_get_IsUnsolvedObjectReference_m2202692850
UGf:_FactoryCache_Cleanup_m4130035987
WC:__ZN26AnimatorControllerPlayable14SetLayerWeightEif
QZb:__ZN13ProduceHelperI19LowerResBlitTextureLb0EE7ProduceE18MemLabelIdentifier18ObjectCreationMode
y_a:__ZNSt3__26vectorI16ShadowCasterData13stl_allocatorIS1_L18MemLabelIdentifier2ELi16EEE21__push_back_slow_pathIKS1_EEvRT_
gdj:__ZN6il2cpp6icalls8mscorlib6SystemL16GetFieldFromTypeINS_5utils10functional6FilterINSt3__212basic_stringIcNS7_11char_traitsIcEENS7_9allocatorIcEEEENS4_11StringUtils23CaseInsensitiveComparerEEEEEP21Il2CppReflectionFieldP11Il2CppClassSK_iRKT_
PTi:_UnityAction_1_Invoke_m1279802577_gshared
nbh:_UInt32_ToString_m1783596809
rNi:_Vector3_get_forward_m1201659139
Yze:_List_1_Sort_m269561757_gshared
ufg:__ZL110GUIStyle_t1799908754_CustomAttributesCacheGenerator_GUIStyle_INTERNAL_CALL_Internal_DrawPrefixLabel_m557487542P21CustomAttributesCache
RXc:__Z51Register_UnityEngine_TextGenerator_GetLinesInternalv
y_i:_HashSet_1_Init_m1258286688_gshared
cjf:_X509CertificateEnumerator_System_Collections_IEnumerator_get_Current_m1643583406
oJi:_X509ExtensionCollection_get_Item_m4212651995
jMe:_ReadOnlyCollection_1_System_Collections_IList_RemoveAt_m525136953_gshared
nae:__ZN21InterfaceFuncInvoker1Ii19Vector4_t2243707581E6InvokeEjP11Il2CppClassP12Il2CppObjectS0_
vli:_Collision2D_get_gameObject_m4234358314
zka:__ZN6prcoreL17RemapGenericFloatI17TexFormatRGBFloat18TexFormatRGBAFloatEEvPKNS_9InnerInfoE
sbh:_UInt64_System_IConvertible_ToBoolean_m3012279573_AdjustorThunk
fWh:__Z48RuntimeInvoker_Il2CppObject_StringU26_t638738783PK10MethodInfoPvPS2_
g9g:_Type_get_IsGenericTypeDefinition_m2147901038
pLa:__ZN12HandlerChain10ToAbsoluteEPKc
_xi:_ContextAttribute_Freeze_m4133346275
rTe:_GregorianCalendar__ctor_m3794576475
ibh:_UInt32_TryParse_m4283512434
jwj:__ZN15dense_hashtableI10KeyWrapperIP18Il2CppGenericClassES3_N6il2cpp8metadata22Il2CppGenericClassHashEN14dense_hash_setIS3_S6_NS3_14EqualsComparerINS5_25Il2CppGenericClassCompareEEENSt3__29allocatorIS3_EEE8IdentityESA_SD_E8min_sizeEjj
TG:__ZN9AudioClip11CreateSoundEv
Heh:_ShimEnumerator_MoveNext_m3313047792_gshared
lEe:_Collection_1_ConvertItem_m2185647560_gshared
K7g:_TimeSpan_op_Inequality_m257547441
X4g:_ExecutionContext_GetObjectData_m1456913356
Roj:__ZN14dense_hash_mapI10KeyWrapperINSt3__24pairIPK9FieldInfoP11Il2CppClassEEEj17ReflectionMapHashIS8_ENS9_14EqualsComparerINS1_8equal_toIS8_EEEENS1_9allocatorINS2_IKS9_jEEEEEC2EjRKSB_RKSF_
fZg:_Object_set_hideFlags_m2204253440
rkj:__ZNK15dense_hashtableINSt3__24pairIK10KeyWrapperINS1_IPK10MethodInfoP11Il2CppClassEEEjEES9_17ReflectionMapHashIS8_EN14dense_hash_mapIS9_jSD_NS9_14EqualsComparerINS0_8equal_toIS8_EEEENS0_9allocatorISB_EEE9SelectKeyESI_SK_E13find_positionERSA_
HFg:_EnumBuilder_get_Assembly_m4285228003
rLb:__Z18Transfer_BlittableI19StreamedBinaryWriteILb0EELb0E8Vector2fEvRK29SerializationCommandArgumentsR31RuntimeSerializationCommandInfo
kVe:_DateTimeFormatInfo_get_RoundtripPattern_m562440017
s6c:__ZN11UnityEngine7Connect16PersistentValues13RestoreValuesER8JSONRead
XMa:__ZN20ArchiveStorageReader31TryToReadDirectoryFromBlockDataEyPKvj
vmh:_DefaultComparer__ctor_m3947565964_gshared
UJd:_Double_System_IConvertible_ToByte_m3004284950_AdjustorThunk
kvg:_TypeEntry_get_AssemblyName_m1762285107
zvj:__ZN6il2cpp2vmL11GetIdentityEP14Il2CppIUnknown
Fff:_SmallXmlParser_ReadCDATASection_m2558307107
AHj:_GC_push_gc_structures
bUd:_AspectRatioFitter_get_aspectRatio_m3023618874
Rzf:_ServicePointManager_get_ServerCertificateValidationCallback_m1409951209
eej:__ZN6il2cpp6icalls8mscorlib6SystemL8IsPublicEPK9EventInfo
SIf:_Enumerator__ctor_m3782962052
Vyd:_Enumerator_get_Current_m1271212567
eFj:__ZThn4_N6il2cpp2vm13ComObjectBase18ReleaseMarshalDataEP13Il2CppIStream
QGa:__Z22GetShaderCachePathGLESv
oWg:_Input_set_compositionCursorPos_m1615567306
FAf:_IPAddress_ParseIPV6_m2209709575
iuh:_U3CClickRepeatU3Ec__Iterator0_MoveNext_m1747924386
BSe:_Comparison_1_Invoke_m1670081898_gshared
Zyh:_Toggle_set_group_m3833595685
t5d:_LayoutRebuilder_ForceRebuildLayoutImmediate_m566681977
DGa:__ZNSt3__26vectorIPN19ConstantBuffersGLES11ConstBufferENS_9allocatorIS3_EEE21__push_back_slow_pathIKS3_EEvRT_
Yce:_Array_InternalArray__ICollection_Add_TisVector4_t2243707581_m698578249_gshared
N0:__ZN8keywords6CreateEPKc
yQh:__Z89RuntimeInvoker_Il2CppObject_Il2CppObject_Int32_t2071877448_Int32_t2071877448_Il2CppObjectPK10MethodInfoPvPS2_
PKb:__ZN24GenerateTypeTreeTransfer8TransferINSt3__26vectorI17AnimationCurveTplIfE13stl_allocatorIS4_L18MemLabelIdentifier1ELi16EEEEEEvRT_PKc17TransferMetaFlags
S:Math_imul
zTg:_GUIStyle_set_active_m2896743432
Rwb:__ZN14SpriteRenderer15SetupPropertiesEv
wrb:__ZN11PlayerPrefs6GetIntERKN4core12basic_stringIcNS0_20StringStorageDefaultIcEEEEi
Jfd:_SecurityFrame_t1002202659_marshal_pinvoke_back
zXc:__Z45TextGenerator_CUSTOM_INTERNAL_get_rectExtentsP12Il2CppObjectP5RectTIfE
$si:_PlayableHandle_Equals_m1435096530
rZe:_Int32_Equals_m321398519_AdjustorThunk
vfg:__ZL102GUIStyle_t1799908754_CustomAttributesCacheGenerator_GUIStyle_Internal_GetCursorFlashOffset_m3177259302P21CustomAttributesCache
d8d:_SetPropertyUtility_SetStruct_TisChar_t3454481338_m2333420724_gshared
CDe:_Collection_1_IsSynchronized_m2601980439_gshared
oxd:_Hashtable_ContainsKey_m2716576664
jBi:_PatternCompiler_EmitCategory_m1696942454
ZHd:_Decimal_decimalFloorAndTrunc_m3655683429
pde:_Array_InternalArray__ICollection_CopyTo_TisInt32_t2071877448_m984622488_gshared
j_:__ZN18ScriptingArguments9AddObjectE18ScriptingObjectPtr
z$c:__Z39CanvasGroup_Get_Custom_PropInteractableP12Il2CppObject
BQ:__ZN11UnityEngine15CloudWebService16SessionContainerD2Ev
rjg:__ZL97AxisEventData_t1524870173_CustomAttributesCacheGenerator_AxisEventData_get_moveVector_m1338727516P21CustomAttributesCache
iYj:_emscripten_glStencilOpSeparate__wrapper
lUc:_cf2_getLanguageGroup
BAa:__ZN17GenericDynamicVBOC2ER9GfxDevice13GfxBufferModejj
xxi:_Context_get_HasDynamicSinks_m1998518649
eFc:__Z28GetPhysics2DScriptingClassesv
B9i:__ZN15dense_hashtableINSt3__24pairIK10KeyWrapperIPKcEP11Il2CppClassEES5_N6il2cpp5utils11StringUtils12StringHasherIS4_EEN14dense_hash_mapIS5_S8_SE_NS5_14EqualsComparerINSC_21CaseSensitiveComparerEEENS0_9allocatorIS9_EEE9SelectKeyESI_SK_E6insertERKS9_
UR:__ZN11UnityEngine15CloudWebService17SessionEventQueue10PurgeItemsEj
C1g:_UpdatedEventHandler_BeginInvoke_m4238510153
_Nd:_AbstractEventData_get_used_m4208553917
z3a:__ZN6Camera16StandaloneRenderENS_10RenderFlagEP6ShaderRKN4core12basic_stringIcNS3_20StringStorageDefaultIcEEEE
Yld:_Array_System_Collections_IList_get_Item_m2088124007
qmd:_Array_GetLength_m2083296647
IWf:__ZL58SecurityElement_t2325568386_CustomAttributesCacheGeneratorP21CustomAttributesCache
Umb:__ZNK12CubemapArray13GetIsReadableEv
Zud:_SynchronizedArrayListWrapper_ToArray_m1522185111
n_h:__Z55RuntimeInvoker_TimeSpan_t3430258949_DateTime_t693205669PK10MethodInfoPvPS2_
kNb:__Z18Transfer_BlittableI18StreamedBinaryReadILb1EELb1EtEvRK29SerializationCommandArgumentsR31RuntimeSerializationCommandInfo
lWi:_GarbageScoring_RestoreCollider_m2249235179
kfd:_SecurityContext_get_FlowSuppressed_m420202521
yva:__ZN9GfxDevice20DeallocRenderSurfaceEP17RenderSurfaceBase
gdh:_ValueType_ToString_m3796301715
Ewj:__ZNK15dense_hashtableI10KeyWrapperIP18Il2CppGenericClassES3_N6il2cpp8metadata22Il2CppGenericClassHashEN14dense_hash_setIS3_S6_NS3_14EqualsComparerINS5_25Il2CppGenericClassCompareEEENSt3__29allocatorIS3_EEE8IdentityESA_SD_E12test_deletedEj
NXh:__Z62RuntimeInvoker_Int64_t909078037_Il2CppObject_Int32_t2071877448PK10MethodInfoPvPS2_
Bec:__Z53Register_UnityEngine_Quaternion_INTERNAL_CALL_Inversev
qge:_Array_qsort_TisUICharInfo_t3056636800_m2607408901_gshared
dQg:_GUILayoutGroup__ctor_m992523271
Gag:__ZL139AnimatorControllerPlayable_t4078305555_CustomAttributesCacheGenerator_AnimatorControllerPlayable_CrossFadeInFixedTime_m1082259778____layer2P21CustomAttributesCache
fib:__ZN12BaseRenderer23RendererBecameInvisibleEv
DJc:__ZN20TextRenderingPrivate8FontImpl13CharacterInfo8TransferI18StreamedBinaryReadILb0EEEEvRT_
eLb:__Z29Transfer_Blittable_ArrayFieldI24GenerateTypeTreeTransferfEvRT_R9ArrayInfoRK23StaticTransferFieldInfo
DYh:__Z51RuntimeInvoker_Single_t2076509932_Int16_t4041245914PK10MethodInfoPvPS2_
r6a:__ZN19CustomRenderTexture9AddParentE4PPtrIS_E
Kqb:__ZN8Gradient8TransferI14SafeBinaryReadEEvRT_
hVh:__Z41RuntimeInvoker_StackBehaviour_t1390406961PK10MethodInfoPvPS2_
nVi:_UnityEvent_1_Invoke_m1533100983_gshared
yha:__ZNSt3__26vectorIN4core12basic_stringIcNS1_20StringStorageDefaultIcEEEE13stl_allocatorIS5_L18MemLabelIdentifier1ELi16EEE7reserveEj
Vzf:_FileWebRequest__ctor_m4003648606
Nog:__ZL71SpriteState_t1353336012_CustomAttributesCacheGenerator_m_DisabledSpriteP21CustomAttributesCache
ydi:__Z34RuntimeInvoker_HitInfo_t1761367055PK10MethodInfoPvPS2_
XKd:_Enum_System_IConvertible_ToSByte_m3488526280
FJg:_TypeBuilder_ToString_m1952363535
Cyi:_Identity_set_Disposed_m628843469
VYg:_MonoBehaviour_StopAllCoroutines_m1675795839
Pqa:__ZN18IDCollectorFunctorD0Ev
X7f:__ZL82Object_t1021602117_CustomAttributesCacheGenerator_Object_DestroyObject_m2343493981P21CustomAttributesCache
VW:__ZNK20LocalFileSystemPosix9IsSymLinkERK13FileEntryData
uGj:_GC_new_free_list_inner
ilh:_DefaultComparer_Equals_m85211180_gshared
pHe:_Collection_1_System_Collections_IList_IndexOf_m1950953062_gshared
K7e:_MonoType_InternalGetEvent_m532443236
iGe:_Collection_1_IndexOf_m2700825189_gshared
tMh:_Comparer_1_get_Default_m2605397692_gshared
$sc:__ZN8JSONRead8TransferI10RectOffsetEEvRT_PKc17TransferMetaFlagsb
zyj:__ZNK15dense_hashtableINSt3__24pairIK10KeyWrapperINS1_IPKcS4_EEEiEES6_24NamespaceAndNamePairHashN14dense_hash_mapIS6_iS9_NS6_14EqualsComparerI26NamespaceAndNamePairEqualsEENS0_9allocatorIS8_EEE9SelectKeyESD_SF_E12test_deletedERK24dense_hashtable_iteratorIS8_S6_S9_SH_SD_SF_E
CR:__ZN9JSONWrite8TransferIN11UnityEngine15CloudWebService14DataErrorEvent15FileErrorDetailEEEvRT_PKc17TransferMetaFlags
fkd:_Decoder__ctor_m2623573910
Bqa:__Z21ClearFenceWithoutSyncR8JobFence
dNe:_ReadOnlyCollection_1_System_Collections_Generic_IListU3CTU3E_RemoveAt_m1731148677_gshared
PJ:__ZN12SoundManager20RegisterModifiedClipEP10SampleClip
hSh:__Z108RuntimeInvoker_Void_t1841601450_Il2CppObject_Int64_t909078037_Il2CppObject_Int64_t909078037_Int64_t909078037PK10MethodInfoPvPS2_
nM:__ZN11AudioSource4PlayEd
Kzj:__ZN6il2cpp2vm6Object16GetVirtualMethodEP12Il2CppObjectPK10MethodInfo
qy:__ZN22AnimationMixerPlayable11DerivesFromE17ScriptingClassPtr
e7i:__ZN15dense_hashtableI10KeyWrapperIPK17Il2CppGenericInstES4_N6il2cpp8metadata21Il2CppGenericInstHashEN14dense_hash_setIS4_S7_NS4_14EqualsComparerINS6_24Il2CppGenericInstCompareEEENSt3__29allocatorIS4_EEE8IdentityESB_SE_E13set_empty_keyERKS4_
UW:__ZNK20LocalFileSystemPosix8IsHiddenERK13FileEntryData
Znh:_EqualityComparer_1_System_Collections_IEqualityComparer_Equals_m3589836321_gshared
Rff:_SmallXmlParser_IsNameChar_m1561000202
gIi:_X501__cctor_m2610532554
Ndh:_Enumerator_VerifyState_m3173176371_gshared
Djd:_StringComparer__ctor_m2275216983
Uhj:__ZNSt3__214__split_bufferINS_12basic_stringIcNS_11char_traitsIcEENS_9allocatorIcEEEERNS4_IS6_EEED2Ev
Wye:_List_1_CheckCollection_m2220107869_gshared
snb:__ZN7Cubemap23VirtualRedirectTransferER18StreamedBinaryReadILb0EE
rrf:_RecordProtocol_EncodeRecord_m3884270352
xbd:_SHA256_Create_m896954069
UVc:_Read_CVT
aEd:_Convert_ToUInt32_m776714429
RJa:__ZN12FileAccessor4SeekEx10FileOrigin
eKb:__ZL26Transfer_SimpleNativeClassI24GenerateTypeTreeTransfer17AnimationCurveTplIfELb0EEvRK29SerializationCommandArgumentsR31RuntimeSerializationCommandInfo
r5h:__Z54RuntimeInvoker_Boolean_t3825574718_Vector2_t2243707579PK10MethodInfoPvPS2_
C8i:__ZN15dense_hashtableINSt3__24pairIK10KeyWrapperI13dynamic_arrayIPK10Il2CppTypeLj4EEEPFvvEEES8_N6il2cpp8metadata19Il2CppSignatureHashEN14dense_hash_mapIS8_SB_SF_NS8_14EqualsComparerINSE_22Il2CppSignatureCompareEEENS0_9allocatorISC_EEE9SelectKeyESJ_SL_E4swapERSO_
Jmi:_Coroutine_t2299508840_marshal_pinvoke
G7:__ZN16LightmapSettings20DidChangeActiveSceneEP10UnitySceneS1_
gDg:_Default_ReorderParameters_m1877749093
_qg:__ZL59g_AssemblyU2DCSharp_Assembly_CustomAttributesCacheGeneratorP21CustomAttributesCache
Kkb:__ZNK17InstancedPropInfo15RenderInstancesERK15RenderNodeQueuePK17BatchInstanceDataj17ShaderChannelMask
qcj:__ZN6il2cpp5utils9PathUtils8BasenameIcEENSt3__212basic_stringIT_NS3_11char_traitsIS5_EENS3_9allocatorIS5_EEEERKSA_
gL:__ZN10AudioMixer11SetupGroupsEv
R6f:__ZL91Resources_t339470017_CustomAttributesCacheGenerator_Resources_GetBuiltinResource_m582410469P21CustomAttributesCache
Clc:__Z35Register_UnityEngine_Event_get_typev
Egf:_PrivateKeyInfo_DecodeRSA_m1427048948
Ysj:__ZN6il2cpp2vm9Exception23GetInvalidCastExceptionERKNS_5utils10StringViewIDsEE
Rlf:_BigInteger_op_GreaterThanOrEqual_m2643115413
kCg:_Assembly_FillName_m1934025015
vPa:_UNITY_png_free
i$e:_IntPtr_op_Explicit_m1073656736
kWj:_emscripten_glDepthRange__wrapper
did:_String_IndexOf_m2126171214
H_e:_Int64_ToString_m1544341651_AdjustorThunk
lA:__ZN8Animator28BuildControllerPlayableCacheEv
GWe:_Guid_CheckNull_m2903986431
M$f:__ZL62CrossContextDelegate_t754146990_CustomAttributesCacheGeneratorP21CustomAttributesCache
Sii:_Bounds__ctor_m1202659404
_1:__Z63ThreadAndSerializationSafeCheckGetMonoBehaviourBeingTransferredv
eJj:_GC_enable
mtf:_TlsClientCertificateVerify_ProcessAsSsl3_m3377063356
zSh:__Z97RuntimeInvoker_Il2CppObject_Il2CppObject_Int32_t2071877448_Il2CppObject_Il2CppObject_Il2CppObjectPK10MethodInfoPvPS2_
OSd:_StandaloneInputModule_set_repeatDelay_m2820945738
K0e:_EndOfStreamException__ctor_m4268387737
sah:_UInt16_ToString_m4213290405
dec:__Z37Register_UnityEngine_Input_GetAxisRawv
KAe:_List_1_GetIndex_m433539411_gshared
SUf:__ZL59StreamingContext_t1417235061_CustomAttributesCacheGeneratorP21CustomAttributesCache
Tvi:_ChannelServices_RegisterChannel_m3832858065
cLd:_Enum_GetName_m1226611481
nTe:_Func_2_Invoke_m4121137703_gshared
aM:__ZN11AudioSource5ResetEv
Hsb:__ZN14Texture2DArray23VirtualRedirectTransferER18StreamedBinaryReadILb0EE
ODi:_Literal_CompileLiteral_m276843152
UWb:__ZN2UI13RectTransform13AwakeFromLoadE17AwakeFromLoadMode
KDi:_Reference__ctor_m4110013284
WZa:__ZN14qsort_internal30FindAndMovePivotToLastPositionIP20ShadowCasterSortDatai26ShadowCasterSortDataSorterEEvT_S4_T0_T1_
$Eb:__Z18Transfer_BlittableI14SafeBinaryReadLb1EiEvRK29SerializationCommandArgumentsR31RuntimeSerializationCommandInfo
mra:__ZN17PersistentManager13GetAllFileIDsERKN4core12basic_stringIcNS0_20StringStorageDefaultIcEEEER13dynamic_arrayIxLj8EE
OXh:__Z72RuntimeInvoker_Il2CppObject_IntPtr_t_Int32_t2071877448_Int32_t2071877448PK10MethodInfoPvPS2_
aOe:_ReadOnlyCollection_1_GetEnumerator_m713393110_gshared
aug:_ProxyAttribute_GetPropertiesForNewContext_m3587421540
qnd:_Array_LastIndexOf_m4096535198
_sd:_ArrayList_Add_m1719188324
iKd:_Double_System_IConvertible_ToSByte_m1653690240_AdjustorThunk
Fk:_glGetStringi
qVg:_GUIStyleState_t3801000545_marshal_pinvoke
ixg:_ObjectManager_AddFixup_m4148241867
NNd:_CultureInfo_set_NumberFormat_m1618950525
ctb:__ZN18StreamedBinaryReadILb0EE21TransferSTLStyleArrayI13dynamic_arrayI8Vector4fLj4EEEEvRT_17TransferMetaFlags
CEf:_X509Store__ctor_m1573680316
REf:_X509Chain_get_CertificateCollection_m324631835
poh:_EqualityComparer_1__cctor_m1011898363_gshared
MTd:_AnimationTriggers__ctor_m2623627182
Mae:_Array_InternalArray__IndexOf_TisClientCertificateType_t4001384466_m1168139450_gshared
nai:__Z49RuntimeInvoker_Int32_t2071877448_Link_t2723257478PK10MethodInfoPvPS2_
PGg:_FieldBuilder_get_Name_m2243491233
STa:__ZN9Coroutine16SetCurrentMethodE18ScriptingMethodPtr
As:__ZN8Animator9WriteStepEv
yrb:__ZNSt3__23mapIN4core12basic_stringIcNS1_20StringStorageDefaultIcEEEE9PrefValueNS_4lessIS5_EENS_9allocatorINS_4pairIKS5_S6_EEEEEixERSB_
gjc:__ZN15DirectorManager22ConstructPlayableGraphEv
iW:__ZN13ScreenManager16SetScreenTimeoutEi
WIb:__Z18Transfer_BlittableI17RemapPPtrTransferLb0EdEvRK29SerializationCommandArgumentsR31RuntimeSerializationCommandInfo
ucd:_SymmetricAlgorithm_set_IV_m4262655606
Zxh:_StencilMaterial__cctor_m2963056855
Rph:_EqualityComparer_1_System_Collections_IEqualityComparer_Equals_m315020809_gshared
TDg:_CustomAttributeNamedArgument_GetHashCode_m3715408876_AdjustorThunk
GXc:__Z38Register_UnityEngine_Font_HasCharacterv
WDf:_X509Certificate2_AppendBuffer_m3517242299
T1a:__Z35IntersectSpherePlaneBoundsOptimizedRKN4math7_float4EPS1_i
JNd:_CultureInfo_get_IsNeutralCulture_m3874876470
NId:_Delegate_CreateDelegate_m3813023227
iWh:__Z46RuntimeInvoker_WellKnownObjectMode_t2630225581PK10MethodInfoPvPS2_
ZFi:_Uri_get_AbsoluteUri_m2120317928
pAj:__ZN6il2cpp2os5posix15PosixWaitObject13InterruptWaitEv
OWd:_ColorTween_TweenValue_m3279916815
bPd:_BaseInputModule_IsModuleSupported_m4272494372
j7:__Z22CleanupLODGroupManagerPv
Sce:_Array_InternalArray__ICollection_Add_TisContentType_t1028629049_m2984242302_gshared
ylc:__Z21Event_CUSTOM_PopEventP12Il2CppObject
Lwj:__ZN6il2cpp8metadata15GenericMetadata20RegisterGenericClassEP18Il2CppGenericClass
nl:_glUniform3fv
tzb:__ZNSt3__218__insertion_sort_3IRN15ResourceManager10Dependency6SorterEPS2_EEvT0_S6_T_
yoe:_Enumerator_System_Collections_IEnumerator_Reset_m3796537546_AdjustorThunk
dXc:_UNITY_FT_Init_Class_tt_service_gx_multi_masters
EHh:_InternalEnumerator_1_System_Collections_IEnumerator_Reset_m3249248421_AdjustorThunk
t7e:_IntComparer_Compare_m3057931085
DYa:__ZNK16LightmapSettings31GetRealtimeLightmapDecodeValuesEv
DL:__ZN5audio5mixer12SetSuspendedERNS0_16AudioMixerMemoryEb
cna:__ZN17PersistentManager21UnloadNonDirtyStreamsEv
dRh:__Z78RuntimeInvoker_Int32_t2071877448_DecimalU26_t1613489971_DecimalU26_t1613489971PK10MethodInfoPvPS2_
Otj:__ZN6il2cpp2vm13LivenessStateC2EP11Il2CppClassjPFvPP12Il2CppObjectiPvES7_PFvvESB_
d6h:__Z41RuntimeInvoker_ColorTweenMode_t1328781136PK10MethodInfoPvPS2_
fSa:__ZN12ImageFilters4BlitER17ShaderPassContextP7TextureP13RenderTextureiPK18SharedMaterialDataPKcP6ShaderiNS_9BlitFlagsE11CubemapFaceRK8Vector2fSH_
kCf:_Oid__ctor_m1936781897
yZg:_Object_INTERNAL_CALL_Internal_InstantiateSingleWithParent_m1401308849
Gti:_ResourceSet__ctor_m1222864106
Ech:_UIntPtr_op_Explicit_m1113914169
LBe:_Collection_1_System_Collections_IList_get_Item_m3376056117_gshared
EOh:__Z44RuntimeInvoker_Int64_t909078037_Il2CppObjectPK10MethodInfoPvPS2_
Kl:_emscripten_glDepthMask
hQd:__ZN23InterfaceActionInvoker1IP28PointerEventData_t1599784723E6InvokeEjP11Il2CppClassP12Il2CppObjectS1_
JJf:__ZL76UInt16_t986882611_CustomAttributesCacheGenerator_UInt16_TryParse_m1818885113P21CustomAttributesCache
xoe:_Enumerator_VerifyState_m3639069574_gshared
GBa:__ZN4crnd25static_huffman_data_model22prepare_decoder_tablesEv
jBe:_Enumerator_MoveNext_m689054299_gshared
ehe:_Array_Sort_TisIl2CppObject_TisIl2CppObject_m1915706600_gshared
olf:_ModulusRing_Difference_m662924064
fHh:_InternalEnumerator_1_MoveNext_m1869236997_gshared
qVd:_CanvasUpdateRegistry_ObjectValidForUpdate_m855695984
e2d:_InputField_set_onValueChanged_m2406388125
s9f:__ZL95Physics2D_t2540166467_CustomAttributesCacheGenerator_Physics2D_Raycast_m2303387255____maxDepth5P21CustomAttributesCache
fLe:_ReadOnlyCollection_1_System_Collections_ICollection_get_SyncRoot_m2702046016_gshared
iZ:__ZL22CleanupUnityWebStreamsPv
HAi:_Regex_get_RightToLeft_m529734879
qPb:__Z18Transfer_BlittableI18StreamedBinaryReadILb0EELb0E10ColorRGBAfEvRK29SerializationCommandArgumentsR31RuntimeSerializationCommandInfo
Myf:_ListDictionary_Add_m4276262662
L7:__Znaj
U9c:_RIPEMD160Managed_GGG_m1639995340
M0j:_emscripten_glEnableClientState__wrapper
vZ:__ZN17MessageIdentifierC2EPKcNS_7OptionsEPKN5Unity4TypeES1_
AE:__Z76AnimatorControllerPlayable_CUSTOM_INTERNAL_CALL_CrossFadeInFixedTimeInternalR9HPlayableifif
cgh:_Enumerator_System_Collections_IEnumerator_get_Current_m1648049763_gshared
PLj:__ZN6il2cpp6icalls8mscorlib4Mono8Security12Cryptography18KeyPairPersistence15_ProtectMachineEP12Il2CppString
Z7d:_Enumerable_Any_TisIl2CppObject_m2208185096_gshared
DTh:__Z57RuntimeInvoker_DSAParameters_t1872138834_SByte_t454417549PK10MethodInfoPvPS2_
$hb:__ZN11GameManager15ThreadedCleanupEv
oxe:_List_1__ctor_m1337392449_gshared
jmd:_Array_System_Collections_IList_Remove_m2438892375
m4e:_TextWriter__ctor_m2225796097
Fwi:__ZN21InterfaceFuncInvoker0IP24StringU5BU5D_t1642385972E6InvokeEjP11Il2CppClassP12Il2CppObject
adb:__ZN14SafeBinaryRead8TransferI14ConstantStringEEvRT_PKc17TransferMetaFlags
$Ji:_ScriptableObject_Internal_CreateScriptableObject_m1778903390
Fea:__ZNK6Camera16GetStereoEnabledEv
$0b:__ZN12LightManager15InitializeClassEv
Ffa:__ZN9ShaderLab11shaderprops16GetComputeBufferEPK19ShaderPropertySheetS3_NS_16FastPropertyNameE
E3:__ZN23ManagedAttributeManager35CallManagedGetDefaultExecutionOrderE17ScriptingClassPtr
c9b:__ZN18ScriptingArgumentsC2Ev
S7g:_TimeZone_IsDaylightSavingTime_m875882154
_Ah:_ArrayReadOnlyList_1_Insert_m503707439_gshared
gYj:_emscripten_glBlendFuncSeparate__wrapper
uRh:__Z52RuntimeInvoker_Single_t2076509932_Decimal_t724701077PK10MethodInfoPvPS2_
dqf:_CipherSuiteCollection_System_Collections_IList_set_Item_m750275607
zTa:__ZNK25CameraStackRenderingState27GetStereoImageEffectTextureEb
cbd:_SHA1CryptoServiceProvider__ctor_m3127563759
Vp:__ZN8Vector3f8TransferI14SafeBinaryReadEEvRT_
Cqg:__ZL103BaseVertexEffect_t2504093552_CustomAttributesCacheGenerator_BaseVertexEffect_ModifyVertices_m3446986347P21CustomAttributesCache
Do:FUNCTION_TABLE_ii
Rgh:_Enumerator_MoveNext_m335649778_AdjustorThunk
oT:__ZNSt3__26__treeINS_12__value_typeIN4core12basic_stringIcNS2_20StringStorageDefaultIcEEEES6_EENS_19__map_value_compareIS6_S7_NS_4lessIS6_EELb1EEENS_9allocatorIS7_EEE16__construct_nodeERKNS_4pairIKS6_S6_EE
aqc:__Z18Transfer_BlittableI9JSONWriteLb0E8BitFieldEvRK29SerializationCommandArgumentsR31RuntimeSerializationCommandInfo
mbh:_UInt32_ToString_m3894907091_AdjustorThunk
nSi:_Predicate_1__ctor_m2863314033_gshared
BWj:b44
DNd:_CultureInfo_get_TextInfo_m1582311326
$Ug:_GUIStyle_get_contentOffset_m1904924583
Qeh:_ShimEnumerator_get_Key_m616785465_gshared
vff:_SmallXmlParser_Error_m1832158746
QHf:_RepeatContext_get_IsLazy_m1620488045
Ek:_glDeleteVertexArrays
r9a:__Z24CreateDirectoryRecursiveRKN4core12basic_stringIcNS_20StringStorageDefaultIcEEEE
yWj:b41
DUb:__ZN9ShaderLab20SerializedSubProgram8TransferI18StreamedBinaryReadILb0EEEEvRT_
O3e:_StreamAsyncResult_get_AsyncWaitHandle_m4218169359
dfg:__ZL89GUIStyle_t1799908754_CustomAttributesCacheGenerator_GUIStyle_get_stretchWidth_m1223411161P21CustomAttributesCache
Njc:__Z22MonoGUIContentToNative18ScriptingObjectPtrR10GUIContent
C0a:__Z9EndJobSetR8JobFence11JobPriority
pke:_Array_InternalArray__get_Item_TisContactPoint2D_t3659330976_m825151777_gshared
iYc:__ZN2UI13CanvasManager9AddCanvasEPNS_6CanvasE
$pa:__ZN9Texture3D8TransferI19StreamedBinaryWriteILb0EEEEvRT_
NUa:__ZNK6Camera22CalculateRenderingPathEv
qrc:__ZN9JSONWrite8TransferI5RectTIfEEEvRT_PKc17TransferMetaFlags
lu:__ZN11UnityEngine9Animation37SetGenericRootTransformPropertyValuesERKNS0_30AnimatorGenericBindingConstantERKN7mecanim10ValueArrayER9Transformbb
Hri:_AnimatorControllerPlayable_INTERNAL_CALL_GetCurrentAnimatorClipInfoInternal_m3542665271
Jof:_ContentInfo_get_Content_m1802070908
_Ib:__ZL12InvokeMethodI17RemapPPtrTransferEvRK29SerializationCommandArgumentsR31RuntimeSerializationCommandInfo
Tif:_X509Certificate_get_PublicKey_m714501701
l4d:_U3CMouseDragOutsideRectU3Ec__Iterator1_System_Collections_IEnumerator_get_Current_m561728752
wPc:_tt_sbit_decoder_load_image
sid:_String_LastIndexOf_m290475879
lxc:__ZN15b2DistanceJointD0Ev
cae:__ZN21InterfaceFuncInvoker1Ii22UILineInfo_t3621277874E6InvokeEjP11Il2CppClassP12Il2CppObjectS0_
f1d:_Image_get_layoutPriority_m2151045813
jqj:__ZN15dense_hashtableINSt3__24pairIK10KeyWrapperIP11Il2CppClassES4_EES5_N6il2cpp8metadata16SZArrayClassHashEN14dense_hash_mapIS5_S4_SA_NS5_14EqualsComparerINS9_19SZArrayClassCompareEEENS0_9allocatorIS7_EEE9SelectKeyESE_SG_EC2EjRKSA_RKSE_RKSI_
MXf:__ZL58ManualResetEvent_t926074657_CustomAttributesCacheGeneratorP21CustomAttributesCache
y8h:__Z71RuntimeInvoker_Void_t1841601450_CornerU26_t4129226442_Int32_t2071877448PK10MethodInfoPvPS2_
c5e:_TextReader_Read_m975794707
dkc:__ZNSt3__24listIN10GUIManager12SortedScriptE11memory_poolIS2_EE6__sortI13OldSortScriptEENS_15__list_iteratorIS2_PvEESA_SA_jRT_
wbh:_UInt64_System_IConvertible_ToChar_m1930853313_AdjustorThunk
htf:_TlsClientCertificate_SendCertificates_m1096074091
KTd:_UIBehaviour_OnCanvasHierarchyChanged_m762109874
ayd:_SyncHashtable_get_Item_m408601391
mVf:__ZL45DSA_t903174880_CustomAttributesCacheGeneratorP21CustomAttributesCache
iNe:_ReadOnlyCollection_1_System_Collections_IEnumerable_GetEnumerator_m1401363518_gshared
yrg:__ZL66ObjStatsCorrect_t2986407682_CustomAttributesCacheGenerator_nameCatP21CustomAttributesCache
Gcb:__ZNK9Behaviour26GetTypeInfoVirtualInternalEv
pBe:_Stack_1_System_Collections_ICollection_CopyTo_m2104527616_gshared
G2g:_StringBuilder_AppendFormat_m1666670800
V_a:__ZN18DeferredRenderLoop13RenderGBufferEP13RenderTexturePS1_b8JobFencePK25DeferredRenderLoopScratchRi
HIb:__Z18Transfer_BlittableI17RemapPPtrTransferLb1E8BitFieldEvRK29SerializationCommandArgumentsR31RuntimeSerializationCommandInfo
Xrj:__ZN6il2cpp6icalls8mscorlib6System9ThreadingL11ThreadStartEPv
D$:__ZN15DirectorManager12OnSampleTimeEv
APe:_ReadOnlyCollection_1_System_Collections_IList_Remove_m3878418841_gshared
j2d:_InputField_EnforceContentType_m1902926812
kA:__ZN8Animator13ClearBindingsEv
cea:__ZN12CachedReader10Align4ReadEv
wDc:__ZN15b2WorldManifold10InitializeEPK10b2ManifoldRK11b2TransformfS5_f
wKe:_Collection_1_CopyTo_m42272870_gshared
u2h:__Z154RuntimeInvoker_RaycastHit2D_t4063908774_Vector2_t2243707579_Vector2_t2243707579_Single_t2076509932_Int32_t2071877448_Single_t2076509932_Single_t2076509932PK10MethodInfoPvPS2_
qtj:__ZN6il2cpp2vm9Exception28GetMarshalDirectiveExceptionEPKc
y8e:_MulticastDelegate_GetObjectData_m3187757658
RUd:_CanvasScaler_set_referencePixelsPerUnit_m1188599784
iQe:_ReadOnlyCollection_1_System_Collections_IList_get_Item_m887129009_gshared
nSe:_Comparison_1_EndInvoke_m179917407_gshared
q_b:__ZNK28MonoBehaviourPropertyBinding12SetPPtrValueERKN11UnityEngine9Animation10BoundCurveEi
aWa:__Z21GetScriptingArraySize17ScriptingArrayPtr
WIc:__ZN20TextRenderingPrivate8FontImpl8TransferI14SafeBinaryReadEEvRT_
Y7h:__Z59RuntimeInvoker_Boolean_t3825574718_KeyValuePair_2_t38854645PK10MethodInfoPvPS2_
sDi:__ZN23InterfaceActionInvoker1IP19LinkRef_t2090853131E6InvokeEjP11Il2CppClassP12Il2CppObjectS1_
fia:__Z35UnityPropertySheet_MakeSortedColorsRKNSt3__23mapIN9ShaderLab16FastPropertyNameE10ColorRGBAfNS_4lessIS2_EENS_9allocatorINS_4pairIKS2_S3_EEEEEER10vector_mapIS2_S3_S5_NS6_INS7_IS2_S3_EEEEE
eUg:_GUIStyle_Draw_m4006459684
qwa:__ZN9GfxDevice17ImmediateTexCoordEifff
gCi:_Parser_ParseRegularExpression_m2390577313
aRc:_ft_black_new
sCc:__ZN10ClipperLib7Clipper13AppendPolygonEPNS_5TEdgeES2_
Pnd:_Array_double_swapper_m1175307080
K4f:__ZL102GameObject_t1756533147_CustomAttributesCacheGenerator_GameObject_Internal_CreateGameObject_m3428198595P21CustomAttributesCache
pDi:_Alternation_AddAlternative_m623421443
rFf:_X509CertificateEnumerator_System_Collections_IEnumerator_Reset_m327358896
wei:__Z36RuntimeInvoker_Enumerator_t402048720PK10MethodInfoPvPS2_
Ced:_Hash__ctor_m2554411450
qUe:_NumberFormatter_AppendDigits_m1308372770
Qfb:__ZN17FileSystemHandler4CopyER13FileEntryDataS1_
jgd:_Single_System_IConvertible_ToDateTime_m2510003459_AdjustorThunk
eJd:_Delegate_RemoveImpl_m3666700529
aWj:_emscripten_glUniform4f__wrapper
ezf:_NameObjectCollectionBase_OnDeserialization_m3478980442
chi:_AnimatorControllerParameter_get_name_m1366583724
X1d:_InputField_set_caretColor_m2252440840
cB:__ZN8Animator8TransferI19StreamedBinaryWriteILb0EEEEvRT_
wXa:__ZNK6Camera16GetProjectionFarEv
I3a:__Z24InverseTransformRotationRK23TransformAccessReadOnlyRKN4math7_float4E
HWf:__ZL68SecurityCriticalAttribute_t2312050089_CustomAttributesCacheGeneratorP21CustomAttributesCache
w6e:_MissingFieldException__ctor_m1161042282
Yae:_Array_InternalArray__IndexOf_TisSlot_t2267560602_m1912863273_gshared
e7c:__Z31GetPerformanceReportingSettingsv
eqa:__ZN7Texture34CreateFileTextureUploadInstructionE18TextureUploadFlagsj
mLi:_StateMachineBehaviour_OnStateExit_m1490844990
ewa:__ZN9GfxDevice21ResetDynamicResourcesEv
WRa:__ZN13ComputeShader14SetBufferParamEjRKN9ShaderLab16FastPropertyNameE15ComputeBufferID
aMj:__ZN6il2cpp2os9FastMutex4LockEv
LSe:_Comparison_1_EndInvoke_m4174686984_gshared
Yxg:_StreamingContext__ctor_m3063421596_AdjustorThunk
nPe:_ReadOnlyCollection_1_System_Collections_Generic_IListU3CTU3E_Insert_m3054305464_gshared
VZb:__ZN19LowerResBlitTexture13ApplySettingsEv
JKf:__ZL70IntPtr_t_CustomAttributesCacheGenerator_IntPtr_op_Explicit_m3896766622P21CustomAttributesCache
VA:__ZN8Animator8TransferI14SafeBinaryReadEEvRT_
Vpj:__ZN15dense_hashtableINSt3__24pairIK10KeyWrapperIP11Il2CppClassES4_EES5_N6il2cpp8metadata16SZArrayClassHashEN14dense_hash_mapIS5_S4_SA_NS5_14EqualsComparerINS9_19SZArrayClassCompareEEENS0_9allocatorIS7_EEE9SelectKeyESE_SG_E4swapERSJ_
mhb:__ZN17GlobalGameManager23VirtualRedirectTransferER18StreamedBinaryReadILb0EE
nbe:_Array_InternalArray__IndexOf_TisTypeTag_t141209596_m2882894956_gshared
jxh:_Slider_get_value_m4182660424
Pvc:__ZNK14b2CapsuleShape5CloneEP16b2BlockAllocator
ix:__ZN17AnimationPlayable34CollectAnimatorControllerPlayablesER13dynamic_arrayIP26AnimatorControllerPlayableLj4EE
oP:__ZN16BaseVideoTexture19UpdateVideoTexturesEv
Nkb:__Z28BuildSingleStreamChannelInfo17ShaderChannelMaskRK20VertexChannelsLayoutS_S2_P11ChannelInfo
t2h:__Z79RuntimeInvoker_RaycastHit2D_t4063908774_Vector2_t2243707579_Vector2_t2243707579PK10MethodInfoPvPS2_
Joa:__ZNK16LightmapSettings23HasLightProbeTetrahedraEv
usf:_Context_get_WriteSequenceNumber_m243492531
Grb:__ZN6Sprite23VirtualRedirectTransferER19StreamedBinaryWriteILb0EE
vQf:__ZL51Assembly_t4268412390_CustomAttributesCacheGeneratorP21CustomAttributesCache
kid:_String_LastIndexOfAny_m1473637802
Jhc:__Z38Transform_CUSTOM_INTERNAL_set_positionP12Il2CppObjectRK8Vector3f
VHc:__Z45Register_UnityEngine_Collider2D_get_isTriggerv
Ete:_List_1_System_Collections_ICollection_CopyTo_m3062449209_gshared
ujj:__ZNK15dense_hashtableINSt3__24pairIK10KeyWrapperINS1_IPK9FieldInfoP11Il2CppClassEEEjEES9_17ReflectionMapHashIS8_EN14dense_hash_mapIS9_jSD_NS9_14EqualsComparerINS0_8equal_toIS8_EEEENS0_9allocatorISB_EEE9SelectKeyESI_SK_E5beginEv
Xfa:__ZNK9ShaderLab7Program19HasMatchingVariantsERK13dynamic_arrayI16ShaderKeywordSetLj4EE
st:__ZN15SerializeTraitsIN4math4trsXEE8TransferI8BlobSizeEEvRS1_RT_
Fza:__ZN14DataBufferGLES11CopySubDataEPKS_jjj
ne:_emscripten_glVertexPointer
VIa:__ZNSt3__26__treeI20DeviceDepthStateGLES11memcmp_lessIS1_S1_ENS_9allocatorIS1_EEE7destroyEPNS_11__tree_nodeIS1_PvEE
YZc:__ZN2UI13PrepareOutputERNS_7BatchesEjjNS_30AdditionalCanvasShaderChannelsE
Rre:_List_1_System_Collections_Generic_ICollectionU3CTU3E_get_IsReadOnly_m1614481629_gshared
Dcj:__ZN6il2cpp2vm7Runtime47RaiseExecutionEngineExceptionIfMethodIsNotFoundEPK10MethodInfo
C_a:__Z17GetFrustumPortionPK8Vector3fffPS_
Lch:_UnauthorizedAccessException__ctor_m259001183
Xuj:__ZN15dense_hashtableINSt3__24pairIK10KeyWrapperIP14Il2CppIUnknownEjEES5_N6il2cpp5utils11PointerHashIS3_EEN14dense_hash_mapIS5_jSB_NS5_14EqualsComparerINS0_8equal_toIS4_EEEENS0_9allocatorIS7_EEE9SelectKeyESG_SI_E14squash_deletedEv
TMi:_TouchScreenKeyboard_set_text_m3456054179
qF:__Z96Register_UnityEngine_Experimental_Director_AnimatorControllerPlayable_INTERNAL_CALL_PlayInternalv
LXd:_DefaultControls_CreateDropdown_m1384069408
GRd:_PointerEventData_get_clickCount_m4064532478
KNe:_ReadOnlyCollection_1_System_Collections_Generic_ICollectionU3CTU3E_get_IsReadOnly_m3508872969_gshared
TLd:_EventArgs__cctor_m1350395667
M$g:_Rect_get_position_m24550734_AdjustorThunk
_Ui:_UnityEvent_1_GetDelegate_m4062537313_gshared
xMd:_CCGregorianCalendar_is_leap_year_m567513478
RCf:_Oid_get_Value_m2271181078
ood:_Attribute_IsDefined_m2118467641
mSa:__ZN14GraphicsHelper8DrawQuadER9GfxDevice17ShaderChannelMaskbRK5RectTIfE
Dgf:_PrivateKeyInfo_Normalize_m3959595934
bCh:_InternalEnumerator_1_System_Collections_IEnumerator_get_Current_m3125080595_gshared
YHe:_Collection_1_System_Collections_IList_Add_m2091889616_gshared
D4b:__ZN16StreamedResource8TransferI24GenerateTypeTreeTransferEEvRT_
Dxc:__ZN11b2GearJoint4DumpEv
fZd:_DropdownItem_OnPointerEnter_m761897861
Q2h:__Z75RuntimeInvoker_Int32_t2071877448_PlayableHandleU26_t3483893774_Il2CppObjectPK10MethodInfoPvPS2_
_Fa:__ZN10Matrix3x3f15InvertTransposeEv
d7d:_Array_InternalArray__ICollection_Remove_TisKeyValuePair_2_t1174980068_m2768765894_gshared
yAb:__ZN24GenerateTypeTreeTransfer8TransferINSt3__26vectorIN4core12basic_stringIcNS3_20StringStorageDefaultIcEEEE13stl_allocatorIS7_L18MemLabelIdentifier12ELi16EEEEEEvRT_PKc17TransferMetaFlags
GFe:_Collection_1_set_Item_m2199807215_gshared
G4f:__ZL96GameObject_t1756533147_CustomAttributesCacheGenerator_GameObject_SendMessage_m71956653____value1P21CustomAttributesCache
SHb:__Z29Transfer_Blittable_ArrayFieldI14SafeBinaryRead8Vector3fEvRT_R9ArrayInfoRK23StaticTransferFieldInfo
yah:_UInt32_System_IConvertible_ToBoolean_m91295134
d5g:_Monitor_Monitor_test_synchronised_m1542589500
w4f:__ZL85GameObject_t1756533147_CustomAttributesCacheGenerator_GameObject_get_layer_m725607808P21CustomAttributesCache
Rgg:__ZL68RuntimePlatform_t1869584967_CustomAttributesCacheGenerator_WP8PlayerP21CustomAttributesCache
QJc:__ZN20TextRenderingPrivate8FontImpl18ResetCachedTextureEv
cKf:__ZL75String_t_CustomAttributesCacheGenerator_String_Concat_m626692867____values0P21CustomAttributesCache
H4f:__ZL98GameObject_t1756533147_CustomAttributesCacheGenerator_GameObject_SendMessage_m71956653____options2P21CustomAttributesCache
qhf:_SymmetricTransform_TransformFinalBlock_m4192185386
tWe:_TextInfo__ctor_m1263401274
odh:_Version_get_Major_m3385239713
GYi:_ListPool_1_Release_m3047738410_gshared
RMi:_TouchScreenKeyboard_Open_m913506328
cHj:_GC_print_finalization_stats
isf:_Context_get_SecurityProtocolFlags_m3295551796
uhh:_ValueCollection__ctor_m927733289_gshared
Oea:__ZN11NamedObject15ThreadedCleanupEv
Yyc:__ZNK12b2WheelJoint10GetAnchorBEv
Shi:_LowMemoryCallback__ctor_m4181659636
NHh:_InternalEnumerator_1__ctor_m2981879621_AdjustorThunk
abc:__Z53Register_UnityEngine_Behaviour_get_isActiveAndEnabledv
NCb:__ZNK13MonoBehaviour26GetTypeInfoVirtualInternalEv
zph:_EqualityComparer_1__ctor_m3971803374_gshared
zq:__ZNSt3__26vectorIN4core12basic_stringIcNS1_20StringStorageDefaultIcEEEENS_9allocatorIS5_EEE8__appendEj
Qfj:_il2cpp_gc_collect
Syb:__ZN26PlayerSettingsSplashScreen8TransferI17RemapPPtrTransferEEvRT_
AJc:__ZN20TextRenderingPrivate8FontImpl8TransferI17RemapPPtrTransferEEvRT_
EFh:_InternalEnumerator_1_get_Current_m3922357178_gshared
odj:__ZN6il2cpp6icalls8mscorlib6SystemL17CollectTypeFieldsINS_5utils10functional10TrueFilterEEEvP11Il2CppClassPKS7_iRNSt3__26vectorIP9FieldInfoNSB_9allocatorISE_EEEERKT_
qlg:__ZL72ColorBlock_t2652774230_CustomAttributesCacheGenerator_m_HighlightedColorP21CustomAttributesCache
i8g:_Type_get_IsValueType_m1733572463
ISg:_GUISkin_get_horizontalScrollbarThumb_m4062590908
nYb:__Z13GetTagManagerv
SCh:_InternalEnumerator_1_Dispose_m1748410190_AdjustorThunk
EUh:__Z127RuntimeInvoker_Void_t1841601450_IntPtr_t_Int32_t2071877448_SByte_t454417549_Int32_t2071877448_SByte_t454417549_SByte_t454417549PK10MethodInfoPvPS2_
F7d:_Array_InternalArray__ICollection_Remove_TisUInt16_t986882611_m65494986_gshared
bOe:_ReadOnlyCollection_1_IndexOf_m3054637117_gshared
ku:__ZN11UnityEngine9Animation37HasGenericRootTransformPropertyValuesERKNS0_30AnimatorGenericBindingConstantEb
lQ:__ZN11UnityEngine15CloudWebService17CloudJobSchedulerD0Ev
fhd:_String_System_IConvertible_ToBoolean_m2696751322
lna:__ZN18LoadSceneOperation7PerformEv
BQg:_GUILayer_INTERNAL_CALL_HitTest_m693512502
xG:__ZL16FMOD_ErrorString11FMOD_RESULT_468
nid:_String_LastIndexOfAny_m4281325295
qCc:__ZN10ClipperLib7Clipper14IntersectEdgesEPNS_5TEdgeES2_RNS_8IntPointE
XE:__Z113Register_UnityEngine_Experimental_Director_AnimatorControllerPlayable_INTERNAL_CALL_GetAnimatorControllerInternalv
xkc:__Z21CleanupGlobalGUIStatev
M6g:_TimeSpan__ctor_m1888018443_AdjustorThunk
Xxd:_SyncHashtable_get_Count_m3694444082
Ihj:__ZNSt3__26vectorINS_12basic_stringIcNS_11char_traitsIcEENS_9allocatorIcEEEENS4_IS6_EEE8allocateEj
tHa:__ZN22VertexDeclarationCache5ClearEv
F$j:_emscripten_glUniform2i__wrapper
p7a:__ZN17PersistentManager12SetPathRemapERKN4core12basic_stringIcNS0_20StringStorageDefaultIcEEEES6_
g0a:__ZN6Camera24PrepareCullingParametersERK23CameraCullingParameters13RenderingPathR11CullResults
xna:__ZN19RuntimeSceneManager22EndIntegrateMainThreadEP10UnitySceneNS_11LoadingModeE
oWf:__ZL84Evidence_t1407710183_CustomAttributesCacheGenerator_Evidence_GetHashCode_m1260371757P21CustomAttributesCache
UNe:_ReadOnlyCollection_1_System_Collections_ICollection_get_IsSynchronized_m2344337514_gshared
aJb:__Z26Transfer_UnityEngineObjectI17RemapPPtrTransferLb0EEvRK29SerializationCommandArgumentsR31RuntimeSerializationCommandInfo
uid:_String_IsNullOrEmpty_m2802126737
$qd:_Byte_Parse_m1442736478
Sxa:__ZN13GfxDeviceGLES15OnDeviceCreatedEb
p_e:_Int64_Parse_m3258022240
eid:_String_IndexOfOrdinal_m3591623977
yMi:_Texture2D_get_whiteTexture_m1979591766
Xzg:_CryptoConfig_EncodeLongNumber_m2352037787
P8g:_Type_GetMethod_m475234662
Rgd:_Single_GetHashCode_m3102305584
Ole:_KeyValuePair_2__ctor_m1877755778_AdjustorThunk
pvi:_ActivationServices_get_ConstructionActivator_m1726426854
ZKb:__Z29Transfer_Blittable_ArrayFieldI24GenerateTypeTreeTransfer4AABBEvRT_R9ArrayInfoRK23StaticTransferFieldInfo
SYf:__ZL76Convert_t2607082565_CustomAttributesCacheGenerator_Convert_ToChar_m245844937P21CustomAttributesCache
lYf:__ZL52Activator_t1850728717_CustomAttributesCacheGeneratorP21CustomAttributesCache
eIj:_GC_adj_bytes_allocd
Oxh:_SpriteState_t1353336012_marshal_pinvoke_cleanup
Oce:_Array_InternalArray__ICollection_Add_TisKeyframe_t1449471340_m887263954_gshared
fOi:_UIVertex__cctor_m803910084
mee:_Array_InternalArray__Insert_TisDateTime_t693205669_m1484996356_gshared
Kte:_List_1_System_Collections_IList_Remove_m3933652540_gshared
wmh:_DefaultComparer_GetHashCode_m926674183_gshared
$2e:_MonoIO_get_ConsoleInput_m2976499023
zWi:_PlayerBoundingBox__ctor_m3949603879
dJg:_OpCode_get_Size_m481593949_AdjustorThunk
rvd:_BitArrayEnumerator_checkVersion_m3839504595
Emd:_Array_GetUpperBound_m1352329707
gOa:__ZZ23InitPlayerLoopCallbacksvEN36UpdateScriptRunBehaviourUpdatestruct7ForwardEv
ije:_Mesh_SetListForChannel_TisIl2CppObject_m2261448912_gshared
X_h:__Z61RuntimeInvoker_Void_t1841601450_Byte_t3683104436_Il2CppObjectPK10MethodInfoPvPS2_
Rhd:_String_TrimEnd_m3153143011
BGd:_DateTimeOffset_Equals_m3728302791_AdjustorThunk
rVg:_GUIStyleState_t3801000545_marshal_pinvoke_back
n_a:__ZN20SphericalHarmonicsL219AddDirectionalLightERKN4math7_float3ERKNS0_7_float4E
J7g:_TimeSpan_op_GreaterThanOrEqual_m3997050520
JZf:__ZL77Convert_t2607082565_CustomAttributesCacheGenerator_Convert_ToUInt16_m36213644P21CustomAttributesCache
s$:__Z26ScheduleJobForEachInternalR8JobFencePFvPvjES1_iPFvS1_E11JobPriority
aDf:_OidEnumerator_MoveNext_m1889267785
B7b:__ZN9Scripting18RaiseMonoExceptionEPKcz
hob:__ZN9Texture2D8TransferI19StreamedBinaryWriteILb0EEEEvRT_
UBb:__ZN24RingBufferMemoryFileData6UnlockEPv
lSg:_GUISkin_set_box_m877476512
iZd:_OptionData__ctor_m3070653720
vYi:_TweenRunner_1_StartTween_m3792842064_gshared
y1b:__ZN9ShaderLab16FastPropertyName15InitBy28BitHashEj
rgd:_Single_System_IConvertible_ToInt32_m3269519527_AdjustorThunk
o0i:__ZN6il2cpp2vm5Class7GetNameEP11Il2CppClass
ibd:_SHA1Internal_ProcessBlock_m4070037334
OJj:__ZN6il2cpp6icalls8mscorlib6System10Reflection14MonoMethodInfo15get_method_infoE12Il2CppIntPtrP16Il2CppMethodInfo
f5f:__ZL87RectOffset_t3387826427_CustomAttributesCacheGenerator_RectOffset_get_bottom_m4112328858P21CustomAttributesCache
pfe:_Array_InternalArray__set_Item_TisDouble_t4078015681_m24756265_gshared
xtg:_ObjRef_GetObjectData_m3081609242
y_b:__ZN13ProduceHelperIN2UI13RectTransformELb0EE7ProduceE18MemLabelIdentifier18ObjectCreationMode
Ltb:__ZN17PackedFloatVector12UnpackFloatsEPfiiii
YWf:__ZL113EncoderReplacementFallback_t4228544112_CustomAttributesCacheGenerator_EncoderReplacementFallback__ctor_m517300448P21CustomAttributesCache
qLe:_ReadOnlyCollection_1__ctor_m3671019970_gshared
Kv:__ZN17AnimationPlayable28UpdateInternalStateRecursiveILi3ELb0EEEvPK35AnimationPlayableEvaluationConstant
jxa:__ZN13GfxDeviceGLES21DestroyComputeProgramER12ObjectHandleI18ComputeProgram_TagPvE
HBd:_Convert_ToDecimal_m2007036836
m7:__ZN17UniqueIDGenerator16DestroyPureIndexEj
Q3:__ZL21AppendNestedClassName17ScriptingClassPtrRN4core17string_with_labelILi1EEE
xSb:__ZN14SafeBinaryRead21TransferSTLStyleArrayINSt3__26vectorIN9ShaderLab20SerializedSubProgram12UAVParameterENS1_9allocatorIS5_EEEEEEvRT_17TransferMetaFlags
wxi:_Context_NotifyDynamicSinks_m1367144344
$U:__ZNK13BaseAllocator10IsAssignedEv
uR:__ZN24TextDOMTransferWriteBaseI9JSONWriteE12PushMetaFlagEi
DOh:__Z45RuntimeInvoker_Int16_t4041245914_Il2CppObjectPK10MethodInfoPvPS2_
Xqf:_TlsClientCertificateVerify__ctor_m110646389
Cla:__ZN6prcoreL26RemapGenericIntegerToFloatI17TexFormatARGB888815TexFormatRFloatEEvPKNS_9InnerInfoE
RU:__ZN5Mutex6UnlockEv
Fxi:_Context_GetServerContextSinkChain_m390126977
vhj:__ZN6il2cpp2vm17TypeNameParseInfoD2Ev
khe:_Array_Sort_TisIl2CppObject_m143182644_gshared
Qeg:__ZL89GUIStyle_t1799908754_CustomAttributesCacheGenerator_GUIStyle_set_imagePosition_m327170707P21CustomAttributesCache
H4e:_StringReader_Read_m513112775
Rpb:__ZNK8Renderer8GetLayerEv
FBe:_Collection_1_System_Collections_IList_Insert_m266942173_gshared
Ljb:__ZN12FlareManager11DeleteFlareEi
iDe:_Collection_1_Add_m2613548553_gshared
dA:__ZN7mecanim9animation22DestroyBlendTreeOutputEPNS0_15BlendTreeOutputERNS_6memory9AllocatorE
JWa:__ZNK6Camera20GetReplacementShaderEv
JXj:_glProgramBinary__wrapper
lHd:_Decimal__ctor_m569480123_AdjustorThunk
GLa:__ZN12HandlerChain11MoveToTrashER13FileEntryData
nAf:_HttpWebRequest__cctor_m3013631978
kLj:__ZNSt3__26__treeINS_12__value_typeINS_12basic_stringIcNS_11char_traitsIcEENS_9allocatorIcEEEEPFvvEEENS_19__map_value_compareIS7_SA_NS_4lessIS7_EELb1EEENS5_ISA_EEE4findIS7_EENS_15__tree_iteratorISA_PNS_11__tree_nodeISA_PvEEiEERKT_
FSb:__ZNSt3__26vectorIN9ShaderLab20SerializedSubProgram14ConstantBufferENS_9allocatorIS3_EEE7reserveEj
rpa:__ZL23stbir__calculate_memoryP11stbir__info
R$h:__Z90RuntimeInvoker_Boolean_t3825574718_Int32_t2071877448_Int32U26_t455636984_Int32_t2071877448PK10MethodInfoPvPS2_
Okj:__ZNK15dense_hashtableINSt3__24pairIK10KeyWrapperINS1_IPK10MethodInfoP11Il2CppClassEEEjEES9_17ReflectionMapHashIS8_EN14dense_hash_mapIS9_jSD_NS9_14EqualsComparerINS0_8equal_toIS8_EEEENS0_9allocatorISB_EEE9SelectKeyESI_SK_E12test_deletedERK24dense_hashtable_iteratorISB_S9_SD_SM_SI_SK_E
ePf:__ZL90BinaryReader_t2491843768_CustomAttributesCacheGenerator_BinaryReader_ReadSByte_m1712621355P21CustomAttributesCache
$th:_Scrollbar_FindSelectableOnRight_m3219495255
Tzb:__ZNK30RuntimeInitializeOnLoadManager26GetTypeInfoVirtualInternalEv
zYc:__ZNSt3__227__insertion_sort_incompleteIRPFbPN2UI6CanvasES3_EPS3_EEbT0_S8_T_
uuc:__ZNK9rapidjson12GenericValueINS_4UTF8IcEE13JSONAllocatorE6AcceptINS_12PrettyWriterI16TempBufferWriterS2_S2_S3_EEEEbRT_
f5h:__Z55RuntimeInvoker_AnalyticsResult_t3037633135_Il2CppObjectPK10MethodInfoPvPS2_
Yde:_Array_InternalArray__ICollection_CopyTo_TisVector3_t2243707580_m509487340_gshared
loc:__Z59Register_UnityEngine_GUIUtility_Internal_GetKeyboardControlv
zpf:_CipherSuite_get_KeyBlockSize_m2993514247
VE:__Z82AnimatorControllerPlayable_CUSTOM_INTERNAL_CALL_IsParameterControlledByCurveStringR9HPlayableP12Il2CppString
ysc:__ZL26Transfer_SimpleNativeClassI8JSONRead10RectOffsetLb1EEvRK29SerializationCommandArgumentsR31RuntimeSerializationCommandInfo
H$c:__Z44CanvasRenderer_CUSTOM_INTERNAL_CALL_SetColorP12Il2CppObjectRK10ColorRGBAf
U6b:__ZN12InputManager9GetAnyKeyEv
FGj:_GC_should_collect
Dvi:_UrlAttribute_Equals_m1587451932
qCj:__ZNSt3__26__treeINS_12basic_stringIcNS_11char_traitsIcEENS_9allocatorIcEEEENS_4lessIS6_EENS4_IS6_EEE12__find_equalIS6_EERPNS_16__tree_node_baseIPvEESG_RKT_
Ppc:__Z18Transfer_BlittableI9JSONWriteLb1EsEvRK29SerializationCommandArgumentsR31RuntimeSerializationCommandInfo
iCc:__ZN10ClipperLib8JoinHorzEPNS_5OutPtES1_S1_S1_NS_8IntPointEb
R2c:__Z48UnityAnalyticsHandler_CUSTOM_SendCustomEventNameP12Il2CppObjectP12Il2CppString
ZAg:_DSAParameters_t1872138834_marshal_pinvoke_cleanup
Qea:__ZN6ObjectD2Ev
T9b:__ZN9Transform16SetLocalRotationERK11Quaternionf
AAd:_DateTime_Parse_m1628430317
RQa:__ZN13RenderManager37RenderCamerasWithScriptableRenderLoopEi
Tdf:_ASN1_Element_m2600236165
MY:__GLOBAL__sub_I_runtime_graphics5_lump_cpp
A8:__ZN23InstancedPropInfoStaticL16RegisterCallbackEPv
bei:__Z37RuntimeInvoker_Enumerator_t2983962278PK10MethodInfoPvPS2_
Ct:__ZN7mecanim8skeleton25SkeletonPoseComputeLocalQEPKNS0_8SkeletonEPKNS0_13SkeletonPoseTIN4math4trsXEEEPS7_ii
aAi:_MethodCall_Init_m3987198685
Qxj:__ZN6il2cpp2os19ReleaseSocketHandleEj
lWf:__ZL59ApplicationTrust_t3968282840_CustomAttributesCacheGeneratorP21CustomAttributesCache
xNf:__ZL128SafeHandleZeroOrMinusOneIsInvalid_t1177681199_CustomAttributesCacheGenerator_SafeHandleZeroOrMinusOneIsInvalid__ctor_m3340306667P21CustomAttributesCache
YDj:__ZN15dense_hashtableINSt3__24pairIK10KeyWrapperIPK19Il2CppGenericMethodEP10MethodInfoEES6_N6il2cpp8metadata23Il2CppGenericMethodHashEN14dense_hash_mapIS6_S9_SD_NS6_14EqualsComparerINSC_26Il2CppGenericMethodCompareEEENS0_9allocatorISA_EEE9SelectKeyESH_SJ_E5clearEv
wJg:_TypeBuilder_GetPropertyImpl_m1854119335
YEg:_TypeBuilder_get_next_table_index_m1415870184
wSj:___cxa_can_catch
$lf:_SequentialSearchPrimeGeneratorBase_GenerateNewPrime_m296245934
esd:_Char_GetUnicodeCategory_m4273361321
_7h:__Z68RuntimeInvoker_Boolean_t3825574718_Il2CppObject_ObjectU26_t597476745PK10MethodInfoPvPS2_
bXa:__ZN6Camera28DefaultPerformRenderFunctionD0Ev
k6e:_Math_Round_m565516458
nxi:_Identity_get_ClientDynamicProperties_m767245959
$Bh:_InternalEnumerator_1__ctor_m675130983_AdjustorThunk
zih:_Dictionary_2_Clear_m899854001_gshared
iAj:__ZN6il2cpp2os5posix15PosixWaitObjectC2ENS2_4TypeE
uBb:__Z23AppendPathNameExtensionRKN4core12basic_stringIcNS_20StringStorageDefaultIcEEEES5_
Jcg:__ZL83Canvas_t209405766_CustomAttributesCacheGenerator_Canvas_get_scaleFactor_m1115379735P21CustomAttributesCache
nJg:_TypeBuilder_create_generic_class_m986834171
J1i:__ZL24UnresolvedVirtualCall_34P12Il2CppObjectS0_PK10MethodInfo
ZXj:_emscripten_glVertexPointer__wrapper
wsa:__ZN23ShaderVariantCollection13WarmupShadersEv
hsf:_Context_set_ProtocolNegotiated_m1177527245
Eri:_AnimatorControllerPlayable_INTERNAL_CALL_GetAnimatorTransitionInfoInternal_m2259454958
Cah:_UInt32_System_IConvertible_ToChar_m1056040486
x3:__Z25GetCommonScriptingClassesv
Qxf:_TlsStream_get_Length_m1562309511
Nna:__Z27scripting_gc_collect_unsafei
ZO:__ZN11AudioModule20SuspendVideoTexturesEv
uvd:_CaseInsensitiveComparer__ctor_m1125492797
W0b:__ZN12CubemapArrayC2E18MemLabelIdentifier18ObjectCreationMode
fAd:_Convert_ToByte_m395020137
wKb:__Z26Transfer_UnityEngineObjectI24GenerateTypeTreeTransferLb0EEvRK29SerializationCommandArgumentsR31RuntimeSerializationCommandInfo
qUc:_UNITY_FT_GlyphLoader_CheckPoints
vwe:_List_1_System_Collections_ICollection_CopyTo_m1995866425_gshared
Azc:__ZN16b2PolygonContact7DestroyEP9b2ContactP16b2BlockAllocator
u5e:_TextWriter_WriteLine_m1754475888
Hjb:__ZN15SharedLightData7PrecalcEv
woa:__ZN10Matrix4x4fmLERKS_
TSi:_InvokableCall_1_Invoke_m769918017_gshared
Xp:__ZN4PPtrI9TransformE8TransferI18StreamedBinaryReadILb0EEEEvRT_
Rje:_Array_InternalArray__get_Item_TisDouble_t4078015681_m2215331088_gshared
uWf:__ZL57PrincipalPolicy_t289802916_CustomAttributesCacheGeneratorP21CustomAttributesCache
xdb:__ZN19StreamedBinaryWriteILb0EE19TransferSTLStyleMapINSt3__28multimapIN4core12basic_stringIcNS4_20StringStorageDefaultIcEEEEN11AssetBundle9AssetInfoENS2_4lessIS8_EENS2_9allocatorINS2_4pairIKS8_SA_EEEEEEEEvRT_17TransferMetaFlags
QGe:_Collection_1_ClearItems_m3446813399_gshared
rih:_Dictionary_2_Init_m3666073812_gshared
Nxe:_List_1_AsReadOnly_m1681105545_gshared
JMa:__ZN15ArchiveReadFileD0Ev
jhf:_SymmetricTransform_TransformBlock_m1524716432
v8:__ZN18ConcurrentFreeListI28FileTextureUploadInstructionE7CleanUpEv
U9d:_Array_compare_TisColor32_t874517518_m3842009370_gshared
m4c:__ZN11UnityEngine15PlatformWrapper18GetOperatingSystemEv
ACa:__ZNSt3__26vectorIP14DataBufferGLESNS_9allocatorIS2_EEE21__push_back_slow_pathIKS2_EEvRT_
ZJh:_InternalEnumerator_1__ctor_m2458691472_AdjustorThunk
uQe:_ReadOnlyCollection_1_System_Collections_Generic_ICollectionU3CTU3E_Remove_m974176789_gshared
KId:_Delegate_return_type_match_m4278947849
L3d:_InputField_GenerateHightlight_m1346735465
yFi:_Uri_ParseNoExceptions_m1151989845
yzd:_GC_SuppressFinalize_m953228702
mUc:_FT_MSB
Kwf:_InternalAsyncResult_get_ProceedAfterHandshake_m552962842
ZUg:_GUIStyle_get_clipping_m2754700641
Bqj:__ZN15dense_hashtableINSt3__24pairIK10KeyWrapperINS1_IP11Il2CppClassjEEES4_EES6_N6il2cpp8metadata14ArrayClassHashEN14dense_hash_mapIS6_S4_SB_NS6_14EqualsComparerINSA_17ArrayClassCompareEEENS0_9allocatorIS8_EEE9SelectKeyESF_SH_E3endEv
uYh:__Z50RuntimeInvoker_SByte_t454417549_Double_t4078015681PK10MethodInfoPvPS2_
neg:__ZL72GUISkin_t1436893342_CustomAttributesCacheGenerator_m_verticalSliderThumbP21CustomAttributesCache
NLj:__ZN6il2cpp6icalls8mscorlib4Mono8Security12Cryptography18KeyPairPersistence10_CanSecureEP12Il2CppString
igg:__ZL96CustomEventData_t1269126727_CustomAttributesCacheGenerator_CustomEventData_AddUInt16_m3349298376P21CustomAttributesCache
Pzh:_Action_1_Invoke_m4180501989_gshared
Twh:_Slider__ctor_m3124136916
KLh:_DefaultComparer__ctor_m3180706193_gshared
oye:_List_1_System_Collections_Generic_IEnumerableU3CTU3E_GetEnumerator_m3625278020_gshared
Yta:__ZN13GfxDeviceGLES14SetRasterStateEPK17DeviceRasterState
Oya:__ZNK13TranslateGLES11BlendFactorE9BlendMode
ZFb:__Z30TransferField_LinearCollectionI14SafeBinaryReadEvRK29SerializationCommandArgumentsR31RuntimeSerializationCommandInfo
B2d:_InputField_set_caretPositionInternal_m231166704
WNi:_Transform_InverseTransformPoint_m2648491174
Drf:_TlsServerHello__ctor_m3032108168
vda:__ZN14SafeBinaryRead11EndTransferEv
_Pf:__ZL98ILGenerator_t99948092_CustomAttributesCacheGenerator_ILGenerator_Mono_GetCurrentOffset_m3553856682P21CustomAttributesCache
BU:__ZNK3WWW12GetAudioClipEv
mGb:__ZN14SafeBinaryRead8TransferI8MonoPPtrEEvRT_PKc17TransferMetaFlags
Fkh:_Dictionary_2_System_Collections_Generic_ICollectionU3CSystem_Collections_Generic_KeyValuePairU3CTKeyU2CTValueU3EU3E_Remove_m1705959559_gshared
fNa:__ZN24dense_hashtable_iteratorINSt3__24pairIKN4core12basic_stringIcNS2_20StringStorageDefaultIcEEEEP20ArchiveStorageReaderEES6_20StringHash32FunctionIS6_EN14dense_hash_mapIS6_S9_SC_NS0_8equal_toIS6_EE13stl_allocatorISA_L18MemLabelIdentifier54ELi16EEE9SelectKeyESF_SI_EppEv
HJh:_InternalEnumerator_1_System_Collections_IEnumerator_get_Current_m1533037706_gshared
D6f:__ZL111MonoBehaviour_t1158329972_CustomAttributesCacheGenerator_MonoBehaviour_StartCoroutine_Auto_Internal_m1014513456P21CustomAttributesCache
IFa:__ZN21UniformBufferTFMethod13MapBoneBufferEj
tvf:_RecordProtocol_SendChangeCipherSpec_m3542001341
_fe:_Array_InternalArray__set_Item_TisVector3_t2243707580_m1390667454_gshared
Jjc:__ZN12GUIClipState10BeginOnGUIER10InputEvent
tsj:__ZNSt3__26vectorIcNS_9allocatorIcEEEC2Ej
gff:_KeyPairPersistence_CanSecure_m2251009700
JNa:__ZZ23InitPlayerLoopCallbacksvEN27FixedUpdateClearLinesstruct7ForwardEv
xCb:__ZN9TextAsset15ThreadedCleanupEv
rsg:_ReturnMessage_get_Properties_m531965085
ZGg:_GenericTypeParameterBuilder_IsSubclassOf_m563999142
iMd:_Exception_ToString_m627574695
vKc:__ZNSt3__26vectorIN20TextRenderingPrivate8FontImpl7IntRectE13stl_allocatorIS3_L18MemLabelIdentifier34ELi16EEE21__push_back_slow_pathIKS3_EEvRT_
t$:__Z21CompleteFenceInternalR8JobFence
slc:__Z30Event_Get_Custom_PropModifiersP12Il2CppObject
xjj:__ZN30dense_hashtable_const_iteratorINSt3__24pairIK10KeyWrapperINS1_IPK9FieldInfoP11Il2CppClassEEEjEES9_17ReflectionMapHashIS8_EN14dense_hash_mapIS9_jSD_NS9_14EqualsComparerINS0_8equal_toIS8_EEEENS0_9allocatorISB_EEE9SelectKeyESI_SK_E30advance_past_empty_and_deletedEv
Xkh:_Dictionary_2_ContainsValue_m2375979648_gshared
wx:__ZN7mecanim9animation16CreateClipOutputEPKNS0_4ClipERNS_6memory9AllocatorE
tu:__ZN7mecanim9animation23ClearAnimationNodeStateEPNS0_18AnimationNodeStateEb
nee:_Array_InternalArray__Insert_TisDecimal_t724701077_m1429254816_gshared
RYi:_ListPool_1_Get_m2998644518_gshared
qQb:__ZN18StreamedBinaryReadILb0EE21TransferSTLStyleArrayI13dynamic_arrayIyLj8EEEEvRT_17TransferMetaFlags
KBa:__ZN18AsyncUploadManager17DoScaledPaddedJobEP28FileTextureUploadInstruction
$ra:__ZNSt3__218__stable_sort_moveIRN10vector_mapI17ScriptingClassPtrPKN5Unity4TypeENS_4lessIS2_EENS_9allocatorINS_4pairIS2_S6_EEEEE13value_compareENS_11__wrap_iterIPSB_EEEEvT0_SJ_T_NS_15iterator_traitsISJ_E15difference_typeEPNSM_10value_typeE
rRb:__ZN6Shader21AwakeFromLoadThreadedEv
Dka:__ZN6prcoreL17RemapGenericFloatI17TexFormatRGBFloat17TexFormatRGBAHalfEEvPKNS_9InnerInfoE
Qmg:__ZL70InputField_t1631627530_CustomAttributesCacheGenerator_m_CharacterLimitP21CustomAttributesCache
dze:_List_1_get_Capacity_m2443158653_gshared
fuc:__ZN8JSONRead21TransferSTLStyleArrayI13dynamic_arrayI8Vector2fLj4EEEEvRT_18MemLabelIdentifier17TransferMetaFlags
IWg:_LayerMask_op_Implicit_m2135076047
s7c:__ZN13RuntimeStaticINSt3__26vectorIjNS0_9allocatorIjEEEELb0EE16StaticInitializeEPv
RMj:__ZN6il2cpp2os9SemaphoreC2Eii
ZBh:_InternalEnumerator_1_get_Current_m2960188445_AdjustorThunk
oGb:__ZNSt3__26vectorI8MonoPPtr13stl_allocatorIS1_L18MemLabelIdentifier1ELi16EEE8__appendEj
syh:_Text_set_alignByGeometry_m1514652028
mVa:__ZN14qsort_internal30FindAndMovePivotToLastPositionIP17RODataReplacementi19ROSorterReplacementEEvT_S4_T0_T1_
TFa:__ZN15UniformTFMethod20IsBoneCountSupportedEi
vZg:_Object_Internal_InstantiateSingle_m2776302597
ldd:_X509Certificate_GetExpirationDateString_m2351894475
z1e:_FileStream_get_Position_m465478322
y7i:__ZN14dense_hash_setI10KeyWrapperIPK19Il2CppGenericMethodEN6il2cpp8metadata23Il2CppGenericMethodHashENS4_14EqualsComparerINS6_26Il2CppGenericMethodCompareEEENSt3__29allocatorIS4_EEEC2EjRKS7_RKSA_
pUj:dynCall_viidi
ree:_Array_InternalArray__Insert_TisInt64_t909078037_m3039874636_gshared
opd:_Convert_ToInt16_m1787678274
czh:_ToggleGroup_NotifyToggleOn_m997426227
Dvf:_RSASslSignatureDeformatter_SetKey_m1150106904
Bdg:__ZL74Event_t3028476042_CustomAttributesCacheGenerator_Event_Cleanup_m1195902101P21CustomAttributesCache
F_:__ZN24ScriptingMethodFiltering17FilterOnSignatureENS_18MethodSearchFilterE
pEg:_TypeBuilder_get_Module_m1668298460
Lth:_Scrollbar_ClickRepeat_m3403943364
pO:__ZN13ProduceHelperI9AudioClipLb0EE7ProduceE18MemLabelIdentifier18ObjectCreationMode
eW:__ZN18ScreenManagerWebGL13SetLockCursorE14CursorLockMode
KTc:_cf2_arrstack_finalize
Q7e:_MonoType_GetMethodsByName_m1854415088
fFg:_DerivedType_GetMethods_m165266904
Qgf:_RSAManaged_EncryptValue_m4089823119
j_b:__ZN13MonoBehaviour19HandleNotificationsEPviR11MessageData
sNj:__ZN6il2cpp2os9EventImpl5ResetEv
Llh:_DefaultComparer_GetHashCode_m926363525_gshared
HTg:_GUIStyle_set_focused_m1547304893
Luh:_ScrollRect_get_verticalScrollbar_m2455612493
m5h:__Z69RuntimeInvoker_Void_t1841601450_Int32_t2071877448_HitInfo_t1761367055PK10MethodInfoPvPS2_
Tea:__ZNK11NamedObject26GetTypeInfoVirtualInternalEv
n2e:_ReadDelegate_Invoke_m2091885836
oGg:_TypeBuilder_GetField_m2112455315
hXj:b58
iXj:b59
RWj:b52
SWj:b53
PWj:b50
u6h:__Z51RuntimeInvoker_Vector4_t2243707581_SByte_t454417549PK10MethodInfoPvPS2_
fXj:b56
gXj:b57
bXj:b54
eXj:b55
Mcf:_Kernel_Multiply_m3585610531
apf:_CertificateSelectionCallback_EndInvoke_m3525317639
OL:__ZN4PPtrI15AudioMixerGroupE8TransferI18StreamedBinaryReadILb0EEEEvRT_
xQh:__Z67RuntimeInvoker_Void_t1841601450_Int32_t2071877448_Int16_t4041245914PK10MethodInfoPvPS2_
IEd:_DateTime__ctor_m3604679583_AdjustorThunk
t8f:__ZL96Transform_t3275118058_CustomAttributesCacheGenerator_Transform_INTERNAL_get_position_m1881704498P21CustomAttributesCache
egg:__ZL94CustomEventData_t1269126727_CustomAttributesCacheGenerator_CustomEventData_AddChar_m1103619816P21CustomAttributesCache
Vnd:_SimpleEnumerator_Reset_m1341779532
Shj:__ZNSt3__214__split_bufferINS_12basic_stringIcNS_11char_traitsIcEENS_9allocatorIcEEEERNS4_IS6_EEEC2EjjS8_
dgf:_MACAlgorithm_Core_m2390605245
LIh:_InternalEnumerator_1_System_Collections_IEnumerator_get_Current_m30488070_gshared
dZb:__ZN10GameObject12CleanupClassEv
sFh:_InternalEnumerator_1_System_Collections_IEnumerator_Reset_m2624612805_AdjustorThunk
wMf:__ZL108ArrayReadOnlyList_1_t3367196019_CustomAttributesCacheGenerator_ArrayReadOnlyList_1_GetEnumerator_m3031680693P21CustomAttributesCache
sui:_DllImportAttribute__ctor_m1165454237
Bua:__ZN9GfxDevice25SetShaderPropertiesSharedERK19ShaderPropertySheet
PXi:_IndexedSet_1_GetEnumerator_m3646001838_gshared
dCb:__ZN10MonoScript17MainThreadCleanupEv
YAa:__ZN18AsyncUploadManager19AsyncResourceUploadER9GfxDeviceii9TextureID
fsh:_VertexHelper_AddUIVertexTriangleStream_m4009409241
qMh:_Comparer_1__ctor_m844571340_gshared
g2b:__ZL25InitializeDefaultMaterialv
mgb:__ZN21ArchiveStorageCreatorD2Ev
D6g:_WaitHandle_Dispose_m441403862
jKa:__ZN19FileAccessorHandlerD2Ev
_Mh:_Comparer_1__ctor_m2941434245_gshared
Gzh:_VertexHelper_AddVert_m3290455716
ZVf:__ZL56SHA256Managed_t2029745292_CustomAttributesCacheGeneratorP21CustomAttributesCache
WPf:__ZL126GenericTypeParameterBuilder_t1370236603_CustomAttributesCacheGenerator_GenericTypeParameterBuilder_MakeGenericType_m2955814622P21CustomAttributesCache
jra:__ZN17PersistentManager12UnloadStreamERKN4core12basic_stringIcNS0_20StringStorageDefaultIcEEEEb
XV:__ZN13ScreenManager17RequestResolutionEiibi
sAg:_DESTransform__ctor_m4096028381
$fj:_il2cpp_unity_liveness_calculation_from_statics
d6g:_Scheduler_get_Instance_m1989471839
L0h:__Z61RuntimeInvoker_Void_t1841601450_CullingGroupEvent_t1057617917PK10MethodInfoPvPS2_
eCf:_WebRequest_System_Runtime_Serialization_ISerializable_GetObjectData_m3377822910
sqb:__ZN8Renderer8TransferI17RemapPPtrTransferEEvRT_
fGe:_Collection_1_Contains_m1299140035_gshared
dXj:_glBlitFramebuffer__wrapper
rle:_ExecuteEvents_ExecuteHierarchy_TisIl2CppObject_m2541874163_gshared
Tce:_Array_InternalArray__ICollection_Add_TisUICharInfo_t3056636800_m968274080_gshared
ZYi:_ObjectPool_1__ctor_m1532275833_gshared
Axa:__ZN13GfxDeviceGLES19SetSinglePassStereoE16SinglePassStereo
Kdc:__Z22Input_CUSTOM_GetKeyInti
s2i:__ZL24UnresolvedVirtualCall_71P12Il2CppObjectS0_S0_iS0_S0_S0_PK10MethodInfo
CKf:__ZL64IntPtr_t_CustomAttributesCacheGenerator_IntPtr__ctor_m3803259710P21CustomAttributesCache
Txe:_List_1_GetIndex_m3262928832_gshared
eei:__Z88RuntimeInvoker_Boolean_t3825574718_DateTimeOffset_t1362988906_DateTimeOffset_t1362988906PK10MethodInfoPvPS2_
n3a:__Z24LookRotationToQuaternionRK8Vector3fS1_P11Quaternionf
l3a:__ZN16ReflectionProbes9GetCameraEv
GVb:__ZL18IsGpuProgramUsable20ShaderGpuProgramTypePK6Shader
skf:_ArgumentException__ctor_m2105824819
I_c:__ZN2UI6Canvas17SetSortingLayerIDEi
sUd:_BaseMeshEffect_get_graphic_m3358796463
fAj:__ZN6il2cpp2vm11MethodStack23CleanupForCurrentThreadEv
x5i:__ZL25UnresolvedVirtualCall_238P12Il2CppObject19Vector4_t2243707581PK10MethodInfo
CRi:_Predicate_1_Invoke_m695569038_gshared
zme:_Enumerator_VerifyState_m825848279_AdjustorThunk
okb:__ZN20TierGraphicsSettings8TransferI24GenerateTypeTreeTransferEEvRT_
jgi:_UnityAnalyticsHandler_t3238795095_marshal_pinvoke_back
KHb:__ZN14SafeBinaryRead21TransferSTLStyleArrayI13dynamic_arrayI4AABBLj4EEEEvRT_17TransferMetaFlags
aia:__ZN18UnityPropertySheet8TransferI19StreamedBinaryWriteILb0EEEEvRT_
Rtf:_TlsServerCertificate_checkServerIdentity_m3836435780
n9:__ZNSt3__26__treeINS_12__value_typeIiN11TypeManager18TypeCallbackStructEEENS_19__map_value_compareIiS4_NS_4lessIiEELb1EEENS_9allocatorIS4_EEE7destroyEPNS_11__tree_nodeIS4_PvEE
Shf:_PKCS12_Decrypt_m2353135969
_oi:_PersistentCallGroup_Initialize_m3908067069
BLg:_MonoEvent_ToString_m386956596
Ngg:__ZL70RuntimePlatform_t1869584967_CustomAttributesCacheGenerator_FlashPlayerP21CustomAttributesCache
aCb:__ZN39AssetBundleLoadFromStreamAsyncOperationC2ERKN4core12basic_stringIcNS0_20StringStorageDefaultIcEEEE
PRd:_PointerEventData_get_pointerPress_m880101744
Gea:__ZL19GetCameraTargetRectRK6Camerabb
mfh:_Transform_1_BeginInvoke_m1786442111_gshared
jYe:_Int32_GetFormatException_m1729046182
_Be:_Collection_1_get_Count_m3834276648_gshared
Fbb:__ZN21UnityDefaultAllocatorI17LowLevelAllocatorE10DeallocateEPv
BY:__GLOBAL__sub_I_runtime_camera2_lump_cpp
wr:__ZN15PackedIntVector8TransferI14SafeBinaryReadEEvRT_
_Jg:_FieldInfo_get_IsLiteral_m267898096
jCa:__ZN17SharedTextureDataD0Ev
Rwf:_SslStreamBase_EndNegotiateHandshake_m1732321201
yfh:_Transform_1_BeginInvoke_m1167293475_gshared
RH:__ZN13AudioListener8DoUpdateEv
BJf:__ZL71SByte_t454417549_CustomAttributesCacheGenerator_SByte_Parse_m1620039654P21CustomAttributesCache
aAd:__Z13bankers_roundd
Jyb:__ZN14SafeBinaryRead8TransferI5RectTIfEEEvRT_PKc17TransferMetaFlags
wi:_emscripten_glGenFramebuffers
gxd:_Hashtable_CopyTo_m2778915805
i9:__ZN17BaseObjectManager16StaticInitializeEPv
vEg:_ConstructorBuilder_get_IsCompilerContext_m2796899803
z3f:__ZL97Component_t3819376471_CustomAttributesCacheGenerator_Component_GetComponentsInChildren_m843288020P21CustomAttributesCache
zdi:__Z37RuntimeInvoker_UICharInfo_t3056636800PK10MethodInfoPvPS2_
Hae:_Array_IndexOf_TisUIVertex_t1204258818_m613887160_gshared
Mzb:__ZN18StreamedBinaryReadILb0EE19TransferSTLStyleMapINSt3__28multimapIN4core12basic_stringIcNS4_20StringStorageDefaultIcEEEE4PPtrI6ObjectENS2_4lessIS8_EE13stl_allocatorINS2_4pairIKS8_SB_EEL18MemLabelIdentifier51ELi16EEEEEEvRT_17TransferMetaFlags
pXd:_FloatTween_GetDuration_m1757342579_AdjustorThunk
BAd:_DateTime_CoreParse_m2014268103
vve:_List_1__ctor_m3698273726_gshared
qEc:__ZN24ParticleIntersectQuery2D18ReportFixtureProxyEPK14b2FixtureProxy
N1c:__ZN21UnityAnalyticsManager23VirtualRedirectTransferER19StreamedBinaryWriteILb0EE
oqc:__Z18Transfer_BlittableI9JSONWriteLb0EyEvRK29SerializationCommandArgumentsR31RuntimeSerializationCommandInfo
Mea:__ZN13RenderTexture15ThreadedCleanupEv
R6:__ZN15dense_hashtableINSt3__24pairIKiiEEi21InstanceIDHashFunctorN14dense_hash_mapIiiS4_NS0_8equal_toIiEE13stl_allocatorIS3_L18MemLabelIdentifier130ELi16EEE9SelectKeyES7_SA_E9copy_fromERKSD_j
Nmb:__ZN12CubemapArray23VirtualRedirectTransferER14SafeBinaryRead
jFb:__Z18Transfer_BlittableI14SafeBinaryReadLb1E8Vector2fEvRK29SerializationCommandArgumentsR31RuntimeSerializationCommandInfo
Zzg:_CryptographicException__ctor_m1012314467
BQe:_ReadOnlyCollection_1_System_Collections_IList_Add_m616574295_gshared
kYe:_Int32_ProcessTrailingWhitespace_m2812079777
Vna:__ZN18ProceduralMaterial9ReloadAllEbb
fgc:__Z43RectTransform_CUSTOM_INTERNAL_set_sizeDeltaP12Il2CppObjectRK13Vector2fIcall
UBf:_WebProxy__ctor_m3679722173
qEh:_InternalEnumerator_1_Dispose_m2743309309_AdjustorThunk
uyj:__ZN15dense_hashtableINSt3__24pairIK10KeyWrapperINS1_IPKcS4_EEEiEES6_24NamespaceAndNamePairHashN14dense_hash_mapIS6_iS9_NS6_14EqualsComparerI26NamespaceAndNamePairEqualsEENS0_9allocatorIS8_EEE9SelectKeyESD_SF_E6insertERKS8_
Rda:__ZN24GenerateTypeTreeTransfer18BeginArrayTransferEPKcS1_Ri17TransferMetaFlags
dBa:__Z16DecompressCrunchPKhRjR13TextureFormatiiii18MemLabelIdentifier
fAe:_List_1__ctor_m2082969060_gshared
om:___syscall51
sm:___syscall54
pzj:__ZNSt3__26__treeINS_12__value_typeIP24Il2CppReflectionAssemblyPvEENS_19__map_value_compareIS3_S5_NS_4lessIS3_EELb1EEENS_9allocatorIS5_EEE12__find_equalIS3_EERPNS_16__tree_node_baseIS4_EESH_RKT_
MOh:__Z107RuntimeInvoker_Boolean_t3825574718_SByte_t454417549_Il2CppObject_Int32_t2071877448_ExceptionU26_t1467204777PK10MethodInfoPvPS2_
hUi:_UnityAction_2_Invoke_m1994351568_gshared
ngi:_UnityAnalyticsHandler_Dispose_m1048126775
_Lb:__Z18Transfer_BlittableI19StreamedBinaryWriteILb0EELb1EjEvRK29SerializationCommandArgumentsR31RuntimeSerializationCommandInfo
is:__ZNK8Animator20IsAnyRendererVisibleEv
b3i:__ZL25UnresolvedVirtualCall_108P12Il2CppObjectS0_28StreamingContext_t1417235061PK10MethodInfo
rUc:_cff_builder_add_point1
zzj:__ZN6il2cpp2vm5Image21GetCachedResourceDataEPK11Il2CppImageRKNSt3__212basic_stringIcNS5_11char_traitsIcEENS5_9allocatorIcEEEE
c0d:_HorizontalOrVerticalLayoutGroup_set_childControlWidth_m4209477792
Hce:_Array_InternalArray__ICollection_Add_TisUInt32_t2149682021_m2629016323_gshared
mFb:__Z18Transfer_BlittableI14SafeBinaryReadLb0E10ColorRGBAfEvRK29SerializationCommandArgumentsR31RuntimeSerializationCommandInfo
_Lf:__ZL65Il2CppArray_CustomAttributesCacheGenerator_Array_Sort_m3002148658P21CustomAttributesCache
Ba:invoke_iiiiiiiiii
TN:__ZNK7Texture10GetVRUsageEv
mna:__ZN18LoadSceneOperation19IntegrateTimeSlicedEi
o6g:_Scheduler_SchedulerThread_m2209572785
Xaf:_SortKeyBuffer_GetResultAndReset_m2516956577
o9a:__ZN10FileSystem19SetCurrentDirectoryERKN4core12basic_stringIcNS0_20StringStorageDefaultIcEEEE
_Yi:_ObjectPool_1_get_countAll_m4217365918_gshared
S3:__ZN16ScriptingManager24NotifyScriptCacheReleaseEi
S1f:__ZL85UriParser_t1012511323_CustomAttributesCacheGenerator_UriParser_OnRegister_m4010407891P21CustomAttributesCache
JPf:__ZL63UnmanagedMemoryStream_t822875729_CustomAttributesCacheGeneratorP21CustomAttributesCache
Tac:__Z47Register_UnityEngine_Coroutine_ReleaseCoroutinev
DI:__ZN15AudioReverbZone13SetFMODValuesEv
$li:_Component_GetComponentInChildren_m3925629424
c1:__ZL19StaticDestroyShaderPv
ie:_glRenderbufferStorageMultisample
atg:_SoapTypeAttribute_get_XmlTypeName_m2546866572
hA:__ZN23AnimationPlayableOutput17SetTargetAnimatorEP8Animator
mMe:_ReadOnlyCollection_1_System_Collections_IList_get_IsFixedSize_m158012227_gshared
YIi:_X509Chain__ctor_m1113875360
XHb:__Z35Transfer_Blittable_SingleValueFieldI14SafeBinaryReadfEvRT_R17GeneralMonoObjectRK23StaticTransferFieldInfo
kuf:_TlsServerHello_processProtocol_m1241336522
h0f:__ZL79ModulusRing_t80355992_CustomAttributesCacheGenerator_ModulusRing_Pow_m661630322P21CustomAttributesCache
ECh:_InternalEnumerator_1_System_Collections_IEnumerator_Reset_m324760031_AdjustorThunk
byi:_ContextAttribute_IsContextOK_m3281216012
y3e:_PathTooLongException__ctor_m3212099251
r1j:_pthread_cond_broadcast__wrapper
fxg:_ObjectManager_RaiseDeserializationEvent_m1611173032
Fr:__ZN17PackedFloatVector8TransferI18StreamedBinaryReadILb0EEEEvRT_
W4f:__ZL88Screen_t786852042_CustomAttributesCacheGenerator_Screen_t786852042____width_PropertyInfoP21CustomAttributesCache
tnb:__ZN7Cubemap23VirtualRedirectTransferER17RemapPPtrTransfer
MPa:_longest_match_fast
VYd:_DropdownItem_get_image_m2752143412
h2i:__ZL24UnresolvedVirtualCall_60P12Il2CppObjectaPK10MethodInfo
u5b:__ZN22BlockMemoryCacheWriter11GetPathNameEv
u_d:_Graphic_Rebuild_m2617722358
qSf:__ZL86SafeHandle_t2733794115_CustomAttributesCacheGenerator_SafeHandle_SetHandle_m1980208835P21CustomAttributesCache
WSi:_InvokableCall_1__ctor_m563785030_gshared
gGd:_DateTime_ToString_m3108726445_AdjustorThunk
yQ:__ZN19CloudServiceHandlerD2Ev
G5a:__ZN13dynamic_arrayIN23ReflectionProbesContext23ReflectionProbeCubeInfoELj4EE18resize_initializedEjRKS1_12ResizePolicy
Bje:_Array_InternalArray__get_Item_TisTableRange_t2011406615_m602485977_gshared
E3d:_InputField_Append_m2623574152
cF:__Z116Register_UnityEngine_Experimental_Director_AnimatorControllerPlayable_INTERNAL_CALL_GetNextAnimatorStateInfoInternalv
lkf:_ApplicationException__ctor_m1120437222
fMg:_MonoMethod__ctor_m4091684020
jp:stackAlloc
mbc:__Z44Camera_CUSTOM_INTERNAL_CALL_ScreenPointToRayP12Il2CppObjectRK8Vector3fR3Ray
UKa:__ZN25SingleBlockMemoryFileData4LockEPPv
OLa:__ZN12HandlerChain5TouchER13FileEntryData
vIg:_MethodBuilder_GetHashCode_m1713271764
Mui:_Marshal__cctor_m802981325
fCe:_Collection_1_IsSynchronized_m1319022347_gshared
faf:_MSCompatUnicodeTable_GetResource_m3816716847
ycc:__Z32RectOffset_Get_Custom_PropBottomP12Il2CppObject
JYh:__Z49RuntimeInvoker_UInt16_t986882611_Int64_t909078037PK10MethodInfoPvPS2_
Tmd:_Array_CreateInstance_m15016505
k7f:__ZL103DataUtility_t4181890362_CustomAttributesCacheGenerator_DataUtility_INTERNAL_CALL_GetPadding_m1621366113P21CustomAttributesCache
iHb:__ZNSt3__26vectorI17AnimationCurveTplIfE13stl_allocatorIS2_L18MemLabelIdentifier1ELi16EEE6assignINS_11__wrap_iterIPS2_EEEENS_9enable_ifIXaasr21__is_forward_iteratorIT_EE5valuesr16is_constructibleIS2_NS_15iterator_traitsISC_E9referenceEEE5valueEvE4typeESC_SC_
yPj:_stat
A9c:_RijndaelTransform_Decrypt128_m1282993908
Hde:_Array_InternalArray__ICollection_CopyTo_TisUInt16_t986882611_m3228377237_gshared
dqe:_List_1_Add_m4157722533_gshared
zng:__ZL68Navigation_t1571958496_CustomAttributesCacheGenerator_m_SelectOnDownP21CustomAttributesCache
lji:_Bounds_op_Inequality_m2315096783
mxc:__ZN15b2DistanceJoint23InitVelocityConstraintsERK12b2SolverData
Msa:__ZNSt3__218__insertion_sort_3IRNS_4lessIN22BuiltinResourceManager8ResourceEEEPS3_EEvT0_S7_T_
vmi:_Component_BroadcastMessage_m1308086896
U8c:_RC2_set_KeySize_m2015782960
ma:invoke_iiiiiiiiiiii
OHe:_Collection_1_SetItem_m3715941382_gshared
KVe:_NumberFormatInfo_get_CurrencyGroupSeparator_m2480433019
Ghf:_StrongName_get_PublicKey_m3777577320
t2f:__ZL120AssetBundleCreateRequest_t1038783543_CustomAttributesCacheGenerator_AssetBundleCreateRequest_get_assetBundle_m2931245245P21CustomAttributesCache
$ti:_RuntimeCompatibilityAttribute__ctor_m1331212510
tdc:__Z43Register_UnityEngine_GameObject_SendMessagev
I6:__ZNSt3__26__treeINS_12__value_typeIN4core12basic_stringIcNS2_20StringStorageDefaultIcEEEES6_EENS_19__map_value_compareIS6_S7_NS_4lessIS6_EELb1EEE13stl_allocatorIS7_L18MemLabelIdentifier12ELi16EEE7destroyEPNS_11__tree_nodeIS7_PvEE
O$i:__ZN6il2cpp2vm17SetupFieldsLockedEP11Il2CppClassRKNS_2os12FastAutoLockE
YL:__ZN11AudioSourceD0Ev
Jki:_CanvasRenderer_set_hasPopInstruction_m1388844875
Kre:_List_1_System_Collections_ICollection_CopyTo_m1530390632_gshared
tJe:_Collection_1_System_Collections_IEnumerable_GetEnumerator_m1452790461_gshared
cEh:_InternalEnumerator_1_System_Collections_IEnumerator_Reset_m3194282029_AdjustorThunk
Q9a:__ZN16MemoryFileSystem4NameEv
Xte:__ZN21InterfaceFuncInvoker0I18Color32_t874517518E6InvokeEjP11Il2CppClassP12Il2CppObject
hPd:_BaseRaycaster_OnEnable_m3641767070
_ze:_List_1_ToArray_m2810936944_gshared
oTe:_Func_2_BeginInvoke_m669892004_gshared
Wlf:_PrimeGeneratorBase_get_PrimalityTest_m308005118
lLf:__ZL71Enum_t2459695545_CustomAttributesCacheGenerator_Enum_Format_m2294492821P21CustomAttributesCache
IUg:_GUIStyle_Internal_CalcSize_m1309259680
Vkc:__ZNK8GUIStyle8CalcSizeER10GUIContent
qre:_List_1_CheckIndex_m2328469916_gshared
DAe:_List_1_AddRange_m3345533268_gshared
oLc:_UNITY_FT_New_Size
u8b:__Z42ScriptingGetComponentsOfTypeFromGameObjectRK26ScriptingGetComponentsArgs
aBe:_List_1_get_Item_m3157283227_gshared
M9d:__ZN21InterfaceFuncInvoker2Ii38CustomAttributeNamedArgument_t94157543S0_E6InvokeEjP11Il2CppClassP12Il2CppObjectS0_S0_
ETi:_InvokableCall_4_Invoke_m1555001411_gshared
GDd:_Convert_ToString_m2915777777
Dia:__ZNSt3__27__sort4IRPFbRKNS_4pairIN9ShaderLab16FastPropertyNameEN18UnityPropertySheet11UnityTexEnvEEES8_EPS6_EEjT0_SD_SD_SD_T_
GTc:_cf2_hintmap_build
T2h:__Z92RuntimeInvoker_AnimatorStateInfo_t2577870592_PlayableHandleU26_t3483893774_Int32_t2071877448PK10MethodInfoPvPS2_
uRc:_Line_Up
x8e:_MonoType_GetGenericTypeDefinition_m2363776160
pRf:__ZL62ParameterAttributes_t1266705348_CustomAttributesCacheGeneratorP21CustomAttributesCache
rsf:_Context_set_SentConnectionEnd_m2641458842
pe:_emscripten_glBufferSubData
cqd:_Buffer_BlockCopyInternal_m2627156229
VIb:__Z18Transfer_BlittableI17RemapPPtrTransferLb1EyEvRK29SerializationCommandArgumentsR31RuntimeSerializationCommandInfo
n_d:_Graphic_set_material_m329335629
SOd:_ExecuteEvents_get_pointerExitHandler_m3250605428
Jja:__ZN6prcoreL12RemapGenericI15TexFormatRGB88817TexFormatARGB8888EEvPKNS_9InnerInfoE
xD:__Z17CalculateGlobalRS23TransformAccessReadOnly
Dwg:__ZN21InterfaceFuncInvoker1IP12Il2CppObject28StreamingContext_t1417235061E6InvokeEjP11Il2CppClassS1_S2_
Gji:_Camera_ScreenPointToRay_m614889538
Gcf:_Kernel_multiByteDivide_m735279869
nkh:_Dictionary_2_ToTValue_m542772656_gshared
w6c:__ZN23UnityPurchasingSettings10InitializeER6Object
O5g:_Thread_GetNewManagedId_internal_m3211695465
VPa:_unity_z_deflateReset
FPg:_SkinChangedDelegate_Invoke_m2801964040
LAa:__ZN17GenericDynamicVBO17DrawChunkInternalERK21DynamicVBOChunkHandle17ShaderChannelMaskS3_P17VertexDeclarationP16DrawBuffersRangeij
q7c:__ZN13RuntimeStaticINSt3__26vectorIN5physx25PxVehicleWheelQueryResultENS0_9allocatorIS3_EEEELb0EE16StaticInitializeEPv
eRb:__ZN22MemoryCacherReadBlocks14LockCacheBlockEjPPhS1_
dpd:_Boolean_System_IConvertible_ToChar_m2637404801_AdjustorThunk
jfd:_SecurityContext_Capture_m2535194991
U9g:_UInt16_System_IConvertible_ToSByte_m3044765342_AdjustorThunk
kFg:_DerivedType_IsArrayImpl_m684825803
zJf:__ZL47Byte_t3683104436_CustomAttributesCacheGeneratorP21CustomAttributesCache
KAj:__ZN4utf88internal15increase_safelyIPKcEENS0_9utf_errorERT_S5_
mKc:__ZN20TextRenderingPrivate8FontImpl16CacheFontForTextEPtiifjPK13dynamic_arrayINS_16TextFormatChangeELj4EE
tge:_Array_qsort_TisUIVertex_t1204258818_TisUIVertex_t1204258818_m512606409_gshared
O8c:__Z21ArrayElementTypeCheckP11Il2CppArrayPv
x_j:_emscripten_glTexSubImage2D__wrapper
zzf:_NameValueCollection_AsSingleString_m10599052
rRj:__ZNSt3__212basic_stringIcNS_11char_traitsIcEENS_9allocatorIcEEE6appendEjc
y9e:_Object_InternalGetHashCode_m1371384246
Yrh:_Navigation_get_defaultNavigation_m2185194207
Kpg:__ZL73LayoutElement_t2808691390_CustomAttributesCacheGenerator_m_FlexibleHeightP21CustomAttributesCache
toi:_ArgumentCache_get_stringArgument_m3051619173
ZYe:_Int32_System_IConvertible_ToSByte_m1449623243_AdjustorThunk
Fjf:_AccessViolationException__ctor_m1270251537
i1c:__Z42Register_UnityEngine_Canvas_get_rootCanvasv
pJi:_X509ExtensionCollection_IndexOf_m3972100651
lGb:__Z14resize_trimmedINSt3__26vectorI8MonoPPtr13stl_allocatorIS2_L18MemLabelIdentifier1ELi16EEEEEvRT_j
$fb:__ZN39AssetBundleLoadFromStreamAsyncOperation11GetProgressEv
Ye:_TTF_RenderText_Solid
cEb:__ZN13MonoBehaviour25TransferEngineAndInstanceI24GenerateTypeTreeTransferEEvRT_
Oah:_UInt32_System_IConvertible_ToInt64_m3091851828
G6e:_MissingMethodException__ctor_m3898429715
Bug:_RemotingConfiguration_RegisterClientProviderTemplate_m514821425
Pdh:_Enumerator_System_Collections_IEnumerator_Reset_m3085583937_gshared
vci:__Z66RuntimeInvoker_ClientCertificateType_t4001384466_Int32_t2071877448PK10MethodInfoPvPS2_
Rgf:_RSAManaged_ExportParameters_m2873993187
x9d:_Array_InternalArray__IEnumerable_GetEnumerator_TisVector4_t2243707581_m829381058_gshared
cBe:_Enumerator__ctor_m2816143215_AdjustorThunk
Q6c:__ZN11UnityEngine7Connect16PersistentValuesC2Ev
MEf:_X509Chain_FindParent_m404663796
E6e:_MissingMemberException__ctor_m2164043278
uXi:__ZL7log2_32j
vFe:_Collection_1_CopyTo_m2282972507_gshared
hBb:__ZN13EmscriptenWWW10OnProgressEPvjj
xUd:_BaseVertexEffect__ctor_m358261091
rHf:_Interpreter_GetGroupInfo_m312421921
fJb:__Z19TransferField_ArrayI17RemapPPtrTransfer27Converter_UnityEngineObjectEvRK23StaticTransferFieldInfoR31RuntimeSerializationCommandInfoRT0_
cPh:__Z48RuntimeInvoker_Void_t1841601450_SByte_t454417549PK10MethodInfoPvPS2_
xVf:__ZL53HMACSHA384_t3026079344_CustomAttributesCacheGeneratorP21CustomAttributesCache
i4h:__Z120RuntimeInvoker_Void_t1841601450_Single_t2076509932_Single_t2076509932_Single_t2076509932_Single_t2076509932_Il2CppObjectPK10MethodInfoPvPS2_
Dlb:__ZN14RenderSettings8TransferI18StreamedBinaryReadILb0EEEEvRT_
T_e:_IntPtr_System_Runtime_Serialization_ISerializable_GetObjectData_m21554269_AdjustorThunk
Sgd:_Single_GetHashCode_m3102305584_AdjustorThunk
Vpa:__ZN29SerializeTraitsForStringTypesIN4core12basic_stringIcNS0_20StringStorageDefaultIcEEEEE8TransferI24GenerateTypeTreeTransferEEvRS4_RT_
rie:_Array_swap_TisVector3_t2243707580_m3036634038_gshared
uK:__ZN4FMOD6System9createDSPEP20FMOD_DSP_DESCRIPTIONPPNS_3DSPE
_z:__ZN7mecanim9animation26DestroyControllerWorkspaceEPNS0_19ControllerWorkspaceERNS_6memory9AllocatorE
CGi:_UriParser_set_SchemeName_m3624672465
CG:__ZN4FMOD8ChannelI11EndCallbackEv
Lcd:_ToBase64Transform_TransformBlock_m2201454137
Jkc:__ZN8GUIStyle14SetDefaultFontEPN13TextRendering4FontE
eJg:_OpCode_get_StackBehaviourPop_m3787015663_AdjustorThunk
gBi:_PatternCompiler_EmitCount_m3609178511
crb:__ZN15QualitySettings23VirtualRedirectTransferER24GenerateTypeTreeTransfer
iRi:_U3CCreateWhereIteratorU3Ec__Iterator1D_1_System_Collections_Generic_IEnumerableU3CTSourceU3E_GetEnumerator_m2682676065_gshared
DUg:_GUIStyle_Internal_GetCursorStringIndex_m1491806746
Djg:__ZL89PointerEventData_t1599784723_CustomAttributesCacheGenerator_U3CpositionU3Ek__BackingFieldP21CustomAttributesCache
Fgj:__ZN6il2cpp2os10FileHandleC2Ev
Dfc:__Z59Register_UnityEngine_MonoBehaviour_Internal_CancelInvokeAllv
aXf:__ZL84Encoding_t663144255_CustomAttributesCacheGenerator_Encoding_GetByteCount_m4104502544P21CustomAttributesCache
xQd:__ZN23InterfaceActionInvoker1IP25AxisEventData_t1524870173E6InvokeEjP11Il2CppClassP12Il2CppObjectS1_
utg:_ObjRef_set_TypeInfo_m1661789743
W6i:__ZN30dense_hashtable_const_iteratorINSt3__24pairIK10KeyWrapperIPK19Il2CppGenericMethodEPK26Il2CppGenericMethodIndicesEES6_N6il2cpp8metadata23Il2CppGenericMethodHashEN14dense_hash_mapIS6_SA_SE_NS6_14EqualsComparerINSD_26Il2CppGenericMethodCompareEEENS0_9allocatorISB_EEE9SelectKeyESI_SK_EppEv
kSg:_GUISkin_get_box_m533626169
syf:_HybridDictionary_Add_m1037587952
lXg:_Mathf_Cos_m238853451
SKc:_UNITY_FT_Request_Metrics
Eoa:__Z37GetBarycentricCoordinatesForOuterCellPPK8Vector3fRK13dynamic_arrayIS_Lj4EERS0_RK11TetrahedronR8Vector4fRf
Nuj:__ZN6il2cpp6icalls8mscorlib6System10Reflection10MonoMethod29get_IsGenericMethodDefinitionEP22Il2CppReflectionMethod
trj:__ZN6il2cpp2vm6Thread21AllocThreadStaticDataEi
XDi:__ZN23InterfaceActionInvoker4IiibP19LinkRef_t2090853131E6InvokeEjP11Il2CppClassP12Il2CppObjectiibS1_
DAd:_DateTime_YearMonthDayFormats_m4204607055
ZVd:_ColorBlock_set_disabledColor_m3502887543_AdjustorThunk
cEj:__ZN30dense_hashtable_const_iteratorINSt3__24pairIK10KeyWrapperIPK19Il2CppGenericMethodEP10MethodInfoEES6_N6il2cpp8metadata23Il2CppGenericMethodHashEN14dense_hash_mapIS6_S9_SD_NS6_14EqualsComparerINSC_26Il2CppGenericMethodCompareEEENS0_9allocatorISA_EEE9SelectKeyESH_SJ_EppEv
yO:__Z13RegisterClassI13AudioListenerEvv
USi:_InvokableCall_1_Find_m951110817_gshared
LQi:_Aes__ctor_m4020215067
zD:__ZN23AnimationOffsetPlayable11GetPositionEv
Epc:__Z18Transfer_BlittableI9JSONWriteLb0E8Vector3fEvRK29SerializationCommandArgumentsR31RuntimeSerializationCommandInfo
g7:__ZN13RuntimeStaticI17UniqueIDGeneratorLb0EE13StaticDestroyEPv
Xf:_emscripten_glUniform4i
EVf:__ZL46MD5_t1507972490_CustomAttributesCacheGeneratorP21CustomAttributesCache
s_d:_Graphic_OnDisable_m2360886868
dZi:_ObjectPool_1_Release_m1615270002_gshared
hf:_emscripten_glUniform4f
Aj:___unlock
eGj:_GC_default_oom_fn
svh:_ScrollRect_InternalCalculateOffset_m3083065267
IGh:_InternalEnumerator_1_System_Collections_IEnumerator_Reset_m1561424184_AdjustorThunk
yvd:_Comparer_Compare_m4132969818
EM:__ZN20SoundChannelInstance19setReverbPropertiesEP29FMOD_REVERB_CHANNELPROPERTIES
f4d:_U3CCaretBlinkU3Ec__Iterator0_System_Collections_Generic_IEnumeratorU3CobjectU3E_get_Current_m3541562536
LKh:_InternalEnumerator_1__ctor_m2808001655_AdjustorThunk
OHh:_InternalEnumerator_1_System_Collections_IEnumerator_Reset_m2571770313_AdjustorThunk
fKg:_FieldInfo_get_UMarshal_m1934544188
CVh:__Z68RuntimeInvoker_Void_t1841601450_IntPtr_t_MonoMethodInfoU26_t16045984PK10MethodInfoPvPS2_
cQh:__Z86RuntimeInvoker_Int32_t2071877448_Int32_t2071877448_Int32_t2071877448_Int32_t2071877448PK10MethodInfoPvPS2_
$C:__ZNK26AnimatorControllerPlayable14IsInTransitionEi
cmh:_DefaultComparer_Equals_m2171836276_gshared
ktj:__ZN6il2cpp2vm9Exception18GetFormatExceptionEPKc
ebi:__Z56RuntimeInvoker_Void_t1841601450_ResourceInfo_t3933049236PK10MethodInfoPvPS2_
ATf:__ZL55IMessageSink_t2189618969_CustomAttributesCacheGeneratorP21CustomAttributesCache
uic:__Z40Register_UnityEngine_Transform_IsChildOfv
jUg:_GUIStyle_Draw_m1435796321
qtd:_ArrayList_Sort_m923359189
Nyh:_Text_CalculateLayoutInputVertical_m1732119136
ncc:__Z45Register_UnityEngine_Display_GetSystemExtImplv
NIa:__ZN9GfxDevice31DrawIndexedNullGeometryIndirectE16GfxPrimitiveTypeP9GfxBuffer15ComputeBufferIDj
hDh:_InternalEnumerator_1_System_Collections_IEnumerator_get_Current_m3088751576_gshared
EWh:__Z78RuntimeInvoker_Void_t1841601450_Int64_t909078037_Il2CppObject_Int64_t909078037PK10MethodInfoPvPS2_
$ii:_Bounds_set_center_m2069004927_AdjustorThunk
Zif:_X509Certificate_GetSubjectName_m2120755276
Pmc:__Z46GUIStyle_CUSTOM_Internal_DrawWithTextSelectionP12Il2CppObjectR43MonoInternal_DrawWithTextSelectionArguments
rXi:__ZL17log2withScale_128yyi
P6f:__ZL58ResourceRequest_t2560315377_CustomAttributesCacheGeneratorP21CustomAttributesCache
sZc:__ZNSt3__218__insertion_sort_3IRNS_6__lessIN2UI14DepthSortEntryES3_EEPS3_EEvT0_S7_T_
ZLg:_MonoField_CheckGeneric_m1527550038
xZ:__ZN13RuntimeStaticI15DirectorManagerLb0EE16StaticInitializeEPv
Qsc:__ZN8JSONRead8TransferI23ManagedObjectTransfererEEvRT_PKc17TransferMetaFlagsb
P5g:_Thread_get_ManagedThreadId_m1995754972
BOd:_BaseInput_get_touchCount_m998724785
Jxb:__ZN11TimeManager6UpdateEv
ZIi:_X509Chain_get_Status_m2726750609
Y3d:_InputField_get_preferredWidth_m3185355225
UPg:_GUIUtility_get_pixelsPerPoint_m2667928361
vIe:_Collection_1_RemoveItem_m1406181352_gshared
G5g:_Thread_SetState_m3198426726
Ktd:_ArrayListWrapper_Contains_m1158465965
eie:_Array_swap_TisColor32_t874517518_m2203309732_gshared
Qlf:_BigInteger_op_LessThan_m3825358479
FPj:_fflush
toa:__ZN17LightProbeContext4InitERK16LightmapSettingsRK14RenderSettings
rpd:_Convert_ToInt32_m55151042
g$d:_GraphicRaycaster_Raycast_m1206612976
LNj:__GLOBAL__sub_I_Error_cpp
tDi:_Alternation_GetWidth_m4218808325
hRe:_ReadOnlyCollection_1_System_Collections_IList_Insert_m2651065875_gshared
HLf:__ZL80Il2CppArray_CustomAttributesCacheGenerator_Array_SetValue_m169741241____indices1P21CustomAttributesCache
gia:__ZN10ColorRGBAf8TransferI19StreamedBinaryWriteILb0EEEEvRT_
KNc:_ft_bitmap_glyph_bbox
Gzf:_TypeConverterAttribute__ctor_m4061167050
$zj:__ZN6il2cpp2vm11MethodStack17GetStackFramesRawEv
IOg:_Font_add_textureRebuilt_m1282639736
gkh:_Dictionary_2_ContainsValue_m2760581195_gshared
PHj:_GC_reclaim_uninit
p1a:__Z34ProcessIndexListIsNodeVisibleStep2RK22SceneCullingParametersPK9SceneNodePK4AABBR9IndexList
bCb:__ZN10MonoScriptD2Ev
Xja:__ZN6prcoreL12RemapGenericI17TexFormatARGB888817TexFormatBGRA8888EEvPKNS_9InnerInfoE
zxh:_Slider_OnRectTransformDimensionsChange_m4109401172
QBf:_WebHeaderCollection_Get_m3391944907
dZ:__GLOBAL__sub_I_half_cpp
Rdc:__Z39Input_CUSTOM_INTERNAL_get_mousePositionP8Vector3f
vQc:_tt_cmap13_char_next
Yug:_ServerIdentity__ctor_m1576469955
yOa:__ZN9ShaderLab4Pass16SetupPassOptionsEv
Wqi:_AnimatorControllerPlayable_INTERNAL_CALL_SetTriggerID_m508896534
EXi:_UnityEvent_4__ctor_m3102731553_gshared
Idi:__Z78RuntimeInvoker_Int32_t2071877448_UICharInfo_t3056636800_UICharInfo_t3056636800PK10MethodInfoPvPS2_
kh:_JS_Sound_ReleaseInstance
Egg:__ZL72IL2CPPStructAlignmentAttribute_t130316838_CustomAttributesCacheGeneratorP21CustomAttributesCache
Pua:__ZN13GfxDeviceGLES19DrawBuffersIndirectEP9GfxBufferPK18VertexStreamSourceiP17VertexDeclaration17ShaderChannelMask16GfxPrimitiveType15ComputeBufferIDj
Zwe:_List_1_Shift_m439051997_gshared
E1g:_Renderer_get_sortingLayerID_m2403577271
Kui:_InAttribute__ctor_m1401060713
iZj:_emscripten_glPixelStorei__wrapper
BHd:_Decimal_System_IConvertible_ToDecimal_m1541432424_AdjustorThunk
sQb:__Z29Transfer_Blittable_ArrayFieldI18StreamedBinaryReadILb0EEaEvRT_R9ArrayInfoRK23StaticTransferFieldInfo
tgc:__Z21Resources_CUSTOM_LoadP12Il2CppStringP12Il2CppObject
Gm:FUNCTION_TABLE_diddi
Mkd:_EncoderExceptionFallbackBuffer__ctor_m3538569575
ygc:__Z26Material_CUSTOM_SetIntImplP12Il2CppObjectii
UXe:_Int16_System_IConvertible_ToSingle_m3277935657_AdjustorThunk
Hdj:__ZNSt3__26vectorIPK10MethodInfoNS_9allocatorIS3_EEE21__push_back_slow_pathIRKS3_EEvOT_
rii:_AttributeHelperEngine_CheckIsEditorScript_m2980171478
v2b:__ZN8GUILayerD2Ev
Dyi:_InternalRemotingServices__cctor_m3821625125
Lcc:__Z42Register_UnityEngine_RectOffset_get_bottomv
H2g:_StringBuilder_Insert_m3322917127
llh:_DefaultComparer_Equals_m724229128_gshared
twe:_List_1__cctor_m1337542316_gshared
Eeh:_Enumerator_VerifyCurrent_m1702320752_AdjustorThunk
pAh:_ArrayReadOnlyList_1_Clear_m2539474626_gshared
Qtg:__ZN21InterfaceFuncInvoker0IP24ObjectU5BU5D_t3614634134E6InvokeEjP11Il2CppClassP12Il2CppObject
ZTi:_UnityAction_1_EndInvoke_m2603848420_gshared
gCd:_Convert_ToDouble_m3520060872
BYj:_emscripten_glUniform1f__wrapper
rTj:dynCall_di
Jvf:_SslCipherSuite_ComputeServerRecordMAC_m1876572367
YLc:__ZN20TextRenderingPrivate19NativeTextGeneratorC2ERK11UTF16StringPNS_8FontImplE11ColorRGBA32ifRK8Vector2fbifiibffbbbP13dynamic_arrayIN2UI8UIVertexELj4EE
opc:__Z28RegisterModule_JSONSerializev
fF:__Z111Register_UnityEngine_Experimental_Director_AnimatorControllerPlayable_INTERNAL_CALL_GetAnimatorClipInfoInternalv
_4g:_Interlocked_CompareExchange_m3227034792
oBg:_HashAlgorithm_get_Hash_m931854461
mgj:_il2cpp_monitor_enter
RLh:_DefaultComparer_Compare_m3564013922_gshared
hXb:__ZN2UI13RectTransform8TransferI14SafeBinaryReadEEvRT_
Y6b:__Z20IsHumanControllingUsv
sRa:__ZNK19RenderEventsContext21ExecuteCommandBuffersEijR17ShaderPassContextR15RenderNodeQueueP19ProfilerInformationi
ZGe:_Collection_1_RemoveAt_m3454169520_gshared
_U:__ZNK20DynamicHeapAllocatorI17LowLevelAllocatorE10GetPtrSizeEPKv
zsi:_AnimatorControllerPlayable_PlayInFixedTime_m172593751
ueb:__ZN10systeminfo21GetPersistentDataPathEv
mYd:_Dropdown_set_value_m2945561009
Gua:__ZN13GfxDeviceGLES17DestroyGpuProgramEPK10GpuProgram
CVe:_GregorianCalendar_GetMonth_m523739832
TEb:__Z44InitializeTransferFunctionScriptingTraitsForI18StreamedBinaryReadILb0EEEvR31TransferFunctionScriptingTraits
qZa:__ZNSt3__218__insertion_sort_3IR23CompareReflectionProbesP31RuntimeReflectionProbeBlendInfoEEvT0_S5_T_
pJb:__ZN12NativeBufferI27Converter_SimpleNativeClassI8GradientEE15SetupForWritingER9ArrayInfo
OMe:_ReadOnlyCollection_1_System_Collections_ICollection_get_IsSynchronized_m2987885125_gshared
XOg:_GameObject_AddComponent_m3757565614
baa:__ZN12_GLOBAL__N_113StaticDestroyEPv
I9h:__Z54RuntimeInvoker_Boolean_t3825574718_Vector4_t2243707581PK10MethodInfoPvPS2_
rXe:_Guid_ToString_m51661589
qjc:__ZNK8GUIStyle4DrawER8GUIStateRK5RectTIfER10GUIContentbbbb
eyh:_Text_set_font_m1095513810
l1j:_glUnmapBuffer__wrapper
pFd:_DateTime_System_IConvertible_ToUInt32_m1363211018_AdjustorThunk
p1d:_InputField_get_cachedInputTextGenerator_m881618486
kki:_Canvas_get_rootCanvas_m1790974328
Pec:__Z32Mesh_CUSTOM_ExtractArrayFromListP12Il2CppObject
$Cg:_Binder_get_DefaultBinder_m965620943
ttc:__ZN8JSONRead21TransferSTLStyleArrayINSt3__26vectorI8Gradient13stl_allocatorIS3_L18MemLabelIdentifier1ELi16EEEEEEvRT_17TransferMetaFlags
Xsf:_SecurityParameters_Clear_m3409219757
fyb:__ZNSt3__218__insertion_sort_3IRNS_6__lessINS_4pairIPKN5Unity4TypeE7Hash128EES8_EEPS8_EEvT0_SC_T_
OBi:_PatternCompiler_EmitAlternationEnd_m889639343
HKb:__ZN10RectOffset8TransferI24GenerateTypeTreeTransferEEvRT_
Tnd:_SimpleEnumerator_get_Current_m482975946
M7b:__Z18GetResourceManagerv
jQj:_srand
Jkj:__ZNK15dense_hashtableINSt3__24pairIK10KeyWrapperINS1_IPK10MethodInfoP11Il2CppClassEEEjEES9_17ReflectionMapHashIS8_EN14dense_hash_mapIS9_jSD_NS9_14EqualsComparerINS0_8equal_toIS8_EEEENS0_9allocatorISB_EEE9SelectKeyESI_SK_E10test_emptyERK30dense_hashtable_const_iteratorISB_S9_SD_SM_SI_SK_E
E7e:_MonoTypeInfo__ctor_m1398838196
eZc:__ZN2UI13CanvasManager19RemoveDirtyRendererEPNS_6CanvasEPNS_14CanvasRendererE
L$g:_Rect_get_position_m24550734
gzh:_Toggle_Rebuild_m929023818
UN:__ZN7Texture34UpdateFileTextureUploadInstructionEP28FileTextureUploadInstructionj
Taa:__Z15GetIApplicationv
xii:_AudioClip_InvokePCMSetPositionCallback_Internal_m2304858844
_3c:__ZN11UnityEngine15PlatformWrapper25GetGraphicsRendererStringEv
mRh:__Z51RuntimeInvoker_UInt16_t986882611_Decimal_t724701077PK10MethodInfoPvPS2_
k3d:_InputField_KeyPressed_m3066588581
DMi:_Time_get_unscaledTime_m862335845
t8i:__ZNK15dense_hashtableINSt3__24pairIK10KeyWrapperI13dynamic_arrayIPK10Il2CppTypeLj4EEEPFvvEEES8_N6il2cpp8metadata19Il2CppSignatureHashEN14dense_hash_mapIS8_SB_SF_NS8_14EqualsComparerINSE_22Il2CppSignatureCompareEEENS0_9allocatorISC_EEE9SelectKeyESJ_SL_E13find_positionERS9_
Ewh:_Selectable_DoStateTransition_m539253088
Ubd:_SHA512_Create_m439875055
Vb:invoke_vi
Mbd:_SHA384Managed_update_m2629600295
JCc:__ZNSt3__26vectorINS0_IN10ClipperLib8IntPointENS_9allocatorIS2_EEEENS3_IS5_EEE7reserveEj
IJa:__ZN15dense_hashtableINSt3__24pairIKN4core12basic_stringIcNS2_20StringStorageDefaultIcEEEEP20ArchiveStorageReaderEES6_20StringHash32FunctionIS6_EN14dense_hash_mapIS6_S9_SC_NS0_8equal_toIS6_EE13stl_allocatorISA_L18MemLabelIdentifier54ELi16EEE9SelectKeyESF_SI_ED2Ev
Tb:invoke_vd
tb:invoke_vf
KUg:_GUIStyle_Internal_CalcSizeWithConstraints_m3375255978
FJh:_InternalEnumerator_1__ctor_m32322958_AdjustorThunk
q5:__ZNK10GameObject8IsActiveEv
mW:__ZN18ScreenManagerWebGL21SetCursorInsideWindowEb
bzg:_SByte_System_IConvertible_ToUInt32_m4256495110
cRd:_PointerEventData_set_eligibleForClick_m2036057844
DDa:__ZN18GfxFramebufferGLES23SetupDefaultFramebufferEPP17RenderSurfaceBaseS2_N2gl6HandleILNS3_10ObjectTypeE9EEE
NPj:_mbsinit
TTg:_GUIStyle_get_Internal_clipOffset_m4237737448
Pig:__ZL70EventSystem_t3466835263_CustomAttributesCacheGenerator_m_FirstSelectedP21CustomAttributesCache
uW:__ZN13ScreenManager18RequestOrientationE17ScreenOrientation
l0i:__ZN6il2cpp2vm5Class12SetupMethodsEP11Il2CppClass
sS:__ZN11UnityEngine15CloudWebService13WWWRestClient18GetResponseHeadersEv
cac:__Z39DeleteLastPathNameComponentWithAnySlashRKN4core12basic_stringIcNS_20StringStorageDefaultIcEEEE
vU:__ZN13EmscriptenWWW14BlockUntilDoneEv
Mmg:__ZL68InputField_t1631627530_CustomAttributesCacheGenerator_m_KeyboardTypeP21CustomAttributesCache
Kzh:_VerticalLayoutGroup_CalculateLayoutInputHorizontal_m497637066
AUd:_Button_get_onClick_m1595880935
yYi:_ListPool_1_Release_m3716853512_gshared
Mva:__ZN13GfxDeviceGLES17UploadTextureCubeE9TextureIDPKhiii13TextureFormati18TextureUploadFlags17TextureColorSpace
t1g:_RectTransformUtility_PixelAdjustPoint_m560908615
czi:_MethodCall__ctor_m4106494862
vCg:_Module_IsResource_m663979284
dnc:__Z37Register_UnityEngine_GUIStyle_Cleanupv
Oa:invoke_iiifii
y2b:__ZN8GUILayer12AddToManagerEv
r5f:__ZL109TouchScreenKeyboard_t601950206_CustomAttributesCacheGenerator_TouchScreenKeyboard_Open_m3410222954____secure4P21CustomAttributesCache
_dj:__ZN6il2cpp6icalls8mscorlib6System8MonoType13IsPointerImplEP20Il2CppReflectionType
SBd:_Convert_ToDecimal_m2284596541
Qsb:__ZN14Texture2DArray34UpdateFileTextureUploadInstructionEP28FileTextureUploadInstructionj
Ti:_emscripten_glFramebufferRenderbuffer
z0f:__ZL64CipherSuiteCollection_t2431504453_CustomAttributesCacheGeneratorP21CustomAttributesCache
Wvi:__ZN21InterfaceFuncInvoker3IP12Il2CppObjectP8String_tS1_PS3_E6InvokeEjP11Il2CppClassS1_S3_S1_S4_
_tf:_TlsServerCertificateRequest_ProcessAsSsl3_m3017921864
l_e:_Int64_GetHashCode_m4047499913
d4a:__ZN9Transform30EnsureTransformHierarchyExistsEv
iP:__ZN11AudioModule26SetDefaultMicrophoneDriverEPv
e3f:__ZL102Camera_t189460977_CustomAttributesCacheGenerator_Camera_INTERNAL_CALL_ScreenToViewportPoint_m529506484P21CustomAttributesCache
pod:_Attribute_IsDefined_m216577166
tsd:_Char_ToUpper_m109978609
kFh:_InternalEnumerator_1_get_Current_m1089848479_gshared
fKd:_Double_System_IConvertible_ToInt64_m3798425616
NSd:_StandaloneInputModule_get_repeatDelay_m3025279
Ig:___cxa_find_matching_catch_4
tfc:__ZN13MonoBehaviour13StopCoroutineEPKc
h7a:__ZNSt3__26vectorINS_4pairIN4core12basic_stringIcNS2_20StringStorageDefaultIcEEEEPK17MessageIdentifierEENS_9allocatorISA_EEE12__move_rangeEPSA_SE_SE_
nVa:__ZN14qsort_internal17MedianOfThreeSwapIP17RODataReplacement19ROSorterReplacementEEvT_S4_S4_T0_
MDe:_Collection_1_System_Collections_IList_Insert_m3303840316_gshared
c$i:__ZNK15dense_hashtableINSt3__24pairIK10KeyWrapperIPK22Il2CppGenericParameterEP11Il2CppClassEES6_N6il2cpp5utils11PointerHashIS4_EEN14dense_hash_mapIS6_S9_SE_NS6_14EqualsComparerINS0_8equal_toIS5_EEEENS0_9allocatorISA_EEE9SelectKeyESJ_SL_E3endEv
_9b:__ZN17TransformInternal36OnScaleChangedCalculateTransformTypeE15TransformAccess
HJa:__ZN15dense_hashtableINSt3__24pairIKN4core12basic_stringIcNS2_20StringStorageDefaultIcEEEEP20ArchiveStorageReaderEES6_20StringHash32FunctionIS6_EN14dense_hash_mapIS6_S9_SC_NS0_8equal_toIS6_EE13stl_allocatorISA_L18MemLabelIdentifier54ELi16EEE9SelectKeyESF_SI_E4swapERSL_
Oud:_SynchronizedArrayListWrapper_InsertRange_m709359548
eMa:__ZN17ArchiveFileSystem10ToAbsoluteEPKc
Klf:_BigInteger_op_Modulus_m13450242
ukb:__ZN4PPtrI8MaterialE8TransferI18StreamedBinaryReadILb0EEEEvRT_
Fai:__Z56RuntimeInvoker_Int32_t2071877448_RaycastResult_t21186376PK10MethodInfoPvPS2_
ICd:_Convert_ToInt32_m2988544165
Mge:_Array_Resize_TisColor32_t874517518_m2219502085_gshared
yw:__ZN7mecanim6CRCKeyENS_7eStringE
Bxf:_SslStreamBase_get_CanWrite_m2069502593
WXb:__ZL12SetPrefValueRKN4core12basic_stringIcNS_20StringStorageDefaultIcEEEERK9PrefValue
Q6h:__Z31RuntimeInvoker_Mode_t1081683921PK10MethodInfoPvPS2_
iSb:__ZL30ReconstructParamNamesFromTableIN9ShaderLab20SerializedSubProgram15MatrixParameterEEvRK14dense_hash_mapIiN4core17string_with_labelILi1EEE18SInt32HashFunctionNSt3__28equal_toIiEE13stl_allocatorINS8_4pairIKiS6_EEL18MemLabelIdentifier1ELi16EEERNS8_6vectorIT_NS8_9allocatorISL_EEEE
c0:__ZN19ShaderPropertySheet20ReservePropertyCountEj
qAj:__ZN6il2cpp5utils11StringUtils6PrintfEPKcz
fIc:__ZN16NovodexAllocatorD0Ev
Qia:__ZN15NameToObjectMapI6ShaderNSt3__23mapI4PPtrIS0_EN4core12basic_stringIcNS5_20StringStorageDefaultIcEEEENS1_4lessIS4_EENS1_9allocatorINS1_4pairIKS4_S9_EEEEEENS1_8multimapIS9_S4_NSA_IS9_EENSC_INSD_IKS9_S4_EEEEEEE4FindERSK_
Meh:_ShimEnumerator_Reset_m98005789_gshared
Upa:__ZN24GenerateTypeTreeTransfer21TransferResourceImageE19ActiveResourceImagePKcR13StreamingInfoPvjiPKN5Unity4TypeE
wZg:_Object_INTERNAL_CALL_Internal_InstantiateSingle_m3932420250
Nnf:_PKCS1_Compare_m552424558
WPb:__Z18Transfer_BlittableI18StreamedBinaryReadILb0EELb0EyEvRK29SerializationCommandArgumentsR31RuntimeSerializationCommandInfo
dPe:_ReadOnlyCollection_1_System_Collections_IList_set_Item_m1377990618_gshared
CPa:_UNITY_png_zstream_error
VHg:_ILGenerator_make_room_m373147874
Nkh:_Dictionary_2_Init_m1045257495_gshared
I0j:_emscripten_glLinkProgram__wrapper
Lqf:_TlsClientSettings_set_TargetHost_m3421266913
qgf:_PKCS1_Verify_v15_m2571212635
klb:__ZNSt3__212__deque_baseI18ReflectionProbeJobNS_9allocatorIS1_EEED2Ev
Mv:__ZN11UnityEngine9Animation27DestroyAnimationSetBindingsEPNS0_20AnimationSetBindingsERN7mecanim6memory9AllocatorE
oSb:__ZN15dense_hashtableINSt3__24pairIKiN4core17string_with_labelILi1EEEEEi18SInt32HashFunctionN14dense_hash_mapIiS5_S7_NS0_8equal_toIiEE13stl_allocatorIS6_L18MemLabelIdentifier1ELi16EEE9SelectKeyESA_SD_E13set_empty_keyERKS6_
VB:__ZN8Animator12CleanupClassEv
Ckd:_DecoderReplacementFallbackBuffer__ctor_m1305504326
rtc:__Z13TransferFieldI8JSONReadLb0E27Converter_SimpleNativeClassI10RectOffsetEEvRK23StaticTransferFieldInfoR31RuntimeSerializationCommandInfoRT1_
cid:_String_IndexOf_m570401060
_0d:_Image_CalculateLayoutInputVertical_m1340533162
RKd:_Enum_System_IConvertible_ToDateTime_m2924690746
$cb:__ZN11AssetBundle9AssetInfo8TransferI14SafeBinaryReadEEvRT_
OYd:_Dropdown_CreateBlocker_m4109366440
jBg:_HashAlgorithm_System_IDisposable_Dispose_m2106335965
Yvj:__GLOBAL__sub_I_GenericMetadata_cpp
M8e:_NotImplementedException__ctor_m1305569814
kai:__Z59RuntimeInvoker_Int32_t2071877448_KeyValuePair_2_t1174980068PK10MethodInfoPvPS2_
__g:_RangeAttribute__ctor_m1657271662
Zdg:__ZL67GUISettings_t622856320_CustomAttributesCacheGenerator_m_CursorColorP21CustomAttributesCache
pjc:__ZNK8GUIStyle4DrawER8GUIStateRK5RectTIfER10GUIContentib
mdj:__ZN6il2cpp6icalls8mscorlib6System8MonoType18GetFields_internalEP20Il2CppReflectionTypeiS5_
S0a:__Z24CalculateSpotLightBoundsffRK10Matrix4x4fR15SpotLightBounds
haf:_TailoringInfo__ctor_m2248501932
bda:__ZNK13RenderTexture21GetShadowSamplingModeEv
tQ:__ZN23CloudWebServicesManager23VirtualRedirectTransferER14SafeBinaryRead
kud:_FixedSizeArrayListWrapper_InsertRange_m2690348965
ADb:__Z19ShouldTransferFieldR32SerializationCommandQueueBuilder17ScriptingClassPtriR18TransferField_InfoRK20CoreScriptingClasses
sJg:_FieldInfo_get_IsStatic_m1411173225
O2e:_MemoryStream_Read_m2289595005
zL:__ZN5audio5mixer22UpdateAudioMixerMemoryERKNS0_18AudioMixerConstantERNS0_16AudioMixerMemoryEfPN4FMOD6SystemEf
JIc:__ZL21InitializeCachedStripPv
Pad:_SignatureDescription_set_DigestAlgorithm_m3219799565
Zfi:_CustomEventData_Add_m4139356558
_rj:__ZN6il2cpp6icalls8mscorlib6System9Threading6Thread23GetCachedCurrentCultureEP12Il2CppThread
uig:__ZL94PlayerEditorConnectionEvents_t2252784345_CustomAttributesCacheGenerator_messageTypeSubscribersP21CustomAttributesCache
Zvh:_Selectable_get_allSelectables_m3045831006
oVa:__ZNK6Camera22GetWorldToCameraMatrixEv
$nd:_ArrayTypeMismatchException__ctor_m2892687300
Xzj:__ZN6il2cpp2vm12GenericClass11IsValueTypeEP18Il2CppGenericClass
Jie:_Dictionary_2_Do_CopyTo_TisKeyValuePair_2_t3716250094_TisIl2CppObject_m715850636_gshared
PCb:__ZN13MonoBehaviour7SetNameEPKc
Eof:_ContentInfo__ctor_m3579805263
yzc:__ZN25b2PolygonAndCircleContact7DestroyEP9b2ContactP16b2BlockAllocator
fvh:_ScrollRect_get_verticalNormalizedPosition_m1701804869
Bna:__ZN18AwakeFromLoadQueue5ClearEv
xgh:_Enumerator_get_Current_m2986380627_AdjustorThunk
D$a:__ZNSt3__27__sort5IR15ReflProbeSorterPP15ReflectionProbeEEjT0_S6_S6_S6_S6_T_
TZ:__ZN8Playable10DisconnectEPS_i
vk:_glGenTransformFeedbacks
Pra:__ZN13LoadOperationD2Ev
Yef:_KeyPairPersistence__ctor_m1817312194
C6d:_Array_InternalArray__ICollection_Contains_TisMark_t2724874473_m1640201705_gshared
jvi:_ActivatedClientTypeEntry_get_ContextAttributes_m53051138
Pla:__Z21PlayerStartFirstSceneb
KFg:_TypeBuilder_get_AssemblyQualifiedName_m2097258567
Eia:__ZNSt3__27__sort5IRPFbRKNS_4pairIN9ShaderLab16FastPropertyNameEN18UnityPropertySheet11UnityTexEnvEEES8_EPS6_EEjT0_SD_SD_SD_SD_T_
hza:__ZNK7ApiGLES18GetExtensionStringEv
WFa:__ZN31TransformFeedbackSkinPoseBufferD0Ev
CYj:_emscripten_glVertexAttrib1f__wrapper
nLa:__ZNK12HandlerChain4SizeERK13FileEntryData
Glh:_DefaultComparer_Equals_m1281232537_gshared
hp:FUNCTION_TABLE_iiiiiiiii
x2d:_InputField_set_asteriskChar_m619206227
nAg:_DES_IsSemiWeakKey_m3967392585
W5:__Z24GetComponentOrScriptNameRN5Unity9ComponentE
NCc:__Z22GetPhysicsGroundBody2Dv
YSe:_Comparison_1__ctor_m2159122699_gshared
_Xe:_Int16_System_IConvertible_ToUInt32_m883204517_AdjustorThunk
Qag:__ZL137AnimatorControllerPlayable_t4078305555_CustomAttributesCacheGenerator_AnimatorControllerPlayable_CrossFade_m2119841183____normalizedTime3P21CustomAttributesCache
VMg:_MonoProperty_get_PropertyType_m1921201152
kXd:_FloatTween_TweenValue_m3881535116_AdjustorThunk
DGj:_GC_allochblk
h3c:__ZN22BaseUnityConnectClient19SendAppRunningEventEv
Ena:__Z15UnloadGameScenev
g1j:_glCheckFramebufferStatus__wrapper
Yhg:__ZL59WriteOnlyAttribute_t14323075_CustomAttributesCacheGeneratorP21CustomAttributesCache
OB:__ZN16MecanimAnimationD0Ev
Pkf:_BigInteger_get_Rng_m2525288368
Rvg:_BinaryCommon_IsPrimitive_m2132448955
Ax:__ZN7mecanim9animation14DeltasFromClipERKNS0_18ClipMuscleConstantERKNS0_12ClipBindingsERKNS_14ValueArrayMaskERNS_10ValueArrayESB_SB_
jGf:_X509ExtensionEnumerator_Reset_m3200687545
zvd:_CaseInsensitiveHashCodeProvider__ctor_m3775398833
gMh:_Comparer_1_System_Collections_IComparer_Compare_m674728644_gshared
x5f:__ZL80Input_t1785128008_CustomAttributesCacheGenerator_Input_GetButtonDown_m2792523731P21CustomAttributesCache
Bdc:__Z36Renderer_Get_Custom_PropSortingOrderP12Il2CppObject
Mjj:__ZNK15dense_hashtableINSt3__24pairIK10KeyWrapperIPK10Il2CppTypeEjEES6_N6il2cpp8metadata14Il2CppTypeHashEN14dense_hash_mapIS6_jSB_NS6_14EqualsComparerINSA_26Il2CppTypeEqualityComparerEEENS0_9allocatorIS8_EEE9SelectKeyESF_SH_E13find_positionERS7_
Sca:__ZN7Texture5ResetEv
Lvc:__ZNK14b2CapsuleShape7RayCastEP15b2RayCastOutputRK14b2RayCastInputRK11b2Transformi
Gcg:__ZL82Canvas_t209405766_CustomAttributesCacheGenerator_Canvas_get_renderMode_m1816014618P21CustomAttributesCache
zJb:__Z18Transfer_BlittableI24GenerateTypeTreeTransferLb1EhEvRK29SerializationCommandArgumentsR31RuntimeSerializationCommandInfo
Pub:__ZN10VertexData10DeallocateEv
VGc:__ZN10Collider2D16TransformChangedEi
ohj:__ZNSt3__214__split_bufferIiRNS_9allocatorIiEEEC2EjjS3_
s9b:__ZNK16TypeTreeIterator10ByteOffsetEv
sae:_Array_FindLastIndex_TisIl2CppObject_m3885928623_gshared
ZZd:_Graphic_get_rectTransform_m2697395074
b8:__ZnwjRKSt9nothrow_t
es:__ZN8Animator11ClearObjectEv
fAb:__ZNSt3__26vectorIi13stl_allocatorIiL18MemLabelIdentifier12ELi16EEE8__appendEj
mDf:_X500DistinguishedName_Decode_m3070515374
Vga:__ZN14SafeBinaryRead19TransferSTLStyleMapINSt3__23mapI39DeprecatedFastPropertyNameSerializationN18UnityPropertySheet11UnityTexEnvENS1_4lessIS3_EENS1_9allocatorINS1_4pairIKS3_S5_EEEEEEEEvRT_17TransferMetaFlags
Ifc:__Z45Register_UnityEngine_MonoBehaviour_IsInvokingv
ZWh:__Z65RuntimeInvoker_Void_t1841601450_Int64_t909078037_Int64_t909078037PK10MethodInfoPvPS2_
XAf:_IPv6Address_set_ScopeId_m1442934355
zCc:__ZNSt3__27__sort4IRPFbPN10ClipperLib13IntersectNodeES3_EPS3_EEjT0_S8_S8_S8_T_
GNf:__ZL72PKCS12_t1362584794_CustomAttributesCacheGenerator_U3CU3Ef__switchU24mapBP21CustomAttributesCache
gxg:_ObjectManager_RaiseOnDeserializedEvent_m512850179
Ocg:__ZL83Canvas_t209405766_CustomAttributesCacheGenerator_Canvas_get_renderOrder_m2874842494P21CustomAttributesCache
vig:__ZL87PlayerEditorConnectionEvents_t2252784345_CustomAttributesCacheGenerator_connectionEventP21CustomAttributesCache
h3f:__ZL86Camera_t189460977_CustomAttributesCacheGenerator_Camera_get_allCamerasCount_m989474043P21CustomAttributesCache
g8b:__Z35UnregisterSerializationCacheBuilderPFv17ScriptingClassPtrR23CachedSerializationDataRbE
vfa:__Z30GetBuiltinVectorParamArraySize24BuiltinShaderVectorParam
B7h:__Z31RuntimeInvoker_Axis_t1431825778PK10MethodInfoPvPS2_
Tij:__ZNSt3__218uninitialized_copyIPNS_4pairIK10KeyWrapperINS1_IPK14Il2CppAssemblyP11Il2CppClassEEEjEESC_EET0_T_SE_SD_
V9e:_CodePointIndexer__ctor_m797342079
OWi:_PlayerTwoAnimation__ctor_m3346514972
Nmg:__ZL64InputField_t1631627530_CustomAttributesCacheGenerator_m_LineTypeP21CustomAttributesCache
CVf:__ZL61KeyedHashAlgorithm_t1374150027_CustomAttributesCacheGeneratorP21CustomAttributesCache
rSi:_Predicate_1__ctor_m3243601712_gshared
pkg:__ZL103PointerEventData_t1599784723_CustomAttributesCacheGenerator_PointerEventData_set_clickCount_m2095939005P21CustomAttributesCache
Gqb:__ZN21RendererUpdateManager11AddRendererER8Renderer
vZb:__Z13RegisterClassI15ResourceManagerEvv
yxg:_SerializationEntry_t3485203212_marshal_pinvoke_back
Utb:__ZN14SafeBinaryRead21TransferSTLStyleArrayI13dynamic_arrayIfLj4EEEEvRT_17TransferMetaFlags
_Xf:__ZL79Thread_t241561612_CustomAttributesCacheGenerator_Thread_GetHashCode_m2038641494P21CustomAttributesCache
rAj:__ZN6il2cpp5utils11StringUtils11Utf16ToUtf8EPKDs
wLg:_MonoEventInfo_GetEventInfo_m2331957186
p4c:__ZN11UnityEngine15PlatformWrapper20IsRootedOrJailbrokenEv
ODf:_X509Certificate2_GetNameInfo_m402390219
N0a:__Z33IntersectAABBPlaneBoundsOptimizedRK4AABBPKN4math7_float4Ei
Ynd:_Swapper_BeginInvoke_m2652511022
y0g:_RectOffset_t3387826427_marshal_pinvoke_back
f4g:_UTF8Encoding_GetBytes_m2973831055
Tua:__ZN9GfxDevice19EndGeometryJobFrameEv
wYh:__Z49RuntimeInvoker_SByte_t454417549_Int32_t2071877448PK10MethodInfoPvPS2_
FSe:_Comparison_1_Invoke_m2645957248_gshared
uJb:__ZN27Converter_SimpleNativeClassI17AnimationCurveTplIfEE17ScriptingToNativeER18ScriptingObjectPtrPS1_
mZh:__Z197RuntimeInvoker_Boolean_t3825574718_Il2CppObject_Il2CppObject_Il2CppObject_Int32_t2071877448_DateTimeU26_t3448131235_SByte_t454417549_BooleanU26_t3168250738_SByte_t454417549_ExceptionU26_t1467204777PK10MethodInfoPvPS2_
uMj:__ZN6il2cpp8metadata24Il2CppGenericInstCompare7CompareERK10KeyWrapperIPK17Il2CppGenericInstES8_
T6i:__ZNK15dense_hashtableINSt3__24pairIK10KeyWrapperIPK19Il2CppGenericMethodEPK26Il2CppGenericMethodIndicesEES6_N6il2cpp8metadata23Il2CppGenericMethodHashEN14dense_hash_mapIS6_SA_SE_NS6_14EqualsComparerINSD_26Il2CppGenericMethodCompareEEENS0_9allocatorISB_EEE9SelectKeyESI_SK_E5beginEv
o_d:_Graphic_get_materialForRendering_m2600868951
rtf:_TlsClientSettings_get_ClientCertificate_m89435195
$Uf:__ZL61AsymmetricAlgorithm_t784058677_CustomAttributesCacheGeneratorP21CustomAttributesCache
Lsi:_AnimatorControllerPlayable_INTERNAL_CALL_PlayInternal_m3496633968
G5b:__ZN9Polygon2D7DefaultEv
ZHg:__ZN21InterfaceFuncInvoker1IiP12MemberInfo_tE6InvokeEjP11Il2CppClassP12Il2CppObjectS1_
bbi:__Z54RuntimeInvoker_Void_t1841601450_ILTokenInfo_t149559338PK10MethodInfoPvPS2_
SFe:_Collection_1_System_Collections_IList_Contains_m3210868188_gshared
EDi:_AnchorInfo_get_IgnoreCase_m2406760852
VHa:__ZN9GfxDevice22UploadTextureCubeArrayE9TextureIDPKhjii13TextureFormati18TextureUploadFlags17TextureColorSpace
S_b:__ZNK17AnimationCurveTplIfE8EvaluateEfPNS0_5CacheE
oNa:__Z31ManagerContextInitializeClassesv
pdj:__ZNSt3__213__vector_baseIP9FieldInfoNS_9allocatorIS2_EEED2Ev
lUe:_NumberFormatter_AppendIntegerString_m868842252
hOc:_ft_smooth_transform
xOf:__ZL53SortedList_t3004938869_CustomAttributesCacheGeneratorP21CustomAttributesCache
uLc:_UNITY_FT_List_Finalize
fMj:__ZN6il2cpp6icalls8mscorlib6System7Runtime8Remoting10Activation18ActivationServices34AllocateUninitializedClassInstanceEP20Il2CppReflectionType
DWa:__Z20LightAttenuateApproxRKfS0_
a3:__ZN9Scripting30SetCachedPtrOnScriptingWrapperE18ScriptingObjectPtrP6Object
aI:__ZNK12AudioManager26GetTypeInfoVirtualInternalEv
bMb:__Z18Transfer_BlittableI19StreamedBinaryWriteILb0EELb0EdEvRK29SerializationCommandArgumentsR31RuntimeSerializationCommandInfo
Nbb:__ZN17LowLevelAllocator6MallocEj
Tjd:_ASCIIEncoding_GetBytes_m3649277167
YPg:_GUILayoutUtility_Internal_GetWindowRect_m1287880151
YPh:__Z49RuntimeInvoker_Char_t3454481338_Int32_t2071877448PK10MethodInfoPvPS2_
Cjh:_Dictionary_2__ctor_m2457723796_gshared
dyc:__ZN16b2PrismaticJoint4DumpEv
m4h:__Z49RuntimeInvoker_Il2CppObject_Il2CppObject_IntPtr_tPK10MethodInfoPvPS2_
s8e:_MonoType_GetObjectData_m2888677152
zqa:__ZN18BlockRangeInternal16PopLastNodeIndexEP10BlockRangeji
jdh:_Version__ctor_m2972638031
bne:_Enumerator_System_Collections_IEnumerator_Reset_m886102771_AdjustorThunk
ldf:_Kernel_MultiplyByDword_m155008287
jtb:__ZN4MeshD0Ev
A7c:__ZL42RequestRecreateEyeTexturesBeforeNextUpdatev
ohh:_ValueCollection_System_Collections_Generic_ICollectionU3CTValueU3E_get_IsReadOnly_m3005456072_gshared
xOe:_ReadOnlyCollection_1_System_Collections_ICollection_get_SyncRoot_m1577944046_gshared
Lea:__ZNK6Camera20IsCurrentlyRenderingEv
Gqh:_LayoutUtility_U3CGetMinHeightU3Em__4_m1769295917
Q$c:__Z36CanvasRenderer_CUSTOM_SetPopMaterialP12Il2CppObjectS0_i
TVf:__ZL58RijndaelManaged_t1034060848_CustomAttributesCacheGeneratorP21CustomAttributesCache
qqc:__Z18Transfer_BlittableI9JSONWriteLb0EdEvRK29SerializationCommandArgumentsR31RuntimeSerializationCommandInfo
Bxc:__ZNK11b2GearJoint16GetReactionForceEf
R3e:_TextReader__ctor_m3276128267
Uqe:_List_1_System_Collections_Generic_ICollectionU3CTU3E_get_IsReadOnly_m3598018290_gshared
LMe:_ReadOnlyCollection_1_System_Collections_IList_Insert_m3679749778_gshared
lzh:_Toggle_OnDidApplyAnimationProperties_m325835214
COj:_wctomb
dri:_AnimatorControllerPlayable_INTERNAL_CALL_IsParameterControlledByCurveString_m1715379406
qbc:__Z27Camera_CUSTOM_GetAllCamerasP11Il2CppArray
QCb:__ZNK13MonoBehaviour25GetNeedsPerObjectTypeTreeEv
gSj:__ZNSt11logic_errorD0Ev
Czd:_Convert_InternalFromBase64String_m3682756716
cd:___cxa_rethrow
Orc:__Z18Transfer_BlittableI8JSONReadLb1EhEvRK29SerializationCommandArgumentsR31RuntimeSerializationCommandInfo
ZEc:__ZN18Overlap2DQueryBase13ReportFixtureEP9b2Fixture
Ndg:__ZL86GUI_t4082743951_CustomAttributesCacheGenerator_U3CnextScrollStepTimeU3Ek__BackingFieldP21CustomAttributesCache
R7b:__ZN10systeminfo23SupportsLocationServiceEv
H5f:__ZL85Input_t1785128008_CustomAttributesCacheGenerator_Input_get_touchSupported_m3352846145P21CustomAttributesCache
fS:__ZNKSt3__26__treeINS_12__value_typeIN4core12basic_stringIcNS2_20StringStorageDefaultIcEEEES6_EENS_19__map_value_compareIS6_S7_NS_4lessIS6_EELb1EEENS_9allocatorIS7_EEE4findIS6_EENS_21__tree_const_iteratorIS7_PNS_11__tree_nodeIS7_PvEEiEERKT_
aDi:_Regex_System_Runtime_Serialization_ISerializable_GetObjectData_m4035555909
f7g:_TimeSpan_Add_m3228293154
Jlh:_DefaultComparer_Equals_m4098991076_gshared
y4a:__ZN13MonoBehaviour8SetClassE17ScriptingClassPtr18ScriptingObjectPtr
jof:_RC4__cctor_m523650203
gyi:_CrossContextDelegate_Invoke_m2908136830
jQi:_Locale_GetText_m3480617287
okf:_ApplicationIdentity_ToString_m800036884
CW:__ZN20LocalFileSystemPosix4ReadER13FileEntryDatayyPvPy
c_a:__ZNSt3__211__sift_downIRN23ForwardShaderRenderLoop18RenderObjectSorterILb0EEEP21ForwardRenderPassDataEEvT0_S7_T_NS_15iterator_traitsIS7_E15difference_typeES7_
Q5e:_UnmanagedMemoryStream_get_Position_m4093669769
JTf:__ZL83MethodDictionary_t1742974787_CustomAttributesCacheGenerator_U3CU3Ef__switchU24map21P21CustomAttributesCache
bVj:dynCall_iiiiiiffiiiiiiiiiffffiiii
dDb:__ZN13MonoBehaviour5DoGUIENS_13GUILayoutTypeEii
vlf:_Kernel_Multiply_m1938858919
EFg:_DerivedType_IsDefined_m555719351
sAi:_Mark_get_IsDefined_m3332701456
abb:__ZNK12TLSAllocatorI14StackAllocatorE8ContainsEPKv
Lxb:__ZN11TimeManager8TransferI18StreamedBinaryReadILb0EEEEvRT_
GWb:__ZN15SerializeTraitsINSt3__23mapI4PPtrI6ShaderEN4core12basic_stringIcNS5_20StringStorageDefaultIcEEEENS0_4lessIS4_EENS0_9allocatorINS0_4pairIKS4_S9_EEEEEEE8TransferI24GenerateTypeTreeTransferEEvRSH_RT_
rgf:_EncryptedPrivateKeyInfo__ctor_m3964541963
yAg:_DESTransform__cctor_m1179482644
znh:_EqualityComparer_1_System_Collections_IEqualityComparer_GetHashCode_m1465362976_gshared
sZg:_Object_t1021602117_marshal_pinvoke_cleanup
xtb:__ZN14BlendShapeData8TransferI14SafeBinaryReadEEvRT_
jMi:_TextGenerator_PopulateWithErrors_m467881283
aLd:_Enum_Format_m2294492821
VYf:__ZL81Convert_t2607082565_CustomAttributesCacheGenerator_Convert_ToDateTime_m3810846875P21CustomAttributesCache
Zmb:__ZN7Texture25ReloadFromStorageIfNeededEPvb
AAb:__ZN24GenerateTypeTreeTransfer8TransferINSt3__26vectorIN30RuntimeInitializeOnLoadManager15ClassMethodInfoE13stl_allocatorIS4_L18MemLabelIdentifier12ELi16EEEEEEvRT_PKc17TransferMetaFlags
hkg:__ZL106PointerEventData_t1599784723_CustomAttributesCacheGenerator_PointerEventData_set_pressPosition_m2094137883P21CustomAttributesCache
Peh:_ShimEnumerator_get_Entry_m2332479818_gshared
dPd:_BaseRaycaster_get_priority_m247683215
XFd:_DateTime_CheckDateTimeKind_m329345155_AdjustorThunk
CWc:_Update_Max
bti:_PlayableHandle_Equals_m1435096530_AdjustorThunk
Nrj:__ZN6il2cpp6icalls8mscorlib6SystemL15ThrowNoWideningEv
a$b:__ZNK23TransformChangeDispatch24GetChangeMaskForInterestENS_12InterestTypeE
Xhc:__Z45Transform_CUSTOM_INTERNAL_CALL_TransformPointP12Il2CppObjectRK8Vector3fRS1_
AFe:__ZN23InterfaceActionInvoker2Ii18Color32_t874517518E6InvokeEjP11Il2CppClassP12Il2CppObjectiS0_
Fab:__ZL10KeyHandleriPK23EmscriptenKeyboardEventPv
W8i:__ZN14dense_hash_mapI10KeyWrapperI13dynamic_arrayIPK10Il2CppTypeLj4EEEPFvvEN6il2cpp8metadata19Il2CppSignatureHashENS6_14EqualsComparerINSA_22Il2CppSignatureCompareEEENSt3__29allocatorINSF_4pairIKS6_S8_EEEEEC2EjRKSB_RKSE_
sha:__ZNSt3__26__treeINS_12__value_typeI39DeprecatedFastPropertyNameSerializationfEENS_19__map_value_compareIS2_S3_NS_4lessIS2_EELb1EEENS_9allocatorIS3_EEE7destroyEPNS_11__tree_nodeIS3_PvEE
_Pc:_tt_cmap4_char_index
b1h:__Z54RuntimeInvoker_Void_t1841601450_Vector2U26_t3911752445PK10MethodInfoPvPS2_
nii:_AsyncOperation_get_allowSceneActivation_m2825451182
G7g:_TimeSpan_op_Addition_m3421801803
xLa:__ZNK12HandlerChain8IsHiddenERK13FileEntryData
fmg:__ZL50Graphic_t2426225576_CustomAttributesCacheGeneratorP21CustomAttributesCache
OIb:__ZL26Transfer_SimpleNativeClassI17RemapPPtrTransfer10RectOffsetLb0EEvRK29SerializationCommandArgumentsR31RuntimeSerializationCommandInfo
XLc:__Z14ValidateFormatR13dynamic_arrayIN20TextRenderingPrivate16TextFormatChangeELj4EE
Gre:_List_1__ctor_m2672294496_gshared
JOi:_Vector2_op_Implicit_m1064335535
ZEd:_DateTime_System_IConvertible_ToInt32_m2789391054_AdjustorThunk
Vdf:_ASN1Convert_FromInt32_m1541043489
fSd:_PointerInputModule_ProcessMove_m3200120346
jAd:_Convert_ToByte_m1008221737
knf:_MD2Managed_MD2Transform_m3825201358
FGe:_Collection_1_System_Collections_IList_IndexOf_m3976312928_gshared
Nng:__ZL69Scrollbar_t3248359358_CustomAttributesCacheGenerator_m_OnValueChangedP21CustomAttributesCache
tle:_KeyValuePair_2__ctor_m3201181706_gshared
fCc:__ZN10ClipperLib14PointInPolygonERKNS_8IntPointEPNS_5OutPtE
Isg:_SoapFieldAttribute_get_XmlElementName_m4100905008
rYd:_Dropdown_AddOptions_m835420907
GPi:_Vector4_get_sqrMagnitude_m2115578799_AdjustorThunk
Sjg:__ZL107PointerEventData_t1599784723_CustomAttributesCacheGenerator_PointerEventData_get_rawPointerPress_m448871540P21CustomAttributesCache
xfa:__ZNK9ShaderLab20ShaderBlendStateDesc15ToGfxBlendStateEPK19ShaderPropertySheetS3_R13GfxBlendState
oOf:__ZL92Hashtable_t909839986_CustomAttributesCacheGenerator_Hashtable_t909839986____hcp_PropertyInfoP21CustomAttributesCache
HVd:_CanvasUpdateRegistry_IsRebuildingLayout_m1677873278
EDc:__ZN15dense_hashtableINSt3__24pairIKNS1_IPK10Collider2DS4_EE11Collision2DEES5_NS2_23ColliderPairHashFunctorEN14dense_hash_mapIS5_S7_S9_NS0_8equal_toIS5_EE13stl_allocatorIS8_L18MemLabelIdentifier65ELi16EEE9SelectKeyESC_SF_E9copy_fromERKSI_j
a2h:__Z64RuntimeInvoker_Boolean_t3825574718_PlayableHandleU26_t3483893774PK10MethodInfoPvPS2_
aw:__ZN11UnityEngine9AnimationL22GenericBindingCallbackEPvS1_i
kWc:_Compute_Point_Displacement
qWb:__ZN9ShaderLab9IntShaderC2Ev
fej:__ZN6il2cpp6icalls8mscorlib6SystemL9IsPrivateEPK9EventInfo
WKj:__ZN6il2cpp6icalls8mscorlib6System10Reflection4Emit11TypeBuilder20setup_internal_classEP27Il2CppReflectionTypeBuilderS7_
ADh:_InternalEnumerator_1_System_Collections_IEnumerator_Reset_m3237341717_AdjustorThunk
q4i:__ZL25UnresolvedVirtualCall_177P12Il2CppObject23RaycastResult_t21186376S1_PK10MethodInfo
hRg:_RectOffset_set_left_m620681523
h_g:_Physics2D_Raycast_m2560154475
ZAh:_ArrayReadOnlyList_1_IndexOf_m1809425308_gshared
wai:__Z61RuntimeInvoker_Int32_t2071877448_ResourceCacheItem_t333236149PK10MethodInfoPvPS2_
Tfj:_il2cpp_gc_disable
lE:__Z69AnimatorControllerPlayable_CUSTOM_INTERNAL_CALL_GetLayerIndexInternalR9HPlayableP12Il2CppString
QQd:_ExecuteEvents_U3Cs_HandlerListPoolU3Em__0_m2903690915
pxd:_Hashtable_Clone_m165405752
gyc:__ZN16b2PrismaticJoint24SolveVelocityConstraintsERK12b2SolverData
OQf:__ZL61CallingConventions_t1097349142_CustomAttributesCacheGeneratorP21CustomAttributesCache
hPh:__Z140RuntimeInvoker_Boolean_t3825574718_Il2CppObject_Int32_t2071877448_Il2CppObject_SByte_t454417549_Int64U26_t763825331_ExceptionU26_t1467204777PK10MethodInfoPvPS2_
xmi:_Component_BroadcastMessage_m444672650
K3c:__ZN11UnityEngine15PlatformWrapper19GetPhysicalMemoryMBEv
_kg:__ZL144U3CStartU3Ec__Iterator0_t3220237554_CustomAttributesCacheGenerator_U3CStartU3Ec__Iterator0_System_Collections_IEnumerator_get_Current_m290565900P21CustomAttributesCache
GX:__Z15CreateDirectoryRKN4core12basic_stringIcNS_20StringStorageDefaultIcEEEE
Goa:__Z21CalculateGlobalMatrix23TransformAccessReadOnly
iNf:__ZL70InternalsVisibleToAttribute_t1037732567_CustomAttributesCacheGeneratorP21CustomAttributesCache
v0e:_MonoIO_GetCurrentDirectory_m1509324201
Pbd:_SHA384Managed_adjustByteCounts_m410900820
s3g:_UTF32Encoding_GetHashCode_m4205784236
osf:_Context_get_ReceivedConnectionEnd_m3369356276
ilg:__ZL73U3COnFinishSubmitU3Ec__Iterator0_t99135383_CustomAttributesCacheGeneratorP21CustomAttributesCache
tZb:__Z13RegisterClassI14RenderSettingsEvv
RLi:_TextGenerator_Finalize_m4242493229
dCe:_Collection_1_ConvertItem_m3563206219_gshared
D7g:_TimeSpan_Subtract_m3597791685_AdjustorThunk
nLg:_MonoCMethod_get_Name_m764669486
vsi:_AnimatorControllerPlayable_CrossFade_m3146661810
cz:__ZN7mecanim12statemachine24CreateStateMachineOutputEPKNS0_20StateMachineConstantEjRNS_6memory9AllocatorE
KWg:_Logger__ctor_m3834134587
dfj:_il2cpp_assembly_get_image
qva:__ZNK9GfxDevice27GetActiveRenderSurfaceWidthEv
b8d:_SetPropertyUtility_SetClass_TisIl2CppObject_m3524554928_gshared
Ocb:__ZNK11AssetBundle26GetTypeInfoVirtualInternalEv
QHi:_PKCS12_get_Keys_m1312614820
a4c:__ZN11UnityEngine15PlatformWrapper28GetCleanGraphicsFixedVersionEv
E9a:__ZN16MemoryFileSystem5WriteER13FileEntryDatayyPvPy
w:tempBigIntP
Whj:__ZN6il2cpp2vm4Type7GetTypeEPK10Il2CppType
jIf:_Interval_t2354235237_marshal_pinvoke_cleanup
j0g:_Rect_Contains_m1334685291_AdjustorThunk
I$b:__ZN16SpriteRenderData28PrepareRenderingDataIfNeededEv
bod:_AssemblyLoadEventHandler_Invoke_m108373765
a5h:__Z64RuntimeInvoker_Boolean_t3825574718_Il2CppObject_Int64_t909078037PK10MethodInfoPvPS2_
eSd:_PointerInputModule_ShouldStartDrag_m4163638715
Clg:__ZL61Dropdown_t1985816271_CustomAttributesCacheGenerator_m_OptionsP21CustomAttributesCache
x2i:__ZL24UnresolvedVirtualCall_76P12Il2CppObjectPK10MethodInfo
Kka:__ZN6prcoreL17RemapGenericFloatI18TexFormatRGBAFloat17TexFormatRGBAHalfEEvPKNS_9InnerInfoE
SQa:__Z16FindCameraStacksRKNSt3__24listI4PPtrI6CameraENS_9allocatorIS3_EEEERNS_6vectorI11CameraStackNS4_ISA_EEEE
iQi:_WebRequestUtils__cctor_m893658947
Oob:__ZN10GISettings8TransferI14SafeBinaryReadEEvRT_
yn:FUNCTION_TABLE_vifff
oPe:_ReadOnlyCollection_1_System_Collections_Generic_ICollectionU3CTU3E_Remove_m2957273994_gshared
ZOd:_BaseInputModule_ShouldActivateModule_m2899747874
ada:__ZN13RenderTexture13ApplySettingsEv
xXf:__ZL92UTF8Encoding_t111055448_CustomAttributesCacheGenerator_UTF8Encoding_GetByteCount_m2547312609P21CustomAttributesCache
af:_JS_Sound_SetListenerPosition
rn:FUNCTION_TABLE_fiffi
VIg:_ModuleBuilderTokenGenerator_GetToken_m3427457873
nCb:__ZN9TextAsset9SetScriptERKN4core12basic_stringIcNS0_20StringStorageDefaultIcEEEEb
mwh:_Selectable_get_isPointerInside_m3162215687
Upe:_List_1_System_Collections_IList_Contains_m149594880_gshared
yyj:__ZNK15dense_hashtableINSt3__24pairIK10KeyWrapperINS1_IPKcS4_EEEiEES6_24NamespaceAndNamePairHashN14dense_hash_mapIS6_iS9_NS6_14EqualsComparerI26NamespaceAndNamePairEqualsEENS0_9allocatorIS8_EEE9SelectKeyESD_SF_E10test_emptyERK24dense_hashtable_iteratorIS8_S6_S9_SH_SD_SF_E
BZf:__ZL78Convert_t2607082565_CustomAttributesCacheGenerator_Convert_ToSByte_m2585959569P21CustomAttributesCache
n0g:_Rect_Overlaps_m4145874649
Kch:_UnauthorizedAccessException__ctor_m3480402128
idf:_BigInteger_op_Modulus_m3788401748
Iyi:_ArgInfo_GetInOutArgs_m3184132151
Oma:__ZNK8Material16MarkDependenciesER27GarbageCollectorThreadState
WXf:__ZL85Thread_t241561612_CustomAttributesCacheGenerator_Thread_get_CurrentThread_m3667342817P21CustomAttributesCache
sqc:__ZL17Transfer_GUIStyleI9JSONWriteLb0EEvRK29SerializationCommandArgumentsR31RuntimeSerializationCommandInfo
CUa:__Z28GetHaloVertexPositionsStereoP8Vector3fRKS_S2_f
Ala:__ZN6prcoreL27StretchGenericFloatBilinearI15TexFormatRGHalfEEvPKNS_9InnerInfoE
Phg:__ZL85UnityEvent_1_t4075366602_CustomAttributesCacheGenerator_UnityEvent_1__ctor_m152711818P21CustomAttributesCache
Nme:_Enumerator_MoveNext_m598197344_AdjustorThunk
f3i:__ZL25UnresolvedVirtualCall_112P12Il2CppObjectsS0_aaaPK10MethodInfo
Gni:_DisplaysUpdatedDelegate_Invoke_m3646339243
DLi:_TextGenerationSettings_t2543476768_marshal_pinvoke_back
Rid:_String_JoinUnchecked_m1880555587
Ofa:__ZNK9ShaderLab7Program21GetMatchingSubProgramEPK6ShaderPKNS_4PassERK16ShaderKeywordSetjPS7_R19ShaderSnippetResult
gee:_Array_InternalArray__Insert_TisKeyValuePair_2_t1174980068_m2464431954_gshared
F2f:__ZL109AsyncOperation_t3814632279_CustomAttributesCacheGenerator_AsyncOperation_set_allowSceneActivation_m3988498951P21CustomAttributesCache
wgc:__Z49Register_UnityEngine_Resources_GetBuiltinResourcev
VDi:_BalancingGroup_set_Balance_m3452171919
kQc:_tt_cmap10_char_index
nYd:_Dropdown_Awake_m335654827
V7:__Z18GetITerrainManagerv
qkh:_Dictionary_2_U3CCopyToU3Em__0_m1479035402_gshared
gvd:_BitArray_set_Item_m3801461194
VSd:_StandaloneInputModule_get_cancelButton_m1563746440
q$i:__ZN15dense_hashtableINSt3__24pairIK10KeyWrapperIPK22Il2CppGenericParameterEP11Il2CppClassEES6_N6il2cpp5utils11PointerHashIS4_EEN14dense_hash_mapIS6_S9_SE_NS6_14EqualsComparerINS0_8equal_toIS5_EEEENS0_9allocatorISA_EEE9SelectKeyESJ_SL_E3endEv
Bid:_String_Remove_m3580114465
gNc:_UNITY_FT_Destroy_Class_cff_field_handlers
YUb:__ZN9ShaderLab22SerializedBindChannels8TransferI19StreamedBinaryWriteILb0EEEEvRT_
PLf:__ZL65Il2CppArray_CustomAttributesCacheGenerator_Array_Copy_m1969461849P21CustomAttributesCache
ACh:_InternalEnumerator_1_MoveNext_m1791963761_AdjustorThunk
_kc:__ZN5IMGUI20MoveWindowFromLayoutER8GUIStateiRK5RectTIfE
qRf:__ZL56ParameterInfo_t2249040075_CustomAttributesCacheGeneratorP21CustomAttributesCache
svi:_UrlAttribute_get_UrlValue_m3448699483
C4f:__ZL83GameObject_t1756533147_CustomAttributesCacheGenerator_GameObject_set_tag_m717375123P21CustomAttributesCache
wRg:_Mathf_Max_m1875893177
lch:_UIntPtr__ctor_m2737768530
ALc:_UNITY_FT_Stream_ReadUShort
Zii:_Bounds_get_center_m129401026_AdjustorThunk
K2d:_InputField_OnEnable_m3797157569
Pcc:__Z51Register_UnityEngine_GUILayer_INTERNAL_CALL_HitTestv
cjc:__Z50Register_UnityEngine_Object_FindSceneObjectsOfTypev
Tga:__ZNSt3__26__treeINS_12__value_typeIN4core12basic_stringIcNS2_20StringStorageDefaultIcEEEES6_EENS_19__map_value_compareIS6_S7_NS_4lessIS6_EELb1EEE13stl_allocatorIS7_L18MemLabelIdentifier1ELi16EEE7destroyEPNS_11__tree_nodeIS7_PvEE
mRi:_Nullable_1__ctor_m796575255_gshared
qFj:__ZN6il2cpp2vm8Profiler7GCEventE13Il2CppGCEvent
hFd:_DateTimeUtils_ToString_m3878360633
Mrj:__ZN6il2cpp6icalls8mscorlib6SystemL16ThrowInvalidCastEPK11Il2CppClassS5_
fKh:_InternalEnumerator_1_get_Current_m3732458101_AdjustorThunk
Oyb:__ZN12AspectRatios8TransferI24GenerateTypeTreeTransferEEvRT_
kTd:_StandaloneInputModule_ForceAutoSelect_m1167170508
fCh:_InternalEnumerator_1_MoveNext_m1636015243_gshared
Zpf:_Context_get_ServerWriteIV_m2960700649
Kfi:_CustomEventData_AddUInt64_m1437973832
vTd:_TouchInputModule_Process_m1373751353
Sf:_emscripten_glUniform1fv
Gfb:__ZNK17FileSystemHandler8IsHiddenERK13FileEntryData
nQd:_ExecuteEvents_Execute_m898902863
lJ:__ZN4FMOD7Channel7setModeEj
pFg:_DerivedType_InvokeMember_m4149586013
mU:__ZN13EmscriptenWWW6CancelEv
Sxf:_TlsStream_SetLength_m1460039587
flc:__ZN11IMGUIModule12AddGUIScriptER8ListNodeI13MonoBehaviourE
qb:invoke_difi
qRd:_PointerEventData_set_rawPointerPress_m1484888025
A7:__ZL50StaticRegisterSceneLoadedCallback_LightmapSettingsPv
uud:_SimpleEnumerator_Clone_m215554974
GXa:__ZN29MotionVectorRenderLoopScratch15ThreadedCleanupEv
Qm:FUNCTION_TABLE_iiffi
t$d:_GridLayoutGroup_get_cellSize_m1061731753
Ryj:__ZN15dense_hashtableINSt3__24pairIK10KeyWrapperINS1_IPKcS4_EEEiEES6_24NamespaceAndNamePairHashN14dense_hash_mapIS6_iS9_NS6_14EqualsComparerI26NamespaceAndNamePairEqualsEENS0_9allocatorIS8_EEE9SelectKeyESD_SF_E12expand_arrayEjN21dense_hash_map_traits17integral_constantIbLb0EEE
Anh:_EqualityComparer_1_System_Collections_IEqualityComparer_Equals_m300683774_gshared
_za:__ZN21GLESGpuProgramApplier11ApplyVectorERKN20GpuProgramParameters14ValueParameterEPK8Vector4ft
n0a:__Z17PrepareSceneNodesP11CullResults
NPi:_Vector4_ToString_m2340321043_AdjustorThunk
xla:__ZN6prcoreL27StretchGenericFloatBilinearI18TexFormatRGBAFloatEEvPKNS_9InnerInfoE
YEi:_Parser_IsIgnoreCase_m4155598997
cvj:__ZN15dense_hashtableINSt3__24pairIK10KeyWrapperIP14Il2CppIUnknownEjEES5_N6il2cpp5utils11PointerHashIS3_EEN14dense_hash_mapIS5_jSB_NS5_14EqualsComparerINS0_8equal_toIS4_EEEENS0_9allocatorIS7_EEE9SelectKeyESG_SI_E12expand_arrayEjN21dense_hash_map_traits17integral_constantIbLb0EEE
zSc:_cff_size_done
Fnh:_EqualityComparer_1_System_Collections_IEqualityComparer_Equals_m3376587337_gshared
URa:__ZN22RenderingCommandBuffer13GetAndCheckRTE24BuiltinRenderTextureTypeRKN9ShaderLab16FastPropertyNameEPKcPP13RenderTexture
G6a:__ZN6Camera34UpdatePreviousViewProjectionMatrixEv
Rfa:__ZN9ShaderLab11ShaderState25RemoveUnsupportedProgramsEPK6Shader
JVb:__ZL23AddGpuProgramParametersR20GpuProgramParametersRKNSt3__26vectorIN9ShaderLab20SerializedSubProgram15MatrixParameterENS1_9allocatorIS5_EEEERKNS2_INS4_15VectorParameterENS6_ISB_EEEEiP16PropertyNamesSet
e2f:__ZL179U3CCreateWhereIteratorU3Ec__Iterator1D_1_t2523986802_CustomAttributesCacheGenerator_U3CCreateWhereIteratorU3Ec__Iterator1D_1_System_Collections_IEnumerator_get_Current_m1354814095P21CustomAttributesCache
Wic:__Z44Register_UnityEngine_Object_DestroyImmediatev
NOf:__ZL57CompareOptions_t2829943955_CustomAttributesCacheGeneratorP21CustomAttributesCache
$bc:__Z47Register_UnityEngine_Component_BroadcastMessagev
Cr:__ZN18StreamedBinaryReadILb0EE21TransferSTLStyleArrayI13dynamic_arrayI4PPtrI6ObjectELj4EEEEvRT_17TransferMetaFlags
zSf:__ZL62_ConstructorBuilder_t1236878896_CustomAttributesCacheGeneratorP21CustomAttributesCache
x8b:__Z26scripting_class_has_parent17ScriptingClassPtrS_
SZe:_Int64_System_IConvertible_ToInt16_m2022633688_AdjustorThunk
L9e:_OrdinalComparer__ctor_m2952942058
ANj:__ZN6il2cpp8metadata25Il2CppGenericClassCompare7CompareEPK18Il2CppGenericClassS4_
Gu:__ZNK8Animator20IsInMatchTargetStateEv
Fm:FUNCTION_TABLE_viiifiii
Mlc:__Z36Register_UnityEngine_GUI_set_changedv
CWd:_ColorTween_get_startColor_m278546349_AdjustorThunk
Ofd:_Encoding_get_Unicode_m1382741113
Uwi:_LifetimeServices_set_SponsorshipTimeout_m1403222216
j8d:_SetPropertyUtility_SetStruct_TisFitMode_t4030874534_m2608169783_gshared
YTh:__Z64RuntimeInvoker_Single_t2076509932_Il2CppObject_Int32_t2071877448PK10MethodInfoPvPS2_
ysd:_Char_ToString_m1401375624_AdjustorThunk
Ybe:_Array_InternalArray__ICollection_Add_TisTableRange_t2011406615_m147373358_gshared
pBd:_Convert_ToDateTime_m1251728572
_be:_Array_InternalArray__ICollection_Add_TisBoolean_t3825574718_m1009318882_gshared
jQe:_ReadOnlyCollection_1_System_Collections_IList_set_Item_m1149349508_gshared
Oy:__ZN27AnimationLayerMixerPlayable18SetInputConnectionEP8Playablei
onc:__Z42Register_UnityEngine_GUIStyle_get_wordWrapv
Iwg:_ObjectReader_ReadObjectContent_m3949770110
Kue:_List_1_System_Collections_ICollection_get_SyncRoot_m3031553207_gshared
tmi:_Component_SendMessage_m4199581575
_sa:__ZZ19InitializeGfxDevice20GfxCreateDeviceFlagsEN38PreLateUpdateEndGraphicsJobsLatestruct7ForwardEv
a1i:__ZN6il2cpp2vm5Class40GetInterfaceInvokeDataFromVTableSlowPathEPK12Il2CppObjectPK11Il2CppClassj
_lg:__ZL69FontData_t2614388407_CustomAttributesCacheGenerator_m_AlignByGeometryP21CustomAttributesCache
vkb:__ZN20TierGraphicsSettings8TransferI18StreamedBinaryReadILb0EEEEvRT_
cyh:_Text_get_font_m3115501113
Wqj:__GLOBAL__sub_I_Thread_cpp
cha:__ZN14SafeBinaryRead8TransferINSt3__24pairIN9ShaderLab16FastPropertyNameE10ColorRGBAfEEEEvRT_PKc17TransferMetaFlags
hXi:__ZL9rshift128PyS_
Cwg:_ObjectReader_RecordFixup_m1893348030
jGg:_EnumBuilder_GetElementType_m1228393631
Koj:__ZN14dense_hash_mapI10KeyWrapperINSt3__24pairIPK12PropertyInfoP11Il2CppClassEEEj17ReflectionMapHashIS8_ENS9_14EqualsComparerINS1_8equal_toIS8_EEEENS1_9allocatorINS2_IKS9_jEEEEE13set_empty_keyERSH_
gk:_glRenderbufferStorage
Cyj:__ZNK15dense_hashtableINSt3__24pairIK10KeyWrapperINS1_IPKcS4_EEEiEES6_24NamespaceAndNamePairHashN14dense_hash_mapIS6_iS9_NS6_14EqualsComparerI26NamespaceAndNamePairEqualsEENS0_9allocatorIS8_EEE9SelectKeyESD_SF_E13find_positionERS7_
ZPf:__ZL80ILGenerator_t99948092_CustomAttributesCacheGenerator_ILGenerator_Emit_m116557729P21CustomAttributesCache
aJf:__ZL43Il2CppObject_CustomAttributesCacheGeneratorP21CustomAttributesCache
oec:__Z45Register_UnityEngine_Input_get_touchSupportedv
e4c:__ZN11UnityEngine15PlatformWrapper28GetTextureFormatSupportFlagsEv
aOc:_UNITY_FT_Create_Class_pshinter_module_class
U3h:__Z103RuntimeInvoker_Void_t1841601450_Vector2U26_t3911752445_Il2CppObject_Il2CppObject_Vector2U26_t3911752445PK10MethodInfoPvPS2_
_hd:_String_CompareOrdinalCaseInsensitiveUnchecked_m2002640463
Spd:_Boolean_GetHashCode_m1894638460
cTc:_cf2_setError
hkf:_AppDomainInitializer_BeginInvoke_m2446455399
wch:_UIntPtr_ToUInt32_m1679632738_AdjustorThunk
K3g:_UTF7Encoding_InternalGetChars_m4157428055
zoa:__Z33InterpolateLightProbeCoefficientsRK17LightProbeContextRK29LightProbeSamplingCoordinatesR20SphericalHarmonicsL2
n7f:__ZL86Texture_t2243626319_CustomAttributesCacheGenerator_Texture_Internal_GetWidth_m56137242P21CustomAttributesCache
uff:_SmallXmlParser_HandleBufferedContent_m3397096753
eh:_glDisable
S3d:_InputField_OnDeselect_m3963675647
mDh:_InternalEnumerator_1_MoveNext_m1994485778_AdjustorThunk
$0c:__Z44Register_UnityEngine_Canvas_get_pixelPerfectv
Jle:_KeyValuePair_2_get_Value_m1916631176_AdjustorThunk
tDg:_MethodBase__ctor_m3951051358
xlb:__ZN4PPtrI9Texture2DE8TransferI14SafeBinaryReadEEvRT_
MAj:__ZN6il2cpp5utils11StringUtils15StringDuplicateEPKDsj
$Xd:_Dropdown_get_template_m3014799983
AGf:_BaseMachine_Scan_m122450399
Nsi:_AnimatorControllerPlayable_PlayInternal_m3385259863
ktd:_ArrayList_CopyTo_m2353632788
DQf:__ZL71AssemblyFileVersionAttribute_t2897687916_CustomAttributesCacheGeneratorP21CustomAttributesCache
tdi:__Z33RuntimeInvoker_Color32_t874517518PK10MethodInfoPvPS2_
w7:__ZNSt3__26vectorINS_4pairIyP17VertexDeclarationEENS_9allocatorIS4_EEE6assignIPS4_EENS_9enable_ifIXaasr21__is_forward_iteratorIT_EE5valuesr16is_constructibleIS4_NS_15iterator_traitsISB_E9referenceEEE5valueEvE4typeESB_SB_
Yre:_List_1_Add_m943275925_gshared
_9h:__Z100RuntimeInvoker_Int32_t2071877448_Il2CppObject_Color32_t874517518_Int32_t2071877448_Int32_t2071877448PK10MethodInfoPvPS2_
uBg:_HMAC_get_BlockSizeValue_m603907214
ZXa:__ZNK8Material12GetPassCountEv
Qyd:_Enumerator__cctor_m3784927209
H1j:b110
I1j:b111
J1j:b112
CSj:_bitshift64Ashr
M1j:b114
N1j:b115
O1j:b116
Fga:__ZNK8Material26GetTypeInfoVirtualInternalEv
fGc:__ZN11Rigidbody2D23VirtualRedirectTransferER14SafeBinaryRead
A$b:__ZN14SpriteRenderer12CleanupClassEv
ABa:__ZN4crnd12crn_unpacker22decode_alpha_endpointsEv
n1a:__Z23CullDynamicObjectsUmbraPK4AABBPKN5Umbra15OcclusionBufferER9IndexList
Vqg:__ZL67FieldWithTarget_t2256174789_CustomAttributesCacheGenerator_m_TargetP21CustomAttributesCache
_Ge:_Collection_1_RemoveItem_m2565709010_gshared
$Pc:_tt_cmap4_char_next
x5h:__Z86RuntimeInvoker_Void_t1841601450_Il2CppObject_StringU26_t638738783_StringU26_t638738783PK10MethodInfoPvPS2_
bPb:__ZN18StreamedBinaryReadILb1EE21TransferSTLStyleArrayI13dynamic_arrayIiLj4EEEEvRT_17TransferMetaFlags
m$:__ZN17DirectorFrameTime14ResetDSPValuesEv
QGi:_GeneralNames_ToString_m800435094
vUd:_BaseMeshEffect_OnDidApplyAnimationProperties_m2484799839
bVf:__ZL73AsymmetricSignatureDeformatter_t3580832979_CustomAttributesCacheGeneratorP21CustomAttributesCache
$jd:_ASCIIEncoding_GetString_m3931709239
l4f:__ZL97GameObject_t1756533147_CustomAttributesCacheGenerator_GameObject__ctor_m1633632305____components1P21CustomAttributesCache
O_a:__ZN23ForwardShaderRenderLoopD2Ev
qIa:__ZN9GfxDevice20SetComputeBufferDataE15ComputeBufferIDPKvj
jah:_UInt16_Parse_m3560204090
Vtc:__ZN8JSONRead21TransferSTLStyleArrayI13dynamic_arrayIsLj2EEEEvRT_18MemLabelIdentifier17TransferMetaFlags
ZI:__ZN4FMOD7Channel11setPositionEjj
Yh:_glBindSampler
z8:__Z22CreateMutexLockedQueuev
yRe:_ReadOnlyCollection_1_System_Collections_Generic_ICollectionU3CTU3E_Clear_m964488020_gshared
Ufd:_SecurityFrame_get_Domain_m3219347572_AdjustorThunk
$h:_glGetVertexAttribiv
$ad:_SHA1__ctor_m788472966
ace:_Array_InternalArray__ICollection_Add_TisChar_t3454481338_m422084244_gshared
C6i:__ZNSt3__218uninitialized_fillIPNS_4pairIK10KeyWrapperIPKcEP11Il2CppClassEES9_EEvT_SB_RKT0_
KYc:__ZN2UI11CanvasGroup23VirtualRedirectTransferER18StreamedBinaryReadILb0EE
Tfh:_Transform_1_EndInvoke_m803975703_gshared
vRe:_ReadOnlyCollection_1_get_Item_m3778245964_gshared
G_f:__ZL52EventArgs_t3289624707_CustomAttributesCacheGeneratorP21CustomAttributesCache
nri:_AnimatorControllerPlayable_GetLayerName_m2571001466
atc:__ZN8JSONRead8TransferIbEEvRT_PKc17TransferMetaFlagsb
tDe:_Collection_1_RemoveAt_m290627370_gshared
Igi:_AnimationEvent_get_objectReferenceParameter_m3565420672
nRd:_PointerEventData_get_lastPress_m3835070463
tWg:_DefaultValueAttribute_Equals_m3216982933
HCf:_X509KeyUsageExtension_Decode_m3292847033
M7:__ZN26SharedLightmapSettingsDataD2Ev
YKg:_Module_filter_by_type_name_ignore_case_m3574895736
STf:__ZL57ProxyAttribute_t4031752430_CustomAttributesCacheGeneratorP21CustomAttributesCache
yob:__ZN26CustomRenderTextureManager19PreAllocateMaterialEP19CustomRenderTexture
tIc:__ZN19ControllerHitReport13onObstacleHitERKN5physx23PxControllerObstacleHitE
iwg:_ObjectReader_ReadObject_m397855326
lGj:_GC_promote_black_lists
u0d:_Image_get_fillAmount_m3354146540
Ntc:__Z29Transfer_Blittable_ArrayFieldI8JSONRead8Vector4fEvRT_R9ArrayInfoRK23StaticTransferFieldInfo
Fpe:_List_1_Sort_m1518807012_gshared
cMc:__ZNK13TextRendering4Font9GetAscentEv
Zn:FUNCTION_TABLE_vf
yo:FUNCTION_TABLE_vd
S8g:_Type_GetMethod_m1930231379
Ao:FUNCTION_TABLE_vi
uvg:_WellKnownServiceTypeEntry_ToString_m493996021
EPf:__ZL55StreamReader_t2360341767_CustomAttributesCacheGeneratorP21CustomAttributesCache
PVg:_HumanBone_get_humanName_m2091758568_AdjustorThunk
yTf:__ZL51IMessage_t3044378324_CustomAttributesCacheGeneratorP21CustomAttributesCache
Kaf:_SimpleCollator_GetContraction_m1391584430
Vpd:_CultureInfo_get_InvariantCulture_m398972276
vpd:_Boolean_System_IConvertible_ToInt64_m4142756949_AdjustorThunk
a3f:__ZL84Camera_t189460977_CustomAttributesCacheGenerator_Camera_get_targetTexture_m705925974P21CustomAttributesCache
PC:__ZNK8Animator17HasBoundPlayablesEv
UFc:__ZN17Physics2DSettings8TransferI24GenerateTypeTreeTransferEEvRT_
_mf:_HMAC_initializePad_m3828610671
U8f:__ZL68DrivenTransformProperties_t2488747555_CustomAttributesCacheGeneratorP21CustomAttributesCache
cte:_List_1_Contains_m980727749_gshared
Iad:_RSAParameters_t1462703416_marshal_pinvoke_cleanup
_wi:_ConfigHandler_OnChars_m2004226744
lii:_AsyncOperation_get_priority_m966065939
va:invoke_iiifiii
Ssj:__ZN6il2cpp2vm9Exception11FromNameMsgEPK11Il2CppImagePKcS6_S6_
UVe:_NumberFormatInfo_get_NumberDecimalDigits_m3706097953
B8g:_Type_internal_from_name_m1506974323
hn:FUNCTION_TABLE_fiiifii
iC:__ZN10HumanTrait15InitializeClassEv
B$:__Z14GetTimeManagerv
kag:__ZL143AnimatorControllerPlayable_t4078305555_CustomAttributesCacheGenerator_AnimatorControllerPlayable_INTERNAL_CALL_GetLayerNameInternal_m2049776925P21CustomAttributesCache
BYb:__ZneRK20SpriteTilingPropertyS1_
g2h:__Z67RuntimeInvoker_Void_t1841601450_Scene_t1684909666_Int32_t2071877448PK10MethodInfoPvPS2_
Kgb:__Z12GUIDToStringRK9UnityGUIDPc
meb:__ZN15FileSystemEntry4LockE12FileLockModeP12FileAccessor
J5d:_Array_get_swapper_TisIl2CppObject_m1701356863_gshared
oM:__ZN11AudioSource22UnmuteActiveVideoSinksEv
JAj:__ZN4utf88internal20is_overlong_sequenceIiEEbjT_
Ui:_glReadBuffer
BUh:__Z31RuntimeInvoker_SByte_t454417549PK10MethodInfoPvPS2_
Aud:_SynchronizedArrayListWrapper_get_Count_m4104930530
pBg:_HashAlgorithm_get_HashSize_m2625667696
fZa:__Z30SetupBakedOcclusionForGeometrybRK26SharedLightmapSettingsDataRK15LightmapIndicesR17ShaderPassContext
Zge:_Array_Resize_TisVector4_t2243707581_m1528805937_gshared
Qdd:_SecurityPermission_IsSubsetOf_m1087302418
fcc:__Z41Register_UnityEngine_Cursor_get_lockStatev
EYa:__Z14SetupLightmapsRK8Vector4fS1_R17ShaderPassContext
mIf:_Interval_get_Empty_m3170923997
KQg:_GUILayoutEntry_CalcWidth_m2520096159
R_b:__Z20DestroyObjectDelayedP6Objectf
UU:__ZN20DynamicHeapAllocatorI17LowLevelAllocatorED0Ev
f3d:_InputField_OnDrag_m726194348
OBc:__ZN10ClipperLib11ClipperBase5ResetEv
Jui:_GuidAttribute__ctor_m1099153635
Sbf:_PreviousInfo__ctor_m1442166472_AdjustorThunk
RVa:__ZN9DepthPassD2Ev
FFd:_DateTime_get_Kind_m1331920314_AdjustorThunk
TH:__ZN11AudioFilter6GetDSPEv
F5i:__ZN13Il2CppHashMapIPKcP11Il2CppClassN6il2cpp5utils11StringUtils12StringHasherIS1_EENS6_21CaseSensitiveComparerENSt3__29allocatorINSA_4pairIK10KeyWrapperIS1_ES3_EEEEEC2EjRKS8_RKS9_
UKc:__ZN20TextRenderingPrivate15DynamicFontData36GetFaceForCharacterIfAvailableInFontERKNS_7FontRefERKNSt3__26vectorI4PPtrIN13TextRendering4FontEE13stl_allocatorIS9_L18MemLabelIdentifier34ELi16EEEEj
G1:__ZN19RuntimeSceneManager14CanUnloadSceneEP10UnityScene
fWa:__Z22ExtractRenderNodeQueueRK11CullResults15ExtractionFlagsR15RenderNodeQueue
Vfe:_Array_InternalArray__set_Item_TisContentType_t1028629049_m703420360_gshared
QBj:__ZN6il2cpp2vm6Method7GetNameEPK10MethodInfo
bBe:_List_1_set_Item_m1431784996_gshared
fH:__ZN24AudioScriptBufferManagerC2Ev
Wuc:__ZN11UnityEngine9Analytics18SceneLoadTimeEvent12ToJsonStringER9JSONWrite
uKc:__ZNSt3__26vectorIh13stl_allocatorIhL18MemLabelIdentifier1ELi16EEE8__appendEj
xKc:__ZN20TextRenderingPrivate8FontImpl16ResetPackingDataEv
T6g:_TimeSpan_get_Hours_m3804628138_AdjustorThunk
Rae:_Array_InternalArray__IndexOf_TisLink_t865133271_m3612939760_gshared
Apc:__Z18Transfer_BlittableI9JSONWriteLb0EfEvRK29SerializationCommandArgumentsR31RuntimeSerializationCommandInfo
nda:__Z21GetAsyncUploadManagerv
Lj:_emscripten_glDetachShader
qch:_UIntPtr__cctor_m889490270
S9e:_SafeHandleZeroOrMinusOneIsInvalid_get_IsInvalid_m2033528032
ksd:_Char_IsUpper_m4083577610
MAa:__ZN17GenericDynamicVBO20ReleaseChunkInternalERK21DynamicVBOChunkHandlejj
nXc:__ZL27CleanupModule_TextRenderingv
R9e:_SafeHandleZeroOrMinusOneIsInvalid__ctor_m3340306667
cPj:_fmodl
Btg:_SerializationInfo_AddValue_m902275108
qPj:_fmodf
TJe:_Collection_1_RemoveItem_m2272047354_gshared
eNb:__Z18Transfer_BlittableI18StreamedBinaryReadILb1EELb1E4AABBEvRK29SerializationCommandArgumentsR31RuntimeSerializationCommandInfo
kea:__ZN12CachedWriter11Align4WriteEv
iXa:__Z20DoDeferredRenderLoopR17RenderLoopContextR13dynamic_arrayI16RenderObjectDataLj4EES4_RK11CullResultsRP13RenderTextureSA_Pb
ora:__ZNSt3__26vectorIiNS_9allocatorIiEEE21__push_back_slow_pathIKiEEvRT_
Obg:__ZL137AnimatorControllerPlayable_t4078305555_CustomAttributesCacheGenerator_AnimatorControllerPlayable_INTERNAL_CALL_ResetTriggerID_m3592790433P21CustomAttributesCache
Ura:__ZN19RuntimeSceneManager11CreateSceneEv
xyg:_RuntimeTypeHandle__ctor_m235560320_AdjustorThunk
pSc:_ps_get_standard_strings
XEe:_Collection_1_IsValidItem_m1908012838_gshared
eZa:__Z27SetupBakedOcclusionForLightbRK15SharedLightDataR17ShaderPassContext
XLj:__ZN6il2cpp2os5Mutex6UnlockEv
vAf:__ZN21InterfaceFuncInvoker1IP13Uri_t19570940S1_E6InvokeEjP11Il2CppClassP12Il2CppObjectS1_
M4i:__ZL25UnresolvedVirtualCall_199P12Il2CppObject22Navigation_t1571958496PK10MethodInfo
qvh:_ScrollRect_OnScroll_m3346515304
Lag:__ZL137AnimatorControllerPlayable_t4078305555_CustomAttributesCacheGenerator_AnimatorControllerPlayable_CrossFadeInFixedTimeInternal_m3729673154P21CustomAttributesCache
IRj:__ZN10__cxxabiv116__shim_type_infoD2Ev
Jne:_Enumerator_System_Collections_IEnumerator_get_Current_m3461301268_gshared
ijh:_Dictionary_2_CopyToCheck_m1638253305_gshared
qRa:__Z18RenderImageFiltersR10RenderLoopb
tw:__ZN24dense_hashtable_iteratorINSt3__24pairIKN11UnityEngine9Animation14GenericBindingENS3_10BoundIndexEEES4_NS3_25GenericBindingHashFunctorEN14dense_hash_mapIS4_S6_S8_NS3_30GenericBindingValueArrayUniqueE13stl_allocatorIS7_L18MemLabelIdentifier1ELi16EEE9SelectKeyESA_SD_E30advance_past_empty_and_deletedEv
GU:__Z19free_alloc_internalPv18MemLabelIdentifier
fgb:__ZNK23ArchiveStorageConverter16GetDirectoryInfoEv
M$c:__Z43CanvasRenderer_Get_Custom_PropMaterialCountP12Il2CppObject
YWg:__ZN23InterfaceActionInvoker2IP21Exception_t1927440687P18Object_t1021602117E6InvokeEjP11Il2CppClassP12Il2CppObjectS1_S3_
Q4a:__ZN10GameObjectD2Ev
DMe:_ReadOnlyCollection_1_System_Collections_Generic_IListU3CTU3E_set_Item_m25653560_gshared
pQg:_GUIContent_t4210063000_marshal_pinvoke_cleanup
wp:__ZN6Object23VirtualRedirectTransferER19StreamedBinaryWriteILb1EE
z9b:__ZNK9BlobWrite24HasOffsetPtrWithDebugPtrEv
qog:__ZL68Selectable_t1490392188_CustomAttributesCacheGenerator_m_InteractableP21CustomAttributesCache
_Ab:__ZN33AssetBundleLoadFromAsyncOperation12IsCrc32ValidEv
Vli:_Color32_op_Implicit_m889975790
mpi:_UnityEventBase_RebuildPersistentCallsIfNeeded_m1583202007
_of:_CertificateSelectionCallback_Invoke_m2902629105
a7:__ZN10InputEventD2Ev
nVe:_DateTimeFormatInfo_GetAllDateTimePatternsInternal_m1587126173
vOi:_Vector2_ToString_m775491729_AdjustorThunk
ned:_Evidence__ctor_m1638117806
EGe:__ZN21InterfaceFuncInvoker1Ib22UICharInfo_t3056636800E6InvokeEjP11Il2CppClassP12Il2CppObjectS0_
DUe:_NumberFormatter_Append_m3268121457
wnj:__ZNK15dense_hashtableINSt3__24pairIK10KeyWrapperIPK14Il2CppAssemblyEPK16MonoAssemblyNameEES6_N6il2cpp5utils11PointerHashIS4_EEN14dense_hash_mapIS6_SA_SF_NS6_14EqualsComparerINS0_8equal_toIS5_EEEENS0_9allocatorISB_EEE9SelectKeyESK_SM_E3endEv
gEh:_InternalEnumerator_1_Dispose_m3578333724_AdjustorThunk
rad:_RSA_ToXmlString_m4145056574
Zaa:__Z20SetPlayerPauseDirect11PlayerPause
qKd:_Double_System_IConvertible_ToUInt64_m1318285078_AdjustorThunk
JOj:_isalpha
lgj:_il2cpp_object_unbox
Yth:_Selectable_FindSelectable_m2739582497
Tfb:__ZN17FileSystemHandler5TouchER13FileEntryData
Lxc:__ZNK12b2MotorJoint17GetReactionTorqueEf
jFd:_DateTimeUtils_ZeroPad_m86470512
m9h:__Z73RuntimeInvoker_Boolean_t3825574718_CustomAttributeNamedArgument_t94157543PK10MethodInfoPvPS2_
Qbj:__ZN6il2cpp2vmL17IsSocketAsyncCallEP14Il2CppDelegate
BHc:__Z13RegisterClassI11Rigidbody2DEvv
RWg:_Logger_IsLogTypeAllowed_m1750132386
GEj:__ZN6il2cpp2vm6String6NewLenEPKcj
xib:__ZN6Camera23VirtualRedirectTransferER19StreamedBinaryWriteILb0EE
qDj:__ZN6il2cpp2os6Thread12GetApartmentEv
GIa:__ZN9GfxDevice28UpdateComputeConstantBuffersEjP12ObjectHandleI18ConstantBuffer_TagPvEjjPKhPKjS8_PKi
_k:_time
c9c:_RC2Transform__cctor_m4079629627
dbi:__Z60RuntimeInvoker_Void_t1841601450_ResourceCacheItem_t333236149PK10MethodInfoPvPS2_
zRc:_ps_hints_done
jqh:_EqualityComparer_1_System_Collections_IEqualityComparer_Equals_m1091252481_gshared
S_d:_Graphic_UnregisterDirtyLayoutCallback_m1724443555
Wmf:_CryptoConvert_ToHex_m2874017189
LTc:_cf2_stack_free
d2:__ZN15dense_hashtableINSt3__24pairIKiP6ObjectEEi21InstanceIDHashFunctorN14dense_hash_mapIiS4_S6_NS0_8equal_toIiEE13stl_allocatorIS5_L18MemLabelIdentifier65ELi16EEE9SelectKeyES9_SC_E12resize_deltaEjj
Opg:__ZL94LayoutGroup_t3962498969_CustomAttributesCacheGenerator_LayoutGroup_DelayedSetDirty_m4276695617P21CustomAttributesCache
OA:__ZN8Animator31ClearInternalControllerPlayableEv
j5a:__ZN10GameObject8TransferI24GenerateTypeTreeTransferEEvRT_
moe:_Enumerator_VerifyState_m3913376581_gshared
rpg:__ZL72GridLayoutGroup_t1515633077_CustomAttributesCacheGenerator_m_StartCornerP21CustomAttributesCache
c2f:__ZL83U3CCreateWhereIteratorU3Ec__Iterator1D_1_t2523986802_CustomAttributesCacheGeneratorP21CustomAttributesCache
ajj:__ZN15dense_hashtableINSt3__24pairIK10KeyWrapperINS1_IPK9FieldInfoP11Il2CppClassEEEjEES9_17ReflectionMapHashIS8_EN14dense_hash_mapIS9_jSD_NS9_14EqualsComparerINS0_8equal_toIS8_EEEENS0_9allocatorISB_EEE9SelectKeyESI_SK_E4findERSA_
E0j:_glDeleteSync__wrapper
wKi:_SerializePrivateVariables__ctor_m806793207
PBd:_Decimal_op_Implicit_m623319612
Ygh:_ValueCollection_System_Collections_Generic_ICollectionU3CTValueU3E_Remove_m98888100_gshared
QPd:_EventTrigger_OnPointerExit_m2119176877
R5g:_ThreadAbortException__ctor_m1623816114
a0b:__ZN13ProduceHelperI30RuntimeInitializeOnLoadManagerLb0EE7ProduceE18MemLabelIdentifier18ObjectCreationMode
$2a:__ZN13RenderTexture19SetAutoGenerateMipsEb
hja:__Z20GetTextureFormatInfo13TextureFormat
mnc:__Z43Register_UnityEngine_GUIStyle_get_alignmentv
Hz:__ZN26AnimatorControllerPlayable8GetFloatEiRf
ash:_Shadow__ctor_m924057531
CRd:_PointerEventData_set_worldPosition_m192283671
qDe:_Collection_1_InsertItem_m1391780791_gshared
wUj:dynCall_iiifiiii
ZNb:__ZN18StreamedBinaryReadILb1EE5AlignEv
oPi:_Vector3_get_right_m1884123822
qKj:__ZN6il2cpp5utils10MemoryPool6MallocEj
yG:__ZN11SoundHandle8InstanceD2Ev
e9:__ZN31CanvasBatchIntermediateRenderer13StaticDestroyEPv
TJi:_X509Store_BuildCrlsCollection_m52567568
naj:__ZNK15dense_hashtableINSt3__24pairIK10KeyWrapperIPK11Il2CppClassEPKcEES6_N6il2cpp5utils11PointerHashIS3_EEN14dense_hash_mapIS6_S9_SE_NS6_14EqualsComparerINS0_8equal_toIS5_EEEENS0_9allocatorISA_EEE9SelectKeyESJ_SL_E10test_emptyERK24dense_hashtable_iteratorISA_S6_SE_SN_SJ_SL_E
uxg:_CallbackHandler__ctor_m1235509347
Sec:__Z29Mesh_CUSTOM_RecalculateBoundsP12Il2CppObject
gNe:_ReadOnlyCollection_1_System_Collections_Generic_ICollectionU3CTU3E_get_IsReadOnly_m3561954522_gshared
$Kd:_Enum_ToString_m662345249
Ipe:_List_1_get_Capacity_m531373308_gshared
FZj:_emscripten_glBindProgramARB__wrapper
lVf:__ZL66DESCryptoServiceProvider_t933603253_CustomAttributesCacheGeneratorP21CustomAttributesCache
ccc:__Z41Register_UnityEngine_CullingGroup_Disposev
rnb:__ZN7Cubemap23VirtualRedirectTransferER19StreamedBinaryWriteILb0EE
a3h:__Z100RuntimeInvoker_Void_t1841601450_Il2CppObject_Single_t2076509932_Int32_t2071877448_Single_t2076509932PK10MethodInfoPvPS2_
AKa:__ZN25MultiBlocksMemoryFileData5WriteEyyPKv
myc:__ZNK13b2PulleyJoint16GetReactionForceEf
_Rh:__Z78RuntimeInvoker_Il2CppObject_Int64_t909078037_Int64_t909078037_Int64_t909078037PK10MethodInfoPvPS2_
Xlj:__ZNSt3__218uninitialized_fillIPNS_4pairIK10KeyWrapperINS1_IPK12PropertyInfoP11Il2CppClassEEEjEESB_EEvT_SD_RKT0_
xwe:_List_1_System_Collections_IList_Add_m4271264217_gshared
Qzh:_Action_1_BeginInvoke_m1305519803_gshared
wNa:__ZZ23InitPlayerLoopCallbacksvEN47InitializationAsyncUploadTimeSlicedUpdatestruct7ForwardEv
eoj:__ZN14dense_hash_mapI10KeyWrapperIPK10Il2CppTypeEjN6il2cpp8metadata14Il2CppTypeHashENS4_14EqualsComparerINS6_26Il2CppTypeEqualityComparerEEENSt3__29allocatorINSB_4pairIKS4_jEEEEE13set_empty_keyERSE_
Qbc:__Z35Component_CUSTOM_SendMessageUpwardsP12Il2CppObjectP12Il2CppStringS0_i
KCa:__ZL17ProgramUniform2fvPK7ApiGLESjiihPKv
bMf:__ZL65Il2CppArray_CustomAttributesCacheGenerator_Array_Sort_m4096942812P21CustomAttributesCache
pKc:__ZN20TextRenderingPrivate8FontImpl21HasCharacterInTextureEjijfPj
rgb:__ZN13Lz4CompressorD0Ev
dQj:_htonl
Yxa:__Z20GetBufferManagerGLESv
W9d:__ZN21InterfaceFuncInvoker1Ii18Color32_t874517518E6InvokeEjP11Il2CppClassP12Il2CppObjectS0_
gQb:__ZN18StreamedBinaryReadILb0EE21TransferSTLStyleArrayI31ArrayOfManagedObjectsTransfererEEvRT_17TransferMetaFlags
V3g:_UTF7Decoder_GetChars_m2790530452
eQj:_htons
_2h:__Z82RuntimeInvoker_Boolean_t3825574718_PlayableHandleU26_t3483893774_Int32_t2071877448PK10MethodInfoPvPS2_
fsc:__Z18Transfer_BlittableI8JSONReadLb0EtEvRK29SerializationCommandArgumentsR31RuntimeSerializationCommandInfo
vmj:__ZN15dense_hashtableINSt3__24pairIK10KeyWrapperINS1_IPK9EventInfoP11Il2CppClassEEEjEES9_17ReflectionMapHashIS8_EN14dense_hash_mapIS9_jSD_NS9_14EqualsComparerINS0_8equal_toIS8_EEEENS0_9allocatorISB_EEE9SelectKeyESI_SK_E12expand_arrayEjN21dense_hash_map_traits17integral_constantIbLb0EEE
jTg:_GUIStyle_t1799908754_marshal_pinvoke_back
DNa:__ZZ23InitPlayerLoopCallbacksvEN44EarlyUpdateResetFrameStatsAfterPresentstruct7ForwardEv
dPh:__Z49RuntimeInvoker_Int32_t2071877448_Int64_t909078037PK10MethodInfoPvPS2_
uyh:_Text_set_fontSize_m2101304336
Fnb:__ZNK7Cubemap20GetTextureLayerCountEv
bNc:_pshinter_module_class_pic_free
Ang:__ZL68Navigation_t1571958496_CustomAttributesCacheGenerator_m_SelectOnLeftP21CustomAttributesCache
_u:__ZN34AnimationStateMachineMixerPlayable13EndTransitionEv
HCc:__ZNSt3__26vectorIxNS_9allocatorIxEEE6assignIPxEENS_9enable_ifIXaasr21__is_forward_iteratorIT_EE5valuesr16is_constructibleIxNS_15iterator_traitsIS7_E9referenceEEE5valueEvE4typeES7_S7_
CI:__ZN12AudioManager21FixMasterGroupRoutingEv
wcd:_SymmetricAlgorithm_set_Key_m2973350820
rGc:__ZN6b2Body9SetActiveEb
Tlg:__ZL58FontData_t2614388407_CustomAttributesCacheGenerator_m_FontP21CustomAttributesCache
KBf:_WebHeaderCollection_IsHeaderValue_m1723393133
Pwd:_Hashtable__ctor_m4280223555
Z$d:_HorizontalOrVerticalLayoutGroup_get_childForceExpandWidth_m227100883
OBj:__ZN6il2cpp2os10ThreadImpl33UnregisterCurrentThreadForCleanupEv
w3f:__ZL97Component_t3819376471_CustomAttributesCacheGenerator_Component_GetComponentInChildren_m3985003615P21CustomAttributesCache
Qy:__ZN27AnimationLayerMixerPlayable22PrepareAnimationEventsEfR13dynamic_arrayI22AnimationClipEventInfoLj4EE
pFb:__Z18Transfer_BlittableI14SafeBinaryReadLb1E4AABBEvRK29SerializationCommandArgumentsR31RuntimeSerializationCommandInfo
XAj:__ZN6il2cpp6icalls8mscorlib6System4Enum12get_hashcodeEP12Il2CppObject
cWg:_Input_INTERNAL_get_mouseScrollDelta_m1140491498
Mqi:_AnimatorControllerPlayable_SetInteger_m1311149575
Bqe:_List_1_Sort_m2895170076_gshared
hW:__ZNK13ScreenManager16GetScreenTimeoutEv
lH:__ZN9AudioClip7WWWOpenEPKciPjPPvS4_
P1f:__ZL66Uri_t19570940_CustomAttributesCacheGenerator_Uri__ctor_m3854873816P21CustomAttributesCache
J_h:__Z79RuntimeInvoker_Void_t1841601450_Il2CppObject_Int32_t2071877448_Int64_t909078037PK10MethodInfoPvPS2_
iFb:__Z18Transfer_BlittableI14SafeBinaryReadLb0E8Vector2fEvRK29SerializationCommandArgumentsR31RuntimeSerializationCommandInfo
Zog:__ZL101ToggleGroup_t1030026315_CustomAttributesCacheGenerator_ToggleGroup_U3CAnyTogglesOnU3Em__0_m1218114300P21CustomAttributesCache
dBf:_IPv6Address_SwapUShort_m1481806078
Asi:_AnimatorControllerPlayable_PlayInFixedTime_m2562520484
P$:__ZN13RuntimeStaticINSt3__23setI19RepeatingLogMessageNS0_4lessIS2_EE13stl_allocatorIS2_L18MemLabelIdentifier70ELi16EEEELb0EE16StaticInitializeEPv
Vc:_emscripten_glVertexAttrib2f
VSb:__ZN15SerializeTraitsIN9ShaderLab20SerializedSubProgram16TextureParameterEE8TransferI14SafeBinaryReadEEvRS2_RT_
wqd:_Byte_System_IConvertible_ToInt16_m1575115635_AdjustorThunk
hwi:_CrossAppDomainData_get_ProcessID_m2865289777
Ot:__ZN11UnityEngine9Animation31SetHumanTransformPropertyValuesERKNS0_21AvatarBindingConstantERKN7mecanim8skeleton13SkeletonPoseTIN4math4trsXEEEbb
Z9g:_UInt16_System_IConvertible_ToUInt16_m1646506872_AdjustorThunk
vxi:_Context_get_HasGlobalDynamicSinks_m3205328884
hbf:_SimpleCollator_CompareQuick_m619038530
xog:__ZL93Selectable_t1490392188_CustomAttributesCacheGenerator_Selectable_get_isPointerDown_m774209881P21CustomAttributesCache
nxf:_SslStreamBase_EndRead_m1072850679
$of:_CertificateSelectionCallback_BeginInvoke_m990408067
IIa:__ZN9GfxDevice22DispatchComputeProgramE12ObjectHandleI18ComputeProgram_TagPvEjjj
od:_SDL_GetTicks
uEe:_Collection_1_System_Collections_IList_Contains_m3345685421_gshared
f_c:__ZN2UI14CanvasRenderer11SyncCullingENS0_8SyncFlagE
Vkj:__ZN15dense_hashtableINSt3__24pairIK10KeyWrapperINS1_IPK11Il2CppImageP11Il2CppClassEEEjEES9_17ReflectionMapHashIS8_EN14dense_hash_mapIS9_jSD_NS9_14EqualsComparerINS0_8equal_toIS8_EEEENS0_9allocatorISB_EEE9SelectKeyESI_SK_E6insertERKSB_
fw:__Z16AppendPathToHashRKN7mecanim5crc32EPKc
U0a:__Z21CreateShadowCullerJobP30CreateUmbraShadowCullerJobData
$Wg:_Material_get_mainTexture_m432794412
CCa:__ZL18ProgramUniform2uivPK7ApiGLESjiihPKv
dYi:_U3CStartU3Ec__Iterator0_System_Collections_Generic_IEnumeratorU3CobjectU3E_get_Current_m1702093362_gshared
k$j:_glUniform4iv__wrapper
UZa:__Z33GenerateShadowCasterPartsSortDataRK16ShadowCasterDatajRK15RenderNodeQueueRKNSt3__26vectorI20ShadowCasterPartData13stl_allocatorIS7_L18MemLabelIdentifier2ELi16EEEERK10Matrix4x4fRjP20ShadowCasterSortData
zsd:_Char_GetTypeCode_m2251277629_AdjustorThunk
Wne:_Enumerator_Dispose_m3109097029_AdjustorThunk
blh:_Dictionary_2_ToTKey_m4209561517_gshared
YSc:_cf2_computeDarkening
IY:__GLOBAL__sub_I_runtime_gfxdevice_lump_cpp
mii:_AsyncOperation_set_priority_m3581020444
HGj:_GC_expand_hp_inner
u8i:__ZNK15dense_hashtableINSt3__24pairIK10KeyWrapperI13dynamic_arrayIPK10Il2CppTypeLj4EEEPFvvEEES8_N6il2cpp8metadata19Il2CppSignatureHashEN14dense_hash_mapIS8_SB_SF_NS8_14EqualsComparerINSE_22Il2CppSignatureCompareEEENS0_9allocatorISC_EEE9SelectKeyESJ_SL_E12test_deletedEj
nc:invoke_viiiififfi
Edc:__Z25Screen_Get_Custom_PropDpiv
FMb:__Z29Transfer_Blittable_ArrayFieldI19StreamedBinaryWriteILb0EEsEvRT_R9ArrayInfoRK23StaticTransferFieldInfo
TTd:_AnimationTriggers_get_disabledTrigger_m2987312382
xSa:__ZN13ComputeShader20GetCompatibleVariantE17GfxDeviceRendereri
yAj:__ZN4utf812find_invalidIPKcEET_S3_S3_
eGf:_X509ExtensionCollection_System_Collections_ICollection_CopyTo_m3421329346
$Fj:_GC_err_printf
WGg:_FieldBuilder_SetValue_m3109503557
b_d:_Graphic_OnBeforeTransformParentChanged_m1866292273
XDf:_X509Certificate2_Verify_m1574874641
Skg:__ZL58PhysicsRaycaster_t249603239_CustomAttributesCacheGeneratorP21CustomAttributesCache
cKc:__ZN20TextRenderingPrivate19NativeTextGenerator23FixLineHorizontalOffsetEiii
iqh:_EqualityComparer_1_System_Collections_IEqualityComparer_GetHashCode_m1473684243_gshared
Iyd:_SortedList_GetEnumerator_m1318483481
Smd:_Array_CreateInstance_m3327690220
JZd:_FontData_UnityEngine_ISerializationCallbackReceiver_OnBeforeSerialize_m2486694676
pw:__ZN7mecanim9animation19DestroyAnimationSetEPNS0_12AnimationSetERNS_6memory9AllocatorE
J_e:_IntPtr__ctor_m2996690883_AdjustorThunk
ZTh:__Z64RuntimeInvoker_Double_t4078015681_Il2CppObject_Int32_t2071877448PK10MethodInfoPvPS2_
_3:__ZN14SerializedFile7ReleaseEv
ELf:__ZL69Il2CppArray_CustomAttributesCacheGenerator_Array_GetValue_m1507415734P21CustomAttributesCache
B9a:__ZN16MemoryFileSystem4OpenER13FileEntryData14FilePermission16FileAutoBehavior
CKe:_Collection_1_Remove_m3355928137_gshared
SQh:__Z52RuntimeInvoker_UInt64_t2909196914_Decimal_t724701077PK10MethodInfoPvPS2_
S8:__ZN13RuntimeStaticI13RendererSceneLb0EE13StaticDestroyEPv
BO:__ZN12AudioManager12CleanupClassEv
dKb:__Z18Transfer_BlittableI24GenerateTypeTreeTransferLb1E12PropertyNameEvRK29SerializationCommandArgumentsR31RuntimeSerializationCommandInfo
Zxb:__ZN14SafeBinaryRead21TransferSTLStyleArrayI10vector_mapIPKN5Unity4TypeE7Hash128NSt3__24lessIS5_EENS7_9allocatorINS7_4pairIS5_S6_EEEEEEEvRT_17TransferMetaFlags
kH:__ZN9AudioClip18GetQueuedAudioDataEPPvj
Qai:__Z59RuntimeInvoker_Void_t1841601450_DictionaryEntry_t3048875398PK10MethodInfoPvPS2_
nmh:_DefaultComparer_GetHashCode_m3439703487_gshared
z6b:__ZNK9Texture2D17CheckHasPixelDataEv
GFc:__ZN15b2ContactSolver13StoreImpulsesEv
AVa:__Z18SetShadowsKeywordsR17ShaderPassContext9LightType10ShadowType16ShadowProjectionbb
Joj:__ZN14dense_hash_mapI10KeyWrapperINSt3__24pairIPK12PropertyInfoP11Il2CppClassEEEj17ReflectionMapHashIS8_ENS9_14EqualsComparerINS1_8equal_toIS8_EEEENS1_9allocatorINS2_IKS9_jEEEEEC2EjRKSB_RKSF_
c2b:__ZN17CollisionMeshDataC2Ev
rCg:_Assembly_GetModule_m2064378601
IUi:_UnityEvent_1_AddListener_m846589010_gshared
MZf:__ZL79Convert_t2607082565_CustomAttributesCacheGenerator_Convert_ToUInt16_m3866680988P21CustomAttributesCache
Tuh:_ScrollRect_SetDirty_m93243192
Fob:__ZN16LightmapSettings23VirtualRedirectTransferER19StreamedBinaryWriteILb0EE
_Gc:__ZN19CollisionListener2DC2Ev
pZg:_MessageTypeSubscribers__ctor_m743474932
$_j:_glTexParameteriv__wrapper
Nqa:__ZN18IDCollectorFunctor18GenerateInstanceIDEi17TransferMetaFlags
$ee:_Array_InternalArray__set_Item_TisTableRange_t2011406615_m2386708730_gshared
_Oh:__Z40RuntimeInvoker_Il2CppObject_Il2CppObjectPK10MethodInfoPvPS2_
FFc:__ZN15b2ContactSolver9WarmStartEv
OUe:_NumberFormatter_ToDecHex_m1474793296
Qab:__ZN14StackAllocatorD0Ev
srj:__ZN6il2cpp2vm6Thread8SetStateEP12Il2CppThreadNS0_11ThreadStateE
I9e:_OperatingSystem_Clone_m1943707477
CZd:_FontData_set_richText_m29558601
g6g:_Scheduler_Change_m4063588742
V9i:__ZN6il2cpp2vm13MetadataCache25GetMethodGenericContainerEPK10MethodInfo
Wge:_Array_Resize_TisVector2_t2243707579_m1117258774_gshared
qS:__ZN11UnityEngine15CloudWebService13WWWRestClientD0Ev
CBh:_InternalEnumerator_1_Dispose_m1640363425_AdjustorThunk
sKi:_HitInfo_SendMessage_m3368777144_AdjustorThunk
h7h:__Z41RuntimeInvoker_SelectionState_t3187567897PK10MethodInfoPvPS2_
G9i:__ZNK15dense_hashtableINSt3__24pairIK10KeyWrapperIPK11Il2CppClassEPKcEES6_N6il2cpp5utils11PointerHashIS3_EEN14dense_hash_mapIS6_S9_SE_NS6_14EqualsComparerINS0_8equal_toIS5_EEEENS0_9allocatorISA_EEE9SelectKeyESJ_SL_E12test_deletedEj
$qa:__ZN17PersistentManager4LockEv
Sfc:__Z22PlayableValidityChecksRK9HPlayableb
Vci:__Z53RuntimeInvoker_RaycastHit_t87180320_Int32_t2071877448PK10MethodInfoPvPS2_
czb:__ZN15ResourceManagerD2Ev
fve:_List_1_Insert_m2532850849_gshared
Hbc:__Z41Register_UnityEngine_Camera_GetAllCamerasv
W3f:__ZL91CullingGroup_t1091689465_CustomAttributesCacheGenerator_CullingGroup_SendEvents_m1292564468P21CustomAttributesCache
gxe:_List_1_Sort_m2659614836_gshared
hng:__ZL154U3CCaretBlinkU3Ec__Iterator0_t906898126_CustomAttributesCacheGenerator_U3CCaretBlinkU3Ec__Iterator0_System_Collections_IEnumerator_get_Current_m2309548992P21CustomAttributesCache
nYg:_Mesh_get_vertices_m626989480
yrh:_MaskableGraphic_OnCanvasHierarchyChanged_m2012659245
uBa:__ZN4crnd12crn_unpacker10unpack_dxnEPPhjjjjjj
Q5c:__ZN28PerformanceReportingSettings8TransferI14SafeBinaryReadEEvRT_
sLh:_DefaultComparer__ctor_m3668042_gshared
iCd:_Double_Parse_m2344589511
Y9h:__Z122RuntimeInvoker_Int32_t2071877448_Il2CppObject_CustomAttributeTypedArgument_t1498197914_Int32_t2071877448_Int32_t2071877448PK10MethodInfoPvPS2_
Isj:__ZN6il2cpp2vm22EmbeddedResourceRecordC2ERKS1_
$Vb:__ZNSt3__26vectorIN9ShaderLab20SerializedSubProgram15VectorParameterENS_9allocatorIS3_EEE21__push_back_slow_pathIKS3_EEvRT_
oUh:__Z109RuntimeInvoker_Void_t1841601450_Int32U26_t455636984_Int32U26_t455636984_Int32U26_t455636984_Int32_t2071877448PK10MethodInfoPvPS2_
mnb:__ZN9Texture2D13AwakeFromLoadE17AwakeFromLoadMode
qcf:_Kernel_SingleByteDivideInPlace_m1760318278
Aaf:_MSCompatUnicodeTableUtil__cctor_m1479836795
WEi:_PositionAssertion__ctor_m3703837499
T4d:_LayoutGroup_get_minWidth_m4111745491
n4e:_StreamWriter_Initialize_m1707678624
Mzj:__ZN6il2cpp2vm3RCW14QueryInterfaceILb0EEEP14Il2CppIUnknownP15Il2CppComObjectRK10Il2CppGuid
Muh:_ScrollRect_set_verticalScrollbar_m2903688658
mVg:_GUIStyle_INTERNAL_CALL_SetMouseTooltip_m1802284884
mka:__ZN6prcoreL17RemapGenericFloatI15TexFormatRFloat18TexFormatARGBFloatEEvPKNS_9InnerInfoE
wfb:__ZNK21AssetBundleFileSystem4SizeERK13FileEntryData
OSf:__ZL50_Thread_t1894135853_CustomAttributesCacheGeneratorP21CustomAttributesCache
uFh:_InternalEnumerator_1_get_Current_m1047712960_gshared
EY:__GLOBAL__sub_I_runtime_camera_renderlayers_lump_cpp
B5c:__ZN11UnityEngine15PlatformWrapper20GetPlayerPrefsUInt64ERKN4core12basic_stringIcNS1_20StringStorageDefaultIcEEEEy
tZa:__ZN20ReflectionProbeCacheC2ER13BatchRendererR15RenderLoopStats
dfa:__ZN7Texture23VirtualRedirectTransferER18StreamedBinaryReadILb0EE
juh:_U3CClickRepeatU3Ec__Iterator0_System_Collections_Generic_IEnumeratorU3CobjectU3E_get_Current_m3444627780
G9:__ZN18AssetBundleManagerC2Ev
PLa:__ZNK12HandlerChain6ExistsERK13FileEntryData
V1f:__ZL61ExtensionAttribute_t1840441203_CustomAttributesCacheGeneratorP21CustomAttributesCache
jXh:__Z88RuntimeInvoker_Boolean_t3825574718_Int16_t4041245914_Int16_t4041245914_Int32_t2071877448PK10MethodInfoPvPS2_
GCd:_Convert_ToInt32_m2734833291
j_a:__Z30FindDirectAttenuationFromProbeP18ForwardLightsBlockbiRK10RenderNodeRK23FindForwardLightsParamsf
cxb:__ZN12InputManager23VirtualRedirectTransferER24GenerateTypeTreeTransfer
JXb:__ZN9Transform23VirtualRedirectTransferER24GenerateTypeTreeTransfer
Una:__Z18GetLODGroupManagerv
$ye:_List_1_Sort_m3574220472_gshared
XVb:__ZNSt3__26vectorIN9ShaderLab20SerializedSubProgram12UAVParameterENS_9allocatorIS3_EEE21__push_back_slow_pathIKS3_EEvRT_
Zei:__Z92RuntimeInvoker_Il2CppObject_CustomAttributeNamedArgument_t94157543_Il2CppObject_Il2CppObjectPK10MethodInfoPvPS2_
$vi:_CrossAppDomainChannel_RegisterCrossAppDomainChannel_m43456045
PFf:_X509ChainElement_Count_m228862214
R7g:_TimeZone_IsDaylightSavingTime_m1840774423
EVc:_UNITY_tt_size_ready_bytecode
LIc:__ZN13TextRendering4FontD2Ev
Wma:__ZN27GenericSlowGarbageCollectorD2Ev
z_h:__Z48RuntimeInvoker_Void_t1841601450_Byte_t3683104436PK10MethodInfoPvPS2_
JLc:_UNITY_FT_Stream_Open
iZc:__GLOBAL__sub_I_runtime_ui_lump_cpp
JKa:__ZN10MemoryFile4ReadEyyPvPy
kua:__ZN13GfxDeviceGLES26UpdateViewProjectionMatrixEv
oni:_DebugLogHandler__ctor_m3134219506
Hsa:__ZNSt3__26vectorIN22BuiltinResourceManager8ResourceENS_9allocatorIS2_EEE21__push_back_slow_pathIKS2_EEvRT_
oBh:_InternalEnumerator_1_System_Collections_IEnumerator_Reset_m1181480250_AdjustorThunk
OF:__ZN4FMOD3DSP12setParameterEif
maa:__ZN13MemoryManager16StaticInitializeEv
IOf:__ZL53StackFrame_t2050294881_CustomAttributesCacheGeneratorP21CustomAttributesCache
tf:___cxa_free_exception
zQe:_ReadOnlyCollection_1_System_Collections_ICollection_CopyTo_m4126742951_gshared
IJ:__ZN4FMOD22FakeModChannelCallbackEPv
zf:_emscripten_glValidateProgram
JRa:__ZN4Mesh10CreateMeshEv
bmj:__ZN6il2cpp2gc19AppendOnlyGCHashMapINSt3__24pairIPK9EventInfoP11Il2CppClassEEP21Il2CppReflectionEvent17ReflectionMapHashIS9_ENS2_8equal_toIS9_EEE3AddERKS9_SB_
GG:__ZN4FMOD7SystemI11createSoundEPKcjP22FMOD_CREATESOUNDEXINFOPPNS_5SoundE
OKi:_Sprite_get_associatedAlphaSplitTexture_m3617241169
xvg:_ArrayFixupRecord_FixupImpl_m2377725358
uTc:_cf2_stack_clear
SJd:_Double_System_IConvertible_ToBoolean_m4251806534_AdjustorThunk
qdf:_BigInteger_op_GreaterThanOrEqual_m1998498565
Teh:_ShimEnumerator_Reset_m2247049027_gshared
Jag:__ZL150AnimatorControllerPlayable_t4078305555_CustomAttributesCacheGenerator_AnimatorControllerPlayable_CrossFadeInFixedTimeInternal_m793606818____fixedTime4P21CustomAttributesCache
NBc:__ZN10ClipperLib11ClipperBase5ClearEv
a3a:__ZN7Texture13SetAnisoLevelEi
gEf:_X509Chain_Process_m2508784250
rIa:__ZN9GfxDevice20GetComputeBufferDataE15ComputeBufferIDPvj
Wze:_List_1_RemoveAt_m2929488689_gshared
dvc:__ZN27PerformanceReportingManager23VirtualRedirectTransferER24GenerateTypeTreeTransfer
r2i:__ZL24UnresolvedVirtualCall_70P12Il2CppObjectS0_S0_iS0_S0_PK10MethodInfo
ANc:_raccess_guess_vfat
T0c:__Z44Canvas_CUSTOM_GetETC1SupportedCanvasMaterialv
JJi:_X509Extension_Decode_m972859652
D8:__ZN33InstancedMeshIntermediateRenderer13StaticDestroyEPv
mYe:_Int16_Parse_m3012618547
PBi:_PatternLinkStack_set_BaseAddress_m781925478
Tuj:__ZN14dense_hash_mapI10KeyWrapperIP14Il2CppIUnknownEjN6il2cpp5utils11PointerHashIS1_EENS3_14EqualsComparerINSt3__28equal_toIS2_EEEENS9_9allocatorINS9_4pairIKS3_jEEEEE13set_empty_keyERSF_
Bzd:_Convert__cctor_m926133987
bjb:__Z21DestroyShadowMapCacheP14ShadowMapCache
bz:__ZN7mecanim9animation25CreateControllerWorkspaceEPKNS0_18ControllerConstantERNS_6memory9AllocatorE
vbe:_Array_InternalArray__IndexOf_TisUInt64_t2909196914_m3958307360_gshared
T_d:_Graphic_RegisterDirtyVerticesCallback_m4169445219
Kkh:_Dictionary_2_get_Count_m3636113691_gshared
hoj:__ZN15dense_hashtableINSt3__24pairIK10KeyWrapperIPK10Il2CppTypeEjEES6_N6il2cpp8metadata14Il2CppTypeHashEN14dense_hash_mapIS6_jSB_NS6_14EqualsComparerINSA_26Il2CppTypeEqualityComparerEEENS0_9allocatorIS8_EEE9SelectKeyESF_SH_E14squash_deletedEv
Ttj:__ZN6il2cpp2vm13LivenessState5ResetEv
CNi:_Transform_get_parent_m147407266
Boc:__ZN9JSONWrite8TransferI11KeyframeTplIfEEEvRT_PKc17TransferMetaFlags
MZh:__Z71RuntimeInvoker_Double_t4078015681_Double_t4078015681_Double_t4078015681PK10MethodInfoPvPS2_
$xh:_Text_get_cachedTextGenerator_m224335893
tie:_Array_swap_TisVector4_t2243707581_m3504221493_gshared
YOg:_GameObject_GetComponent_m306258075
GKh:_InternalEnumerator_1_Dispose_m4229866913_AdjustorThunk
qtg:_ObjRef_get_ChannelInfo_m53840305
yvj:__ZN6il2cpp2vm3RCW23GetOrCreateFromIUnknownEP14Il2CppIUnknownP11Il2CppClass
Psj:__ZN6il2cpp2vm9Exception27RaiseNullReferenceExceptionEv
aJa:__ZN24BuiltinShaderParamValuesC2Ev
spc:__ZL41CreateJSONTransferFunctionScriptingTraitsv
Erd:_Convert_ToInt32_m3683486440
r1e:_FileStream_get_CanWrite_m775322953
l0f:__ZL72PKCS12_t1362584795_CustomAttributesCacheGenerator_U3CU3Ef__switchU24map7P21CustomAttributesCache
u6g:_TimerCallback_BeginInvoke_m2938818726
kOa:__Z23GetLateBehaviourManagerv
yQd:_ExecuteEvents_Execute_m2863348178
B5:__ZN10MemoryPool10DeallocateEPv
GVe:_NumberFormatInfo__ctor_m2752806684
kUd:_CanvasUpdateRegistry_get_instance_m862315367
_Fe:_Collection_1_System_Collections_IList_get_IsReadOnly_m1820916678_gshared
EBi:_PatternCompiler_EmitFastRepeat_m1175707353
Kje:_Array_InternalArray__get_Item_TisKeyValuePair_2_t3716250094_m3120861630_gshared
eNc:_cff_driver_class_pic_free
uYf:__ZL62ApplicationException_t474868623_CustomAttributesCacheGeneratorP21CustomAttributesCache
rLj:__ZNSt3__26__treeINS_12__value_typeIPvxEENS_19__map_value_compareIS2_S3_NS_4lessIS2_EELb1EEENS_9allocatorIS3_EEE16__insert_node_atEPNS_16__tree_node_baseIS2_EERSD_SD_
jy:__ZN17AnimationPlayable22SetStateMachineMessageEN7mecanim12statemachine19StateMachineMessageE
tuc:__ZNK9rapidjson12GenericValueINS_4UTF8IcEE13JSONAllocatorE6AcceptINS_6WriterI16TempBufferWriterS2_S2_S3_EEEEbRT_
kUj:dynCall_vif
skh:_Dictionary_2__ctor_m2849528578_gshared
lUj:dynCall_vid
Ddg:__ZL75Event_t3028476042_CustomAttributesCacheGenerator_Event_get_type_m2426033198P21CustomAttributesCache
Qte:_List_1_System_Collections_IList_get_Item_m3989815218_gshared
nUj:dynCall_vii
YAd:_DateTime__ctor_m3604679583
YPb:__Z18Transfer_BlittableI18StreamedBinaryReadILb0EELb0EdEvRK29SerializationCommandArgumentsR31RuntimeSerializationCommandInfo
VAi:_Enumerator_System_Collections_IEnumerator_MoveNext_m3313126804
Zyi:_AsyncResult_set_CallMessage_m4011807282
EVa:__ZNK17InstancedPropInfo14IsInstanceableERK19ShaderPropertySheet
tif:_PKCS12_Finalize_m107130293
Xbb:__ZN5Unity9Component16CheckConsistencyEv
hUd:_LayoutRebuilder_ValidController_m2595049322
qag:__ZL156AnimatorControllerPlayable_t4078305555_CustomAttributesCacheGenerator_AnimatorControllerPlayable_INTERNAL_CALL_GetAnimatorTransitionInfoInternal_m2259454958P21CustomAttributesCache
sDa:__ZN7ApiGLES11CheckShaderERjb
lng:__ZL138U3CMouseDragOutsideRectU3Ec__Iterator1_t2599668326_CustomAttributesCacheGenerator_U3CMouseDragOutsideRectU3Ec__Iterator1__ctor_m1439320044P21CustomAttributesCache
