Fc:_glClearStencil
Ece:_Array_InternalArray__ICollection_Add_TisMark_t2724874473_m1613484179_gshared
mmg:__ZL80Graphic_t2426225576_CustomAttributesCacheGenerator_Graphic_OnFillVBO_m1723985607P21CustomAttributesCache
zyg:_RuntimeTypeHandle_GetObjectData_m3567098501
cCj:__ZN6il2cpp2vm5Array13GetByteLengthEP11Il2CppArray
Wsh:_Raycast3DCallback_BeginInvoke_m3028685017
GF:__Z102Register_UnityEngine_Experimental_Director_AnimatorControllerPlayable_INTERNAL_CALL_ResetTriggerStringv
JSe:_Comparison_1_Invoke_m353639462_gshared
zbh:_UInt64_System_IConvertible_ToDecimal_m4205696037
i_d:_GraphicRegistry_RegisterGraphicForCanvas_m2284226562
QBa:__Z21SourceMipLevelForBlitiiii
Ukb:__ZN31CanvasBatchIntermediateRenderer15AddAsRenderNodeER15RenderNodeQueueRK20DeprecatedSourceData
Tyd:_Enumerator_get_Key_m2908810861
CD:__ZN23AnimationOffsetPlayable11SetRotationE11Quaternionf
BB:__ZN11UnityEngine9Animation28GenericAnimationBindingCacheD2Ev
zoh:_EqualityComparer_1__cctor_m968537130_gshared
Zoe:_List_1_System_Collections_IList_IndexOf_m39706221_gshared
wBd:_Decimal_op_Implicit_m2971610317
qMi:_TextGenerator_get_lineCount_m4287181941
U_d:_Graphic_UnregisterDirtyVerticesCallback_m1526739224
D3a:__Z18RestoreRenderStateR20CameraRenderOldStateR17ShaderPassContext
yud:_SynchronizedArrayListWrapper_get_Item_m3309425850
oNb:__Z18Transfer_BlittableI18StreamedBinaryReadILb1EELb1E5RectTIfEEvRK29SerializationCommandArgumentsR31RuntimeSerializationCommandInfo
_Jb:__Z18Transfer_BlittableI24GenerateTypeTreeTransferLb0E11ColorRGBA32EvRK29SerializationCommandArgumentsR31RuntimeSerializationCommandInfo
z3:__Z25scripting_class_from_name17ScriptingImagePtrPKcS1_
Loj:__ZN14dense_hash_mapI10KeyWrapperINSt3__24pairIPK12PropertyInfoP11Il2CppClassEEEj17ReflectionMapHashIS8_ENS9_14EqualsComparerINS1_8equal_toIS8_EEEENS1_9allocatorINS2_IKS9_jEEEEE15set_deleted_keyERSH_
PDb:__Z29scripting_class_enum_basetype17ScriptingClassPtr
qZj:_emscripten_glDeleteBuffers__wrapper
WFj:__ZN6il2cpp8metadata26Il2CppTypeEqualityComparer8AreEqualEPK10Il2CppTypeS4_
QHg:_GenericTypeParameterBuilder_GetHashCode_m867619899
E7g:_TimeSpan_ToString_m2947282901
Snh:_EqualityComparer_1__cctor_m3397254040_gshared
RW:__ZNK20LocalFileSystemPosix6ParentERK13FileEntryDataRN4core12basic_stringIcNS3_20StringStorageDefaultIcEEEE
kMi:_TextGenerator_get_verts_m3124035267
LOi:_Vector2_get_one_m3174311904
Nhe:_Array_Sort_TisVector2_t2243707579_m1307634946_gshared
nra:__ZN17PersistentManager22CheckInstanceIDsLoadedEPii
Iza:__ZN7ApiGLES17CopyBufferSubDataEjjlll
Zri:_AnimatorControllerPlayable_IsInTransition_m4064534331
D6i:__ZN15dense_hashtableINSt3__24pairIK10KeyWrapperIPKcEP11Il2CppClassEES5_N6il2cpp5utils11StringUtils12StringHasherIS4_EEN14dense_hash_mapIS5_S8_SE_NS5_14EqualsComparerINSC_21CaseSensitiveComparerEEENS0_9allocatorIS9_EEE9SelectKeyESI_SK_E13set_empty_keyERKS9_
lRi:_U3CCreateWhereIteratorU3Ec__Iterator1D_1_Reset_m1773515612_gshared
vXa:__ZN25CameraStackRenderingState20GetOrCreateBuiltinRTE24BuiltinRenderTextureTypeii17DepthBufferFormat19RenderTextureFormatj22RenderTextureReadWrite14VRTextureUsagei
SQi:_AesManaged_CreateEncryptor_m1729287824
X$a:__ZN17PrePassRenderLoop14RenderBasePassEP13RenderTextureRK14LightingLayersR13dynamic_arrayI16RenderObjectDataLj4EERbR10MinMaxAABB
Crd:_Char_System_IConvertible_ToInt16_m2741348777_AdjustorThunk
fkc:__ZN5IMGUI18RepaintModalWindowER8GUIState
kgb:__ZN21ArchiveStorageCreator10InitializeERKN4core12basic_stringIcNS0_20StringStorageDefaultIcEEEEb
xLe:_ReadOnlyCollection_1_System_Collections_Generic_IListU3CTU3E_set_Item_m1547026160_gshared
aNf:__ZL61MarshalAsAttribute_t2900773360_CustomAttributesCacheGeneratorP21CustomAttributesCache
Qrb:__Z23SetSpriteMeshIndexCountP14SharedMeshDataj
lca:__ZN7Texture13SetFilterModeEi
oac:__Z46Register_UnityEngine_Application_get_isPlayingv
kEj:__ZN6il2cpp8metadata13GenericMethod9GetMethodEPK19Il2CppGenericMethod
Eq:__ZNSt3__26vectorIN4core12basic_stringIcNS1_20StringStorageDefaultIcEEEENS_9allocatorIS5_EEE7reserveEj
RDd:_Convert_ToUInt16_m2130758075
Tkj:__ZN15dense_hashtableINSt3__24pairIK10KeyWrapperINS1_IPK11Il2CppImageP11Il2CppClassEEEjEES9_17ReflectionMapHashIS8_EN14dense_hash_mapIS9_jSD_NS9_14EqualsComparerINS0_8equal_toIS8_EEEENS0_9allocatorISB_EEE9SelectKeyESI_SK_E3endEv
uDf:_X509BasicConstraintsExtension_Encode_m3505127076
bWc:_Round_Up_To_Grid
sua:__ZN13GfxDeviceGLES11SetViewportERK5RectTIiE
H0d:_Image_get_pixelsPerUnit_m4104195799
rzh:_Toggle_InternalToggle_m2323729210
IHd:_Decimal_System_IConvertible_ToInt64_m2504363272
Kmd:_Array_GetValue_m3182152438
Xd:_emscripten_glDepthRange
zAg:_DESTransform_CipherFunct_m3559419566
mch:_UIntPtr_get_Size_m537421489
g9c:_Rijndael_Create_m113171669
pRg:_GUILayoutGroup_CalcWidth_m4107152934
ySb:__Z14resize_trimmedINSt3__26vectorIN9ShaderLab20SerializedSubProgram12UAVParameterENS0_9allocatorIS4_EEEEEvRT_j
Atg:_SerializationInfo_AddValue_m1781549036
irf:_TlsServerKeyExchange_verifySignature_m3641534563
Fxh:_Slider_FindSelectableOnLeft_m3136767885
oBa:__ZN4crndL20crnd_default_reallocEPvjPjbS0_
C9d:_Array_BinarySearch_TisInt32_t2071877448_m51233948_gshared
y6b:__ZN7Texture11SetWrapModeEi
gRj:__ZNSt3__212basic_stringIcNS_11char_traitsIcEENS_9allocatorIcEEEC2ERKS5_
Xtg:_ProviderData_CopyFrom_m431414335
q3g:_UTF32Encoding_GetPreamble_m767706727
lhc:__Z33Texture_CUSTOM_Internal_GetHeightP12Il2CppObject
X4d:_LayoutGroup_get_preferredHeight_m3901163825
WVa:__ZN23ScriptableRenderContextC2Ev
gBd:_DateTime_AbsoluteDays_m3061694073
Bpi:_AnimationClipPlayable_set_speed_m3332297554
IWc:_UNITY_FT_Stream_GetChar
KNb:__Z18Transfer_BlittableI18StreamedBinaryReadILb1EELb1EdEvRK29SerializationCommandArgumentsR31RuntimeSerializationCommandInfo
ieh:_Enumerator_System_Collections_IEnumerator_get_Current_m229223308_gshared
$Db:__Z26BuildSerializationCacheFor17ScriptingClassPtrRb
osi:_AnimatorControllerPlayable_CrossFadeInFixedTimeInternal_m3729673154
Uni:_Event_Init_m3901382626
Zeb:__ZN10FileSystem12MountHandlerEP17FileSystemHandler
hud:_FixedSizeArrayListWrapper_AddRange_m2071800418
TB:__ZN13ProduceHelperI8AnimatorLb0EE7ProduceE18MemLabelIdentifier18ObjectCreationMode
naa:__Z9InitInputv
Mne:_Enumerator_VerifyState_m2358705882_AdjustorThunk
SKb:__Z29Transfer_Blittable_ArrayFieldI24GenerateTypeTreeTransfer11ColorRGBA32EvRT_R9ArrayInfoRK23StaticTransferFieldInfo
Vth:_Selectable_Navigate_m915280351
aab:__ZN16MemoryFileSystem6DeleteER13FileEntryDatab
bPi:_Vector3_get_normalized_m936072361
lpa:__ZL21BlitScaleStbImageImplRK14ImageReferenceRS_NS_10ColorSpaceE
Pxf:_TlsStream_set_Position_m378064217
uEc:__ZNSt3__26__sortIR31RayHitsByInverseDepthComparitorP12RaycastHit2DEEvT0_S5_T_
HGb:__Z29Transfer_Blittable_ArrayFieldI14SafeBinaryReadyEvRT_R9ArrayInfoRK23StaticTransferFieldInfo
rM:__ZN20SoundChannelInstance15setChannelGroupEPN4FMOD12ChannelGroupE
ued:_Evidence_Equals_m2325859915
_Cg:_Default__ctor_m172834064
tc:invoke_vifffii
$Ab:__ZN20ArchiveStorageReader17MakeStorageUnusedEv
fDi:_Regex_IsMatch_m2159202025
DKa:__ZNK25MultiBlocksMemoryFileData5CloneEv
XIj:_GC_add_ext_descriptor
Rug:_RemotingServices_GetMethodBaseFromName_m3271095947
l_h:__Z71RuntimeInvoker_TimeSpan_t3430258949_Double_t4078015681_Int64_t909078037PK10MethodInfoPvPS2_
kTj:dynCall_iiiiiiiiiiii
Rjd:_ASCIIEncoding_GetBytes_m3617160053
mqf:_CipherSuiteCollection_System_Collections_IList_RemoveAt_m143866082
SC:__ZN26AnimatorControllerPlayable26ParameterControlledByCurveEi
KWb:__ZL26KeywordSetToStringDontSortRKNSt3__26vectorIN4core12basic_stringIcNS1_20StringStorageDefaultIcEEEENS_9allocatorIS5_EEEERS5_
F2c:__Z54Register_UnityEngine_Analytics_CustomEventData_AddCharv
wka:__ZN6prcoreL17RemapGenericFloatI16TexFormatRGFloat17TexFormatRGBAHalfEEvPKNS_9InnerInfoE
UG:__ZN12AudioManager22CreateFMODSoundFromWWWEP10IWWWStream15FMOD_SOUND_TYPE17FMOD_SOUND_FORMATjjbbP10SampleClip
w1b:__ZNK32RendererMaterialAnimationBinding15GenerateBindingERKN4core12basic_stringIcNS0_20StringStorageDefaultIcEEEEbRN11UnityEngine9Animation14GenericBindingE
P2:__ZN8Remapper23GetOrGenerateInstanceIDERK26SerializedObjectIdentifier
s4e:_StreamWriter_Flush_m3426120024
Ya:invoke_iiiiiifffiiifii
Y1e:_MemoryStream__ctor_m1489366847
Ped:_SecurityElement_IsValidTag_m64902195
leh:_Enumerator_System_Collections_IEnumerator_get_Current_m229223308_AdjustorThunk
QNg:_PropertyInfo_SetValue_m2961483868
EQg:_GUILayoutEntry_set_style_m70917293
Eue:_List_1_System_Collections_IList_Contains_m4193366963_gshared
sVi:_UnityEvent_3_FindMethod_Impl_m1889846153_gshared
wDg:_ConstructorInfo_Invoke_m2144827141
bsb:__ZN6Sprite8TransferI24GenerateTypeTreeTransferEEvRT_
tic:__Z48Register_UnityEngine_Transform_SetAsFirstSiblingv
NOg:_Font_get_fontSize_m1732593415
dsb:__ZN7SubMesh8TransferI24GenerateTypeTreeTransferEEvRT_
inj:__ZN14dense_hash_mapI10KeyWrapperIPK14Il2CppAssemblyEPK16MonoAssemblyNameN6il2cpp5utils11PointerHashIS2_EENS4_14EqualsComparerINSt3__28equal_toIS3_EEEENSD_9allocatorINSD_4pairIKS4_S7_EEEEE13set_empty_keyERSJ_
UMg:_MonoProperty_get_CanWrite_m2124922514
J9h:__Z112RuntimeInvoker_Int32_t2071877448_Il2CppObject_Int32_t2071877448_Int32_t2071877448_Int32_t2071877448_Il2CppObjectPK10MethodInfoPvPS2_
iQj:_poll
K1e:_Stream_BeginRead_m1985960185
rTg:_GUIStyle_GetFontInternalDuringLoadingThread_m229734483
k$b:__ZN13ProduceHelperI14Texture2DArrayLb0EE7ProduceE18MemLabelIdentifier18ObjectCreationMode
Cnf:_MD4Managed_GG_m1462438360
Jec:__Z46Mesh_CUSTOM_PrintErrorCantAccessMeshForIndicesP12Il2CppObject
Q9b:__ZN9Transform23SetSiblingIndexInternalEib
y$e:_BinaryReader_CheckBuffer_m1059275266
Fua:__ZN13GfxDeviceGLES17DestroySubProgramEPN9ShaderLab10SubProgramE
Fx:__ZN7mecanim5human12HumanPoseSubERNS0_9HumanPoseERKS1_S4_
onf:_MD4_Create_m2582504069
xwj:__ZN6il2cpp8metadata15GenericMetadata15GetGenericClassEiPK17Il2CppGenericInst
npd:_Boolean_System_IConvertible_ToInt16_m977801621
AFb:__Z18Transfer_BlittableI14SafeBinaryReadLb0E10Matrix4x4fEvRK29SerializationCommandArgumentsR31RuntimeSerializationCommandInfo
mOa:__Z24GetFixedBehaviourManagerv
tUa:__ZN12FlareManager9UpdateJobEP25FlareManagerUpdateJobData
kcj:__ZN6il2cpp2vm10ThreadPool4WaitEP17Il2CppAsyncResultPPv
tOj:_vfprintf
Ugi:_Debug_get_logger_m4173808038
gVa:__ZN20DynamicPropertySheetD0Ev
Q7a:__ZN14SafeBinaryRead17RegisterConverterEPKcS1_PFbPvRS_E
mZ:__ZN35RegisterRuntimeInitializeAndCleanup8RegisterEPFvPvES2_iS0_
pqj:__ZNSt3__26vectorIN6il2cpp8metadata18GenericArrayMethodENS_9allocatorIS3_EEE7reserveEj
eRe:_ReadOnlyCollection_1_System_Collections_IList_Clear_m2600246370_gshared
q2h:__Z135RuntimeInvoker_RaycastHit2D_t4063908774_Vector2_t2243707579_Vector2_t2243707579_Single_t2076509932_Int32_t2071877448_Single_t2076509932PK10MethodInfoPvPS2_
Lef:_DSAManaged_NormalizeArray_m2287089393
bKh:_InternalEnumerator_1_System_Collections_IEnumerator_get_Current_m2389982234_AdjustorThunk
qOa:__ZN8Material26ResetAllCachedMaterialDataEP6Shader
TWc:_UNITY_TT_Get_MM_Var
yXi:__ZN6il2cpp6icalls8mscorlib6System7Decimal13decimal2Int64EP19il2cpp_decimal_reprPx
ba:invoke_diddi
PQd:_ExecuteEvents__cctor_m288775360
jYc:__ZNK2UI6Canvas13GetRenderModeEv
lCd:_Double_TryParseStringConstant_m2585405703
_Eb:__Z18Transfer_BlittableI14SafeBinaryReadLb0EiEvRK29SerializationCommandArgumentsR31RuntimeSerializationCommandInfo
_aj:__ZN6il2cpp2vm13MetadataCache30GetPropertyDefinitionFromIndexEi
qti:_ResourceEnumerator__ctor_m1679839941
r9c:_RijndaelTransform_Clear_m1652144089
_ie:_BaseInvokableCall_ThrowOnInvalidArg_TisIl2CppObject_m1349548392_gshared
r5c:__ZN22BaseUnityConnectClient17InitializeSessionERKN4core12basic_stringIcNS0_20StringStorageDefaultIcEEEES6_N19CloudServiceHandler13InitModeFlagsE
b9e:_NumberFormatter_get_IsZero_m1325357749
wLd:_Enum_ToObject_m322320225
vfc:__ZN13MonoBehaviour34StopCoroutineFromEnumeratorManagedE18ScriptingObjectPtr
add:_X509Certificate__ctor_m3860837120
EF:__Z100Register_UnityEngine_Experimental_Director_AnimatorControllerPlayable_INTERNAL_CALL_SetTriggerStringv
TOg:_GameObject_Internal_CreateGameObject_m3428198595
Rji:_Camera_RaycastTry2D_m755036866
$Qe:_ReadOnlyCollection_1_System_Collections_Generic_IListU3CTU3E_set_Item_m3663361643_gshared
fC:__ZN7mecanim9animation14AvatarConstant15InitializeClassEv
lvc:__ZN11UnityEngine9Analytics18SceneLoadTimeEvent12SetSceneLoadERKN4core12basic_stringIcNS2_20StringStorageDefaultIcEEEEiyyyy
zri:_AnimatorControllerPlayable_GetCurrentAnimatorStateInfo_m689786022
DAb:__ZN30RuntimeInitializeOnLoadManager8TransferI18StreamedBinaryReadILb0EEEEvRT_
_Fg:_TypeBuilder_not_supported_m3178173643
YOc:_UNITY_tt_face_load_pclt
CBb:__ZN21ArchiveStorageCreator14StoreDirectoryEv
H8b:__ZL34GetComponentsImplementationRecurseILb1ELi0ELi2EEbR10GameObjectbRK17CompareParametersRK39GetComponentsImplementation_ReturnValue
ZBc:__ZN10ClipperLib7Clipper24InsertLocalMinimaIntoAELEx
FLj:__ZN6il2cpp6icalls8mscorlib6System9Threading5Mutex20CreateMutex_internalEbP12Il2CppStringPb
$uc:__ZNK27PerformanceReportingManager26GetTypeInfoVirtualInternalEv
Qtd:_ArrayListWrapper_Remove_m1105489978
uUa:__ZNK6Camera18WorldToScreenPointERK8Vector3fPb
n1c:__ZN14UnityAnalyticsD0Ev
Mpd:_Boolean_CompareTo_m3691698947_AdjustorThunk
Ixd:_HashKeys_CopyTo_m3566668422
Krd:_Convert_ToSByte_m2665932200
c2:__ZNSt3__227__insertion_sort_incompleteIRPFbRKN18AwakeFromLoadQueue4ItemES4_EPS2_EEbT0_S9_T_
XHi:_PKCS12_Encrypt_m2154408631
VEg:_ILGenerator_label_fixup_m1325994348
_rh:_Navigation_Equals_m4214630671_AdjustorThunk
lOe:_ReadOnlyCollection_1_System_Collections_Generic_IListU3CTU3E_set_Item_m257196015_gshared
gKg:_FieldInfo_GetPseudoCustomAttributes_m2500972355
bpb:__ZN26EnlightenSystemInformation8TransferI14SafeBinaryReadEEvRT_
Mje:_Array_InternalArray__get_Item_TisLink_t2723257478_m2281261655_gshared
kvb:__ZN12MeshRendererD0Ev
Jwd:_Hashtable__ctor_m2702360557
Gh:_utime
amf:_PrimalityTest_Invoke_m4058801829
Fug:_RemotingConfiguration_SetCustomErrorsMode_m1844153208
zn:FUNCTION_TABLE_viiiiii
V9h:__Z84RuntimeInvoker_Int32_t2071877448_Il2CppObject_CustomAttributeNamedArgument_t94157543PK10MethodInfoPvPS2_
SNd:_CultureInfo_GetFormat_m3560116485
SA:__ZN7mecanim9animation22DestroyAvatarWorkspaceEPNS0_15AvatarWorkspaceERNS_6memory9AllocatorE
bKi:_ScriptableObject_CreateInstance_m3271154163
SGf:_FactoryCache__ctor_m254400436
HDi:_AnchorInfo_get_IsPosition_m3791659233
lbe:_Array_InternalArray__IndexOf_TisResourceCacheItem_t333236149_m761772858_gshared
akc:__ZNSt3__210__list_impIN10GUIManager12SortedScriptE11memory_poolIS2_EE5clearEv
nmb:__ZN14PlayableOutput17SetSourcePlayableEP8Playable
$ug:_TrackingServices__cctor_m3639412334
Imc:__Z32GUIStyle_Set_Custom_PropRichTextP12Il2CppObjecth
Hu:__ZN7mecanim9animation29MotionOutputGetDeltaTransformEPKNS0_12MotionOutputE
gZb:__Z13RegisterClassI16GraphicsSettingsEvv
LVi:_GameManager_Start_m2655388892
kvc:__ZN27PerformanceReportingManager21OnSceneTimingCallbackERK15SceneLoadTimingRKN4core12basic_stringIcNS3_20StringStorageDefaultIcEEEE
CC:__ZN8Animator14OnAddComponentEPN5Unity9ComponentE
JAe:_List_1_CheckMatch_m1184924052_gshared
Ohc:__Z43Transform_CUSTOM_INTERNAL_get_localRotationP12Il2CppObjectP11Quaternionf
wXj:_glGetShaderInfoLog__wrapper
hi:_emscripten_glGetTexParameteriv
xof:_RSAManaged_ImportParameters_m3060955884
Lvi:_ChannelData_CopyFrom_m4049054607
mZb:__Z13RegisterClassI4MeshEvv
rae:_Array_FindLastIndex_TisIl2CppObject_m869210470_gshared
Tlb:__ZN8PlayableD0Ev
jI:__ZN12AudioManager8TransferI19StreamedBinaryWriteILb0EEEEvRT_
p2e:_WriteDelegate_Invoke_m2103848735
zOb:__ZN18StreamedBinaryReadILb1EE21TransferSTLStyleArrayI13dynamic_arrayI11ColorRGBA32Lj4EEEEvRT_17TransferMetaFlags
kQi:_Locale_GetText_m512920887
mPb:__Z18Transfer_BlittableI18StreamedBinaryReadILb0EELb0E8Vector2fEvRK29SerializationCommandArgumentsR31RuntimeSerializationCommandInfo
nug:_RemotingConfiguration_get_ProcessId_m3870172209
rWe:_SortKey_ToString_m2406913228
hX:__ZN22LocalFileSystemHandler9MakeLocalER13FileEntryDatab
pFj:__ZN6il2cpp2vm8Profiler10AllocationEP12Il2CppObjectP11Il2CppClass
rBd:_Convert_ToDateTime_m1020507389
QLc:__ZNSt3__23mapIN20TextRenderingPrivate7FontRefENS1_6OSFontENS_4lessIS2_EENS_9allocatorINS_4pairIKS2_S3_EEEEEixERS8_
k0e:_Path_IsPathRooted_m1347207448
lwg:_ObjectManager_RegisterObjectInternal_m879109503
U5d:_Array_get_swapper_TisVector4_t2243707581_m97441823_gshared
pra:__ZNSt3__26__sortIRNS_4lessIiEEPiEEvT0_S5_T_
ZIc:__ZN14SafeBinaryRead21TransferSTLStyleArrayI10vector_mapINSt3__24pairIttEEfN20TextRenderingPrivate8FontImpl14KerningCompareENS2_9allocatorINS3_IS4_fEEEEEEEvRT_17TransferMetaFlags
JZb:__Z13RegisterClassI15QualitySettingsEvv
BEj:__ZN6il2cpp2vm6String21InitializeEmptyStringEP11Il2CppClass
M$a:__ZN25DeferredRenderLoopScratchD0Ev
Ly:__ZN27AnimationLayerMixerPlayable14SetInputWeightEif
Bx:__ZN7mecanim9animation17EvaluateHumanPoseERKNS0_18ClipMuscleConstantERKNS0_15ClipMuscleInputEPKfRKNS0_12MotionOutputERNS_5human9HumanPoseE
bHc:__ZN14dense_hash_mapINSt3__24pairIPK10Collider2DS4_EE11Collision2DNS2_23ColliderPairHashFunctorENS0_8equal_toIS5_EE13stl_allocatorINS1_IKS5_S6_EEL18MemLabelIdentifier65ELi16EEE15set_deleted_keyERSB_
lSb:__ZN15dense_hashtableINSt3__24pairIKiN4core17string_with_labelILi1EEEEEi18SInt32HashFunctionN14dense_hash_mapIiS5_S7_NS0_8equal_toIiEE13stl_allocatorIS6_L18MemLabelIdentifier1ELi16EEE9SelectKeyESA_SD_E9copy_fromERKSG_j
Aea:__ZN6Camera11ResetAspectEv
wDf:_X509BasicConstraintsExtension_get_HasPathLengthConstraint_m3788532759
Rkb:__ZNK17InstancedPropInfo22FillInstancePropertiesER19ShaderPropertySheetjPK17BatchInstanceDatajRK15RenderNodeQueue
Zfa:__ZN22CreateGpuProgramOutputD2Ev
Auj:__ZN6il2cpp6icalls8mscorlib6System2IO6MonoIO9SetLengthE12Il2CppIntPtrxPi
xMj:__ZN6il2cpp8metadata22Il2CppSignatureCompare6EqualsERK13dynamic_arrayIPK10Il2CppTypeLj4EES8_
zO:__ZN13ProduceHelperI13AudioListenerLb0EE7ProduceE18MemLabelIdentifier18ObjectCreationMode
wTe:_DateTimeFormatInfo_GetInstance_m3133223810
ulf:_ModulusRing_BarrettReduction_m2802101099
eLa:__ZN12HandlerChain4OpenER13FileEntryData14FilePermission16FileAutoBehavior
tvc:__ZN27PerformanceReportingManager29OnSceneLoadedAfterAwakeStaticEPS_iR18AwakeFromLoadQueueN19RuntimeSceneManager11LoadingModeE
Q4:__ZN14FileCacherReadD2Ev
uqa:__ZN13RendererScene23UpdatePreviousFrameDataEii
Wad:_RSAPKCS1SignatureDeformatter_VerifySignature_m1825067195
q3i:__ZL25UnresolvedVirtualCall_123P12Il2CppObjectffPK10MethodInfo
dcc:__Z50Register_UnityEngine_CullingGroup_FinalizerFailurev
dme:_KeyValuePair_2_ToString_m2613351884_gshared
_ib:__ZN6Camera15ThreadedCleanupEv
slg:__ZL69ColorBlock_t2652774230_CustomAttributesCacheGenerator_m_DisabledColorP21CustomAttributesCache
ath:_Scrollbar__ctor_m2244981801
wuj:__ZN6il2cpp6icalls8mscorlib6System2IO6MonoIO9GetLengthE12Il2CppIntPtrPi
zbd:_SHA256Managed_HashCore_m4111458495
INd:_CultureInfo_get_CompareInfo_m3085280862
MNf:__ZL55Dictionary_2_t2276497324_CustomAttributesCacheGeneratorP21CustomAttributesCache
mxg:_ObjectManager_RecordDelayedFixup_m1895730844
ind:_ArrayTypeMismatchException__ctor_m1898555879
jG:__ZN9AudioClip23VirtualRedirectTransferER18StreamedBinaryReadILb0EE
Orf:_ClientSessionInfo_CheckDisposed_m1394638186
ozg:_SByte_Parse_m2544167007
Ggd:_Single_CompareTo_m2081476257
_4h:__Z61RuntimeInvoker_Boolean_t3825574718_Int32_t2071877448_IntPtr_tPK10MethodInfoPvPS2_
rdb:__ZN24GenerateTypeTreeTransfer8TransferIN11AssetBundle9AssetInfoEEEvRT_PKc17TransferMetaFlags
_bf:_BigInteger__ctor_m2945783161
ytf:_TlsClientHello_Update_m1723542631
wXe:_IndexOutOfRangeException__ctor_m3497760912
Gj:_glCopyTexSubImage2D
dQa:_UNITY_png_write_zTXt
cW:__ZN18ScreenManagerWebGL13SetShowCursorEb
mFj:__ZN6il2cpp6icalls8mscorlib6System7Convert24InternalFromBase64StringEP12Il2CppStringb
ANa:__ZZ23InitPlayerLoopCallbacksvEN37EarlyUpdateProcessMouseInWindowstruct7ForwardEv
Pyh:_Text_get_preferredWidth_m3352156860
T_c:__ZN2UI13CanvasManager14GetRenderOrderEPKNS_6CanvasE
yFb:__Z18Transfer_BlittableI14SafeBinaryReadLb0E5RectTIfEEvRK29SerializationCommandArgumentsR31RuntimeSerializationCommandInfo
pPe:_ReadOnlyCollection_1_System_Collections_Generic_IListU3CTU3E_RemoveAt_m878653284_gshared
CTe:_DateTimeFormatInfo_GetFormat_m3676195179
fAa:__ZN14GfxContextGLES14GetFramebufferEv
HZj:_emscripten_glGenVertexArrays__wrapper
lja:__ZN6prcoreL21CreateRemapAnyBlitterE13TextureFormatS0_
f7b:__ZN17AnimationCurveTplIfE16StripInvalidKeysEv
fce:_Array_InternalArray__ICollection_Add_TisKeyValuePair_2_t3716250094_m2381539361_gshared
jjf:_X509Extension_WriteLine_m2850991173
LZc:__ZNK2UI6Canvas17GetSortingLayerIDEv
sEc:__ZN14Raycast2DQuery8RunQueryEb
s3b:__Z13RegisterClassI17GlobalGameManagerEvv
o7d:_Array_InternalArray__ICollection_Remove_TisInt64_t909078037_m2653583130_gshared
E4g:_Thread_get_ExecutionContext_m922067206
n4b:__ZN14PlayableOutput6HandleEv
mKj:__ZN6il2cpp5utils10MemoryPool9AddRegionEj
un:FUNCTION_TABLE_iiiiiiiiiiiiii
OPc:_UNITY_tt_get_cmap_info
I5a:__ZN16ReflectionProbes8ScheduleEN18ReflectionProbeJob7JobTypeEP15ReflectionProbei
EIe:_Collection_1_IsFixedSize_m3675221982_gshared
J5:__ZN16MessageForwarder13HandleMessageEPviR11MessageData
Poe:_Enumerator_MoveNext_m3293920409_AdjustorThunk
xX:__Z18IsDirectoryCreatedRKN4core12basic_stringIcNS_20StringStorageDefaultIcEEEE
rMh:_Comparer_1__cctor_m3112251759_gshared
GCf:_X509KeyUsageExtension_ToString_m1992050580
vLc:_UNITY_FT_GlyphLoader_Done
uvi:_ConstructionCall__ctor_m1143766850
uVg:_GUIStyleState_Init_m2434147050
sMh:_Comparer_1_System_Collections_IComparer_Compare_m3203078743_gshared
xwg:_ObjectReader_ReadArrayOfString_m3752210963
_Ec:__ZN19OverlapPointQuery2D14InitializeAABBER6b2AABB
CQc:_tt_cmap14_char_var_index
m_h:__Z77RuntimeInvoker_TimeSpan_t3430258949_TimeSpan_t3430258949_TimeSpan_t3430258949PK10MethodInfoPvPS2_
$Rc:_psh_globals_new
d2e:_FileStream_Seek_m950719389
DBd:_Decimal_stripStyles_m294582157
x4g:_UTF8Decoder_GetChars_m3819660582
Nta:__ZN9GfxDevice20SetMaxBufferedFramesEi
ive:_List_1_RemoveAll_m4125997475_gshared
aAc:__ZN10Collider2D19WakeAllBodyContactsEv
BTj:dynCall_vdd
o_c:__ZN2UIL17UnloadAllCanvasesEv
j9a:__Z23ConvertIntegerToTypePtrIsEbPvR14SafeBinaryRead
Wxc:__ZN12b2MouseJoint11ShiftOriginERK6b2Vec2
lud:_FixedSizeArrayListWrapper_Remove_m1359458911
tja:__ZN6prcoreL29inner_stretch_rgb565_bilinearEPKNS_9InnerInfoE
oFi:_Uri__ctor_m3927533881
mPd:_EventSystem_get_current_m319019811
byh:_Text_get_mainTexture_m813502234
U_a:__ZNK14RenderSettings19GetFlatAmbientColorEv
E5a:__ZN6prcoreL10inner_flipILj4EEEvPhS1_j
lyb:__ZN18StreamedBinaryReadILb0EE21TransferSTLStyleArrayI10vector_mapIPKN5Unity4TypeE7Hash128NSt3__24lessIS6_EENS8_9allocatorINS8_4pairIS6_S7_EEEEEEEvRT_17TransferMetaFlags
Yu:__ZNK27StateMachineBehaviourPlayer15IsSenderEnabledEv
fgi:_CustomEventData_Add_m1028036439
oNh:_Enumerator_VerifyState_m2118679243_gshared
r1d:_InputField_get_shouldHideMobileInput_m3694613599
nic:__Z40Register_UnityEngine_Transform_SetParentv
Iii:_AudioConfigurationChangeHandler_Invoke_m635374412
Tsb:__ZN14Texture2DArray17UploadToGfxDeviceEv
LOe:_ReadOnlyCollection_1_System_Collections_Generic_IListU3CTU3E_Insert_m4216310986_gshared
VKe:_ReadOnlyCollection_1_System_Collections_Generic_IListU3CTU3E_set_Item_m1532495847_gshared
WJ:__Z14FMODMemoryFreePvjPKc
cfb:__ZN15dense_hashtableINSt3__24pairIKN4core12basic_stringIcNS2_20StringStorageDefaultIcEEEES6_EES6_20StringHash32FunctionIS6_EN14dense_hash_mapIS6_S6_SA_NS0_8equal_toIS6_EE13stl_allocatorIS8_L18MemLabelIdentifier54ELi16EEE9SelectKeyESD_SG_EC2ERKSJ_j
U0d:_Image_AddQuad_m1600600902
sTc:_cf2_glyphpath_moveTo
qGd:_DateTimeOffset__ctor_m1796624924
sRg:_GUILayoutUtility_get_spaceStyle_m1918520192
jPd:_BaseRaycaster_OnDisable_m1716508791
e7d:_Array_InternalArray__ICollection_Remove_TisKeyValuePair_2_t3716250094_m2566517826_gshared
ykc:__ZN5IMGUI14GUIWindowStateD2Ev
dJj:_GC_is_heap_ptr
isj:__GLOBAL__sub_I_Assembly_cpp
Wt:__ZN7mecanim5human10RetargetToEPKNS0_5HumanEPKNS0_9HumanPoseES6_RKN4math4trsXEPS4_PNS_8skeleton13SkeletonPoseTIS8_EESF_
Yx:__ZN7mecanim9animation8SeekClipERKNS0_12StreamedClipERNS0_18StreamedClipMemoryEf
km:_emscripten_glIsTexture
xXg:_Mathf_Clamp_m3542052159
Ttd:_ArrayListWrapper_CopyTo_m793444109
Rk:_emscripten_glHint
GWc:_ft_var_readpackeddeltas
JFd:_DateTime_AddMilliseconds_m1813199744_AdjustorThunk
CJg:_TypeBuilder_IsValueTypeImpl_m1499671481
WFf:_X509ChainStatus_t4278378721_marshal_pinvoke
nof:_RSAManaged__ctor_m1680944437
nm:_SDL_UpperBlit
yUg:_GUIStyle_op_Implicit_m781448948
z$a:__Z35GetTextureDecodeValuesWithIntensity16TextureUsageMode17TextureColorSpace10ColorSpacef
Wqd:_Byte_GetHashCode_m2885528842_AdjustorThunk
Eoj:__ZN15dense_hashtableINSt3__24pairIK10KeyWrapperINS1_IPK9EventInfoP11Il2CppClassEEEjEES9_17ReflectionMapHashIS8_EN14dense_hash_mapIS9_jSD_NS9_14EqualsComparerINS0_8equal_toIS8_EEEENS0_9allocatorISB_EEE9SelectKeyESI_SK_E15set_deleted_keyERKSB_
Dih:_Dictionary_2_OnDeserialization_m2092139626_gshared
Rxc:__ZNK12b2MouseJoint10GetAnchorAEv
Vxj:__ZNK6il2cpp2os6Socket12GetLastErrorEv
rDb:__ZN14SafeBinaryRead20OverrideRootTypeNameEPKc
U4:__ZN14FileCacherRead16UnlockCacheBlockEj
nif:_X509Certificate_GetUnsignedBigInteger_m3491353542
lJc:__ZNSt3__26vectorIN4core12basic_stringIcNS1_20StringStorageDefaultIcEEEE13stl_allocatorIS5_L18MemLabelIdentifier34ELi16EEE6assignINS_11__wrap_iterIPS5_EEEENS_9enable_ifIXaasr21__is_forward_iteratorIT_EE5valuesr16is_constructibleIS5_NS_15iterator_traitsISF_E9referenceEEE5valueEvE4typeESF_SF_
a2a:__ZN6Camera6RenderER11CullResultsR17ShaderPassContextPK21CameraRenderingParamsNS_10RenderFlagE
Rc:_emscripten_glUniform1f
wYb:__ZN13dynamic_arrayIS_I8Vector2fLj4EELj4EE18resize_initializedEjRKS1_12ResizePolicy
Nwf:_SslStreamBase_get_MightNeedHandshake_m3432170694
WLc:__Z20ParseImageParametersR11UTF16StringRiRN20TextRenderingPrivate16TextFormatChangeE
Wc:_emscripten_glUniform1i
iDb:__ZN13MonoBehaviour9CallAwakeEv
zRg:__Z14bankers_roundff
HTb:__ZN9ShaderLab16SerializedTagMapaSERKS0_
cR:__ZN11UnityEngine15CloudWebService16SessionContainer20RestoreSessionHeaderERKN4core12basic_stringIcNS2_20StringStorageDefaultIcEEEES8_RNS0_13SessionHeaderE
eGd:_DateTime_ToString_m1117481977
IHg:_GenericTypeParameterBuilder_GetGenericArguments_m277381309
GA:__ZN11UnityEngine9Animation27CreateAvatarBindingConstantER9TransformPKN7mecanim9animation14AvatarConstantERNS3_6memory9AllocatorE
aAb:__ZN14SafeBinaryRead21TransferSTLStyleArrayINSt3__26vectorIN30RuntimeInitializeOnLoadManager9ClassInfoE13stl_allocatorIS4_L18MemLabelIdentifier12ELi16EEEEEEvRT_17TransferMetaFlags
Xch:_UnitySerializationHolder_GetObjectData_m2280028722
bBi:_PatternCompiler_EmitFalse_m1188949782
xbh:_UInt64_System_IConvertible_ToDateTime_m2412118561
t9b:__ZN9BlobWriteC2ER13dynamic_arrayIhLj16EE24TransferInstructionFlags19BuildTargetPlatform
n3:__ZN14MessageHandler3GetEv
RSg:_GUISkin_set_verticalScrollbarThumb_m2647835739
GAa:__ZN10DynamicVBO9DrawChunkERK21DynamicVBOChunkHandle17ShaderChannelMaskS3_P17VertexDeclarationPKNS_10DrawParamsEi
id:_emscripten_glAttachShader
CNe:_ReadOnlyCollection_1__ctor_m1539890895_gshared
Mta:__ZN9GfxDevice13SetActiveTierE12GraphicsTier
zne:_Enumerator_System_Collections_IEnumerator_get_Current_m3079057684_AdjustorThunk
Uwb:__ZNSt3__26vectorIN4core12basic_stringIcNS1_20StringStorageDefaultIcEEEENS_9allocatorIS5_EEE6assignIPS5_EENS_9enable_ifIXaasr21__is_forward_iteratorIT_EE5valuesr16is_constructibleIS5_NS_15iterator_traitsISC_E9referenceEEE5valueEvE4typeESC_SC_
dff:_KeyPairPersistence_get_UserPath_m3433052783
mKf:__ZL58Decimal_t724701077_CustomAttributesCacheGenerator_MinusOneP21CustomAttributesCache
kFb:__Z18Transfer_BlittableI14SafeBinaryReadLb0E11QuaternionfEvRK29SerializationCommandArgumentsR31RuntimeSerializationCommandInfo
kAc:__ZN13BoxCollider2D16CheckConsistencyEv
LPb:__Z18Transfer_BlittableI18StreamedBinaryReadILb0EELb1E12PropertyNameEvRK29SerializationCommandArgumentsR31RuntimeSerializationCommandInfo
pV:_tlsf_walk_heap
Nhf:_PKCS12_Decode_m731190390
cHh:_InternalEnumerator_1_get_Current_m1550231132_gshared
idh:_Version_CheckedSet_m76493673
mb:invoke_vif
nb:invoke_vid
xRj:__ZNSt3__212basic_stringIcNS_11char_traitsIcEENS_9allocatorIcEEE6insertEjPKc
PWf:__ZL67UnverifiableCodeAttribute_t765455733_CustomAttributesCacheGeneratorP21CustomAttributesCache
pb:invoke_vii
uNi:_Transform_get_localRotation_m4001487205
hbb:__ZN12TLSAllocatorI14StackAllocatorE16ThreadInitializeEP13BaseAllocator
ptd:_ArrayList_Sort_m2778059513
L$d:_LayoutGroup_SetChildAlongAxis_m2732017156
K$c:__Z41CanvasRenderer_CUSTOM_DisableRectClippingP12Il2CppObject
enf:_MD2_Create_m539024737
TKa:__ZN25SingleBlockMemoryFileDataD0Ev
jdb:__ZNSt3__26vectorI14ConstantStringNS_9allocatorIS1_EEE6assignINS_11__wrap_iterIPS1_EEEENS_9enable_ifIXaasr21__is_forward_iteratorIT_EE5valuesr16is_constructibleIS1_NS_15iterator_traitsISA_E9referenceEEE5valueEvE4typeESA_SA_
ZQ:__ZN11UnityEngine15CloudWebService16SessionContainer21ConvertFromFolderTimeERKN4core12basic_stringIcNS2_20StringStorageDefaultIcEEEEPjPt
zGb:__ZNSt3__26vectorI8GUIStyle13stl_allocatorIS1_L18MemLabelIdentifier1ELi16EEE7reserveEj
esj:__ZN6il2cpp6icalls8mscorlib6System9Threading6Thread27GetSerializedCurrentCultureEP12Il2CppThread
ube:_Array_InternalArray__IndexOf_TisUInt32_t2149682021_m3231515987_gshared
d$b:__Z31CalculateHierarchyTransformType23TransformAccessReadOnly
r8i:__ZN15dense_hashtableINSt3__24pairIK10KeyWrapperI13dynamic_arrayIPK10Il2CppTypeLj4EEEPFvvEEES8_N6il2cpp8metadata19Il2CppSignatureHashEN14dense_hash_mapIS8_SB_SF_NS8_14EqualsComparerINSE_22Il2CppSignatureCompareEEENS0_9allocatorISC_EEE9SelectKeyESJ_SL_E12resize_deltaEjj
CZb:__Z13RegisterClassI11TimeManagerEvv
MJ:__ZN4FMOD8ChannelI11setPositionEjj
rmi:_Component_SendMessage_m913946877
j9:__ZN17BaseObjectManager13StaticDestroyEPv
HLi:_TextGenerationSettings_CompareVector2_m592645251
TGd:_DBNull_System_IConvertible_ToChar_m3344298044
_if:_X509Certificate_GetObjectData_m3888130484
Ezb:__ZNSt3__26vectorIN15ResourceManager10DependencyE13stl_allocatorIS2_L18MemLabelIdentifier51ELi16EEEC2INS_11__wrap_iterIPS2_EEEET_SB_RKS5_PNS_9enable_ifIXaasr21__is_forward_iteratorISB_EE5valuesr16is_constructibleIS2_NS_15iterator_traitsISB_E9referenceEEE5valueEvE4typeE
qAi:_LinkStack_Push_m2660199875
GI:__ZN4FMOD6Reverb13setPropertiesEPK22FMOD_REVERB_PROPERTIES
Cfi:_CustomEventData_AddChar_m1103619816
QVa:__ZN9DepthPass13PrepareSubsetEjRK10RenderNodeifRK17ShaderReplaceData
lWg:_Input_get_compositionString_m636835668
wHi:_X509CertificateCollection_Add_m4008705157
U5b:__Z35SetMeshComponentFromArrayFromScriptR4Mesh30InternalScriptingShaderChannel34InternalScriptingVertexChannelTypei17ScriptingArrayPtri
x7b:__Z18ExtractTagThrowingR11ICallString
MFe:_Collection_1_IsFixedSize_m1816795498_gshared
HNa:__ZZ23InitPlayerLoopCallbacksvEN40EarlyUpdatePlayerCleanupCachedDatastruct7ForwardEv
xq:__ZN4core20StringStorageDefaultIcE6assignEPKcj
eSg:_GUIStyleState_GetBackgroundInternal_m439046630
xxj:__ZN15dense_hashtableINSt3__24pairIK10KeyWrapperIP12Il2CppObjectEN6il2cpp2gc9CachedCCWEEES5_NS7_5utils11PointerHashIS3_EEN14dense_hash_mapIS5_S9_SD_NS5_14EqualsComparerINS0_8equal_toIS4_EEEENS0_9allocatorISA_EEE9SelectKeyESI_SK_E3endEv
dAb:__Z14resize_trimmedINSt3__26vectorIi13stl_allocatorIiL18MemLabelIdentifier12ELi16EEEEEvRT_j
sSd:_MouseButtonEventData_ReleasedThisFrame_m482758300
wpj:__ZN15dense_hashtableINSt3__24pairIK10KeyWrapperINS1_IP11Il2CppClassjEEES4_EES6_N6il2cpp8metadata14ArrayClassHashEN14dense_hash_mapIS6_S4_SB_NS6_14EqualsComparerINSA_17ArrayClassCompareEEENS0_9allocatorIS8_EEE9SelectKeyESF_SH_E9copy_fromERKSK_j
qud:_ReadOnlyArrayListWrapper_set_Item_m2199017141
r3a:__ZN6Camera6SetFarEf
rHi:_DeriveBytes_DeriveIV_m3343375195
tNc:_UNITY_FT_Init_Class_ft_bitmap_glyph_class
had:_RNGCryptoServiceProvider_GetBytes_m167497991
_ja:__ZN6prcoreL12RemapGenericI17TexFormatABGR888817TexFormatARGB8888EEvPKNS_9InnerInfoE
Zgb:__ZN11GameManager17MainThreadCleanupEv
hqi:_AnimatorControllerPlayable_INTERNAL_CALL_GetAnimatorControllerInternal_m239716681
Ddj:__ZN6il2cpp6icalls8mscorlib6System18CollectTypeMethodsINS_5utils10functional6FilterINSt3__212basic_stringIcNS7_11char_traitsIcEENS7_9allocatorIcEEEENS4_11StringUtils23CaseInsensitiveComparerEEEEEvP11Il2CppClassPKSH_jRKT_RNS7_6vectorIPK10MethodInfoNSB_ISR_EEEERA65535_b
IFg:_TypeBuilder_get_Assembly_m492491492
tVc:_UNITY_tt_slot_init
U7c:_HMACSHA512__cctor_m1167457383
YQb:__Z25scripting_array_class_get17ScriptingClassPtrj
zqc:__ZL22Transfer_ManagedObjectI9JSONWriteLb1EEvRK29SerializationCommandArgumentsR31RuntimeSerializationCommandInfo
gva:__ZN9GfxDevice20DestroyRenderSurfaceER12ObjectHandleI17RenderSurface_TagP17RenderSurfaceBaseE
E$b:__ZL24PrepareSpriteRenderNodesILb1EEvR35RenderNodeQueuePrepareThreadContext
HIa:__ZN9GfxDevice22UpdateComputeResourcesEjPK9TextureIDPK16TextureDimensionPKijPKjjPK15ComputeBufferIDS7_PK20ComputeBufferCounterjSC_S2_S5_S9_SF_
a3b:__ZN12_GLOBAL__N_15qAsinEff
yie:_Dictionary_2_Do_ICollectionCopyTo_TisKeyValuePair_2_t3749587448_m2536766696_gshared
ibb:__ZN12TLSAllocatorI14StackAllocatorE13ThreadCleanupEv
cFj:__ZThn4_N6il2cpp2vm13ComObjectBase16MarshalInterfaceEP13Il2CppIStreamRK10Il2CppGuidPvjS7_j
Mtb:__ZN4Mesh27SwizzleVertexColorsIfNeededEb
Qbb:__Z27FindActiveTransformWithPathPKc
wki:_CanvasGroup_get_alpha_m1304564441
iii:_AsyncOperation_Finalize_m67522446
g_h:__Z56RuntimeInvoker_TimeSpan_t3430258949_TimeSpan_t3430258949PK10MethodInfoPvPS2_
jPa:_UNITY_png_write_info
WXa:__ZNK6Camera7GetNearEv
Pza:__ZN7ApiGLES11UnmapBufferEjN2gl12BufferTargetE
RAj:__ZN6il2cpp5utilsL24Utf32CharToSurrogatePairEjRA2_Ds
Vnb:__Z25GetNextAllowedTextureSizeib13TextureFormat
eX:__ZN20LocalFileSystemWebGL4CopyER13FileEntryDataS1_
bwe:_List_1_CheckIndex_m4231572822_gshared
ZS:__ZN19CloudServiceHandler6RetainEv
Wed:_StrongName_Equals_m67226644
jib:__ZN12BaseRenderer20FlattenToRenderQueueER15RenderNodeQueueRK20DeprecatedSourceData
P5e:_UnmanagedMemoryStream_get_Length_m587008850
Ema:__Z34scripting_liveness_calculation_endPv
lDj:__ZN6il2cpp2os6ThreadC2Ev
Lfd:_SecurityFrame_InitFromRuntimeFrame_m45195821
KEf:_X509Chain_IsSignedWith_m292245392
j7d:_Array_InternalArray__ICollection_Remove_TisDateTime_t693205669_m1275668216_gshared
GNe:_ReadOnlyCollection_1_System_Collections_Generic_ICollectionU3CTU3E_Remove_m3751131234_gshared
Trc:__Z18Transfer_BlittableI8JSONReadLb0E8Vector3fEvRK29SerializationCommandArgumentsR31RuntimeSerializationCommandInfo
Pvi:_ChannelServices__cctor_m3534779830
Zqj:__ZN6il2cpp2vm6Thread6DetachEP12Il2CppThread
jRc:_Render_Single_Pass
vCd:_Convert_ToInt16_m416789348
Nkd:_EncoderExceptionFallback_Equals_m762170768
mqh:_EqualityComparer_1__cctor_m2666196678_gshared
cQg:_GUIStyle_Init_m3872198731
MA:__ZN7mecanim8skeleton30SkeletonBuildReverseIndexArrayEPiPKiPKNS0_8SkeletonES6_
xjc:__Z19GetGUIBlendMaterialv
HBj:__ZN6il2cpp2os10ThreadImpl5SleepEjb
l2c:__ZN11UnityEngine9Analytics15UserCustomEvent3AddEPKcb
tBb:__ZN15FileSystemEntry4MoveERS_23FileSystemCopyMoveFlags
Cyf:_ListDictionary_FindEntry_m432748847
gZj:_glBindSampler__wrapper
HTi:_UnityAction_1_Invoke_m3523417209_gshared
Pf:_emscripten_set_mouseup_callback
JKi:_SpaceAttribute__ctor_m1444406696
nW:__ZNK18ScreenManagerWebGL8GetWidthEv
MTj:dynCall_iiifii
s$d:_GridLayoutGroup_set_startAxis_m1635162426
QF:__ZN10SampleClipD2Ev
vyi:_SynchronizationAttribute_EnterContext_m2984912761
UNd:_CultureInfo_construct_internal_locale_from_name_m971766383
Vce:_Array_InternalArray__ICollection_Add_TisUIVertex_t1204258818_m3869382594_gshared
TD:__Z56AnimationOffsetPlayable_CUSTOM_INTERNAL_CALL_GetPositionR9HPlayableR8Vector3f
PUc:_cff_cmap_unicode_init
lLd:_Enum_ToObject_m2460371738
Xcf:_PrimalityTests_Test_m1088386156
wlc:__Z36Event_CUSTOM_Internal_SetNativeEvent13Il2Cpp_IntPtr
YPj:_readlink
gmj:__ZN15dense_hashtableINSt3__24pairIK10KeyWrapperINS1_IPK9EventInfoP11Il2CppClassEEEjEES9_17ReflectionMapHashIS8_EN14dense_hash_mapIS9_jSD_NS9_14EqualsComparerINS0_8equal_toIS8_EEEENS0_9allocatorISB_EEE9SelectKeyESI_SK_E12resize_deltaEjj
Yge:_Array_Resize_TisVector3_t2243707580_m893658391_gshared
tDh:_InternalEnumerator_1_System_Collections_IEnumerator_get_Current_m4259662004_AdjustorThunk
rke:_Array_InternalArray__get_Item_TisKeyframe_t1449471340_m1003508933_gshared
_Kj:__ZN6il2cpp8metadata14Il2CppTypeHash4HashEPK10Il2CppType
Hhf:_StrongName_get_PublicKeyToken_m1968460885
Kwb:__ZNK6Sprite9GetBoundsE8Vector2fbb
uRa:__ZNK19RenderEventsContext21CleanupCommandBuffersEv
pya:__ZN11ContextGLES6CreateEi
u$e:_BinaryReader_Dispose_m4249456877
z8i:__ZN15dense_hashtableINSt3__24pairIK10KeyWrapperI13dynamic_arrayIPK10Il2CppTypeLj4EEEPFvvEEES8_N6il2cpp8metadata19Il2CppSignatureHashEN14dense_hash_mapIS8_SB_SF_NS8_14EqualsComparerINSE_22Il2CppSignatureCompareEEENS0_9allocatorISC_EEE9SelectKeyESJ_SL_E12maybe_shrinkEv
ABd:_Double_ToString_m1085043609
xQb:__Z19TransferField_ArrayI18StreamedBinaryReadILb0EE27Converter_SimpleNativeClassI17AnimationCurveTplIfEEEvRK23StaticTransferFieldInfoR31RuntimeSerializationCommandInfoRT0_
Ipf:_CipherSuite_createEncryptionCipher_m1926075645
Vab:__ZN14StackAllocator16FrameMaintenanceEb
K_d:_Graphic_Raycast_m3582517890
Eeb:__Z18ReadStringFromFilePN4core17string_with_labelILi1EEERKNS_12basic_stringIcNS_20StringStorageDefaultIcEEEE
t0:__ZNK10GameObject20QueryComponentByTypeEPKN5Unity4TypeE
Eoe:_Enumerator_MoveNext_m1367380970_AdjustorThunk
YIg:_OpCode_GetHashCode_m2974727122
Jpf:_CipherSuite_createDecryptionCipher_m1118350455
vBi:_PatternCompiler_EmitReference_m1381860071
WE:__Z78AnimatorControllerPlayable_CUSTOM_INTERNAL_CALL_IsParameterControlledByCurveIDR9HPlayablei
bKd:_Double_System_IConvertible_ToInt16_m4200640326
odc:__Z53Register_UnityEngine_GameObject_get_activeInHierarchyv
G1h:__Z90RuntimeInvoker_Single_t2076509932_Single_t2076509932_Single_t2076509932_Single_t2076509932PK10MethodInfoPvPS2_
v_:__ZL30InitializeCoreScriptingClassesv
CIe:_Collection_1_CheckWritable_m3938993573_gshared
Kg:_glBlitFramebuffer
ddf:_BigInteger_GeneratePseudoPrime_m2606361440
ZHb:__Z35Transfer_Blittable_SingleValueFieldI14SafeBinaryReadhEvRT_R17GeneralMonoObjectRK23StaticTransferFieldInfo
E6c:__ZN22BaseUnityConnectClientC2ERN11UnityEngine7Connect20BasePersistentValuesE
pUh:__Z129RuntimeInvoker_Int32_t2071877448_Il2CppObject_Int32_t2071877448_Int32_t2071877448_Il2CppObject_Int32_t2071877448_SByte_t454417549PK10MethodInfoPvPS2_
Asg:_RemotingServices_GetRealProxy_m620317996
qWa:__ZN13dynamic_arrayI11CulledLightLj4EE6insertEPS0_PKS0_S4_
K7i:__ZNK15dense_hashtableI10KeyWrapperIPK19Il2CppGenericMethodES4_N6il2cpp8metadata23Il2CppGenericMethodHashEN14dense_hash_setIS4_S7_NS4_14EqualsComparerINS6_26Il2CppGenericMethodCompareEEENSt3__29allocatorIS4_EEE8IdentityESB_SE_E3endEv
ORi:_Predicate_1_Invoke_m2060780095_gshared
Raj:__ZN6il2cpp2vm13MetadataCache23GetInterfaceOffsetIndexEi
Sn:FUNCTION_TABLE_vif
Tn:FUNCTION_TABLE_vid
Vn:FUNCTION_TABLE_vii
Qma:__Z40scripting_liveness_calculation_from_root18ScriptingObjectPtrPv
aPa:_UNITY_png_create_write_struct
nTh:__Z149RuntimeInvoker_Boolean_t3825574718_Int32_t2071877448_Il2CppObject_Int32_t2071877448_Int32_t2071877448_Il2CppObject_Int32_t2071877448_SByte_t454417549PK10MethodInfoPvPS2_
ffa:__ZN7Texture23VirtualRedirectTransferER24GenerateTypeTreeTransfer
AKc:_UNITY_FT_Set_Transform
qAh:_ArrayReadOnlyList_1_Contains_m1266627404_gshared
NYj:_glDeleteFramebuffers__wrapper
k0d:_Image_get_overrideSprite_m706080347
hlf:_BigInteger_ModInverse_m1881894572
Acj:__ZN6il2cpp2vm7Runtime17GetDelegateInvokeEP11Il2CppClass
Zse:_List_1_AddEnumerable_m3541747636_gshared
EYb:__Z22GenerateBoxTilingShapeP22GenerateTilingAreaInfo
dpb:__ZN28EnlightenRendererInformation8TransferI14SafeBinaryReadEEvRT_
MRf:__ZL69DefaultDependencyAttribute_t3858269114_CustomAttributesCacheGeneratorP21CustomAttributesCache
zJa:__ZNK15Lz4Decompressor16DecompressMemoryEPKvPjPvS2_
FPc:_UNITY_tt_face_build_cmaps
i$g:_Ray_ToString_m2019179238
oGc:__ZN11Rigidbody2D8TransferI24GenerateTypeTreeTransferEEvRT_
sHd:_Decimal_System_IConvertible_ToType_m3828527724_AdjustorThunk
SOc:_UNITY_tt_face_load_os2
Ymf:_HMAC_get_Key_m2528863640
oJe:_Collection_1_IsSynchronized_m1366278230_gshared
AHb:__Z29Transfer_Blittable_ArrayFieldI14SafeBinaryRead8Vector4fEvRT_R9ArrayInfoRK23StaticTransferFieldInfo
I5d:_Array_get_swapper_TisInt32_t2071877448_m2837069166_gshared
kkj:__ZN6il2cpp2gc19AppendOnlyGCHashMapINSt3__24pairIPK10MethodInfoP11Il2CppClassEEP22Il2CppReflectionMethod17ReflectionMapHashIS9_ENS2_8equal_toIS9_EEE3AddERKS9_SB_
E0g:_RectTransform_INTERNAL_get_rect_m1177342209
MRd:_PointerEventData_IsScrolling_m1971908975
dDj:__ZN6il2cpp2os26LibraryNamePrefixAndSuffixD2Ev
EHd:_Decimal_System_IConvertible_ToInt16_m3159038792
xx:__ZN7mecanim9animation12EvaluateClipEPKNS0_4ClipEPKNS0_9ClipInputEPNS0_10ClipMemoryEPNS0_10ClipOutputE
kMg:_MonoMethodInfo_GetReturnType_m2864247130
f0a:__ZN13RenderManager29SetCurrentCameraAndStackStateEP6CameraP25CameraStackRenderingState
Lqj:__ZN15dense_hashtableINSt3__24pairIK10KeyWrapperINS1_IP11Il2CppClassjEEES4_EES6_N6il2cpp8metadata14ArrayClassHashEN14dense_hash_mapIS6_S4_SB_NS6_14EqualsComparerINSA_17ArrayClassCompareEEENS0_9allocatorIS8_EEE9SelectKeyESF_SH_E12resize_deltaEjj
Zh:_JS_WebRequest_Release
H0e:_DirectoryNotFoundException__ctor_m2242202556
xR:__ZN11UnityEngine15CloudWebService14DataErrorEventD0Ev
wjd:_String_CreateString_m2448464375
pGf:_X509SubjectKeyIdentifierExtension__ctor_m2959112706
$Jg:_FieldInfo_get_IsNotSerialized_m2322769148
Hwj:__ZN6il2cpp8metadata15GenericMetadata7InflateEPK19Il2CppGenericMethodPK20Il2CppGenericContext
hSa:__ZN19ShaderPropertySheet16SetArrayPropertyEN9ShaderLab16FastPropertyNameENS_12PropertyTypeEPKvj
dMg:_MonoGenericCMethod_get_ReflectedType_m2689239043
pJe:_Collection_1_IsFixedSize_m499196375_gshared
DWd:_ColorTween_set_startColor_m3546206870_AdjustorThunk
JYc:__ZN2UI11CanvasGroup23VirtualRedirectTransferER19StreamedBinaryWriteILb0EE
gGh:_InternalEnumerator_1_get_Current_m4083613828_gshared
Hkc:__ZN8GUIState8EndOnGUIEv
Y2g:_UnicodeEncoding_GetString_m542738941
AVc:_UNITY_TT_Get_VMetrics
g0e:_Path_InsecureGetFullPath_m2635272425
oFd:_DateTime_System_IConvertible_ToUInt32_m1363211018
kyg:_RuntimeMethodHandle__ctor_m1162528746
f8d:_SetPropertyUtility_SetStruct_TisSingle_t2076509932_m3849235084_gshared
aBa:__ZN7Texture21GetMasterTextureLimitEv
H4a:__Z12CanAddScriptR10GameObject17ScriptingClassPtrPS1_S2_
fpj:__ZN6il2cpp2vm10Reflection12HasAttributeEP12Il2CppObjectP11Il2CppClass
yQa:_UNITY_png_write_sRGB
Ytc:__ZN8JSONRead21TransferSTLStyleArrayI13dynamic_arrayI4AABBLj4EEEEvRT_18MemLabelIdentifier17TransferMetaFlags
D0:__ZN9ShaderLabL25StaticInitializeShaderLabEPv
U:Math_max
ofj:_il2cpp_class_get_methods
j0e:_Path_CanonicalizePath_m383914732
mNh:_Enumerator_System_Collections_IEnumerator_get_Current_m1631145297_gshared
utd:_ArrayList_Synchronized_m2395071980
rDj:__ZN6il2cpp2os6Thread16GetCurrentThreadEv
v3b:__ZN10GameObject13ComponentPair15SetComponentPtrEPN5Unity9ComponentE
J5e:_UnexceptionalStreamWriter_Write_m3206913035
nZb:__Z13RegisterClassI10MeshFilterEvv
bD:__ZNK26AnimatorControllerPlayable24GetAnimatorClipInfoCountEib
Xhb:__ZN10TagManager8TransferI19StreamedBinaryWriteILb0EEEEvRT_
tEb:__ZN11PreloadData23VirtualRedirectTransferER18StreamedBinaryReadILb0EE
LEj:__ZN6il2cpp6icalls8mscorlib6System10ReflectionL40il2cpp_class_get_generic_type_definitionEP11Il2CppClass
CAg:_DESTransform_ProcessBlock_m2826669227
X$h:__Z115RuntimeInvoker_Void_t1841601450_Il2CppObject_Int32_t2071877448_Int32_t2071877448_SByte_t454417549_Int32_t2071877448PK10MethodInfoPvPS2_
bYe:_Int16_CompareTo_m3493496879
Drb:__ZN6Sprite17MainThreadCleanupEv
cL:__ZN10AudioMixer14UpdateMuteSoloEv
gmi:_Component_GetComponents_m637589504
Brh:_MaskableGraphic_UnityEngine_UI_IClippable_get_gameObject_m954171032
Tfa:__ZN9ShaderLab10SubProgram7CompileEv
dAa:__ZN7ApiGLES16SetPatchVerticesEi
f3e:_MonoIOStat_t1621921065_marshal_pinvoke
hKa:__ZN10MemoryFileC2E18MemLabelIdentifierP14MemoryFileData14FilePermission
Itg:_TrackingServices_NotifyUnmarshaledObject_m1794048369
o$i:__ZN6il2cpp2vm5Class20FromGenericParameterEPK22Il2CppGenericParameter
zT:__ZN19CloudServiceHandler11FlushEventsEv
Kri:_AnimatorControllerPlayable_INTERNAL_CALL_GetAnimatorClipInfoInternal_m3180917212
J8:__ZN15GlobalCallbacksC2Ev
Vcb:__ZN11AssetBundle8TransferI14SafeBinaryReadEEvRT_
yfe:_Array_InternalArray__set_Item_TisLabelFixup_t4090909514_m565370771_gshared
JDc:__ZN7b2World10CreateBodyEPK9b2BodyDef
$Lc:_UNITY_FT_New_Memory_Face
qE:__Z81AnimatorControllerPlayable_CUSTOM_INTERNAL_CALL_GetAnimatorTransitionInfoInternalR9HPlayablei
UNa:__ZZ23InitPlayerLoopCallbacksvEN43PostLateUpdatePlayerSendFrameCompletestruct7ForwardEv
kta:__ZN26VertexDeclarationCacheGLES24DestroyVertexDeclarationEP17VertexDeclaration
Oed:__Z15CastclassSealedP12Il2CppObjectP11Il2CppClass
eXg:_Material_HasProperty_m3175512802
O2a:__ZN16ReflectionProbes40UpdateRealtimeReflectionProbesTimeslicedEv
a1b:__ZN16ReflectionProbes15InitializeClassEv
sKj:__ZN6il2cpp5utils5MatchENSt3__212basic_stringIcNS1_11char_traitsIcEENS1_9allocatorIcEEEEjRKS7_j
TMc:_UNITY_FT_Destroy_Class_psnames_module_class
ZAi:_MRUList_Evict_m2430323183
iOe:_ReadOnlyCollection_1_System_Collections_Generic_ICollectionU3CTU3E_Remove_m1060547576_gshared
qyj:__ZN6il2cpp2vm5Image9GetCorlibEv
yA:__ZN8Animator13BatchedFKPassERK13dynamic_arrayIP14PlayableOutputLj4EE
Ruf:_RecordProtocol_ProcessChangeCipherSpec_m3233959862
Yli:_Component_GetComponent_m4225719715
Uhe:_Array_Sort_TisVector4_t2243707581_m474199742_gshared
kte:_List_1_CheckIndex_m2247532995_gshared
r5e:_TextWriter_Write_m576684782
jPi:_Vector3_Max_m2105825185
Vj:_glIsVertexArray
AF:__Z100Register_UnityEngine_Experimental_Director_AnimatorControllerPlayable_INTERNAL_CALL_SetIntegerStringv
wAb:__ZNSt3__26vectorIN4core12basic_stringIcNS1_20StringStorageDefaultIcEEEE13stl_allocatorIS5_L18MemLabelIdentifier12ELi16EEEC2INS_11__wrap_iterIPS5_EEEET_SE_RKS8_PNS_9enable_ifIXaasr21__is_forward_iteratorISE_EE5valuesr16is_constructibleIS5_NS_15iterator_traitsISE_E9referenceEEE5valueEvE4typeE
gKa:__ZN25SingleBlockMemoryFileDataC2E18MemLabelIdentifierPvjb
fa:invoke_fff
tyh:_Text_get_fontSize_m3105730761
SVj:b14
guf:_TlsServerHello_Update_m1740270635
UXc:__ZN2UI6Canvas17MainThreadCleanupEv
$uh:_ScrollRect_Rebuild_m3423824761
Oye:_List_1_Find_m3862454845_gshared
VBc:__ZTv0_n12_N10ClipperLib7ClipperD1Ev
OAi:_MatchCollection_get_Item_m2609281578
WGa:__ZN7ApiGLES13CreateProgramEv
Ojb:__ZN11HaloManager7AddHaloEv
W3g:_UTF8Encoding__ctor_m100325490
nBa:__ZN4crnd12crn_unpackerD2Ev
Yxh:_StencilMaterial_ClearAll_m1372779118
fk:_emscripten_glTexImage2D
_rg:_ObjRefSurrogate_SetObjectData_m1873902916
lVc:_tt_driver_class_pic_init
n_:__ZN18ScriptingArguments9AddStringEPKc
hIj:_setup_header
ySj:runPostSets
qpa:__ZL23stbir__resize_arbitraryPvPKviiiS_iiiffffPfiij14stbir_datatype12stbir_filterS4_10stbir_edgeS5_16stbir_colorspace
Gue:_List_1_System_Collections_IList_Insert_m848656350_gshared
VJb:__Z18Transfer_BlittableI24GenerateTypeTreeTransferLb1E8Vector4fEvRK29SerializationCommandArgumentsR31RuntimeSerializationCommandInfo
BYe:_Int16_ToString_m3971652088_AdjustorThunk
qk:_pthread_detach
wbj:__ZN6il2cpp2vm19SocketPollingThread7RunLoopEv
dAi:_MethodDictionary_AllocInternalProperties_m3261295876
Ufc:__ZN15DirectorManager20ScheduleGraphDestroyERK14HPlayableGraph
_ra:__ZNSt3__213__stable_sortIRN10vector_mapI17ScriptingClassPtrPKN5Unity4TypeENS_4lessIS2_EENS_9allocatorINS_4pairIS2_S6_EEEEE13value_compareENS_11__wrap_iterIPSB_EEEEvT0_SJ_T_NS_15iterator_traitsISJ_E15difference_typeEPNSM_10value_typeEi
sUb:__ZN9ShaderLab25SerializedTextureProperty8TransferI24GenerateTypeTreeTransferEEvRT_
Vdb:__ZN15dense_hashtableINSt3__24pairIKN4core12basic_stringIcNS2_20StringStorageDefaultIcEEEEP11AssetBundleEES6_20StringHash32FunctionIS6_EN14dense_hash_mapIS6_S9_SC_NS0_8equal_toIS6_EENS0_9allocatorISA_EEE9SelectKeyESF_SH_E12resize_deltaEjj
x1j:_emscripten_glIsShader__wrapper
Zmj:__ZN6il2cpp2gc19AppendOnlyGCHashMapINSt3__24pairIPK14Il2CppAssemblyP11Il2CppClassEEP24Il2CppReflectionAssembly17ReflectionMapHashIS9_ENS2_8equal_toIS9_EEEC2Ev
Dmc:__Z32GUIStyle_Get_Custom_PropFontSizeP12Il2CppObject
rxg:_DelegatePInvokeWrapper_CallbackHandler_t362827733
Esc:__Z18Transfer_BlittableI8JSONReadLb1EyEvRK29SerializationCommandArgumentsR31RuntimeSerializationCommandInfo
Nk:_emscripten_glMatrixMode
Tr:__ZN8Animator23VirtualRedirectTransferER18StreamedBinaryReadILb0EE
v1e:_NotSupportedException__ctor_m836173213
Krg:_MethodReturnDictionary__ctor_m756139344
TQ:__ZN11UnityEngine15CloudWebService14DataDispatcher16PrepareDataBlockERNS0_16SessionContainerE
lHa:__ZN18GfxFramebufferGLES5ClearE13GfxClearFlagsRK10ColorRGBAffib
QPb:__ZL26Transfer_SimpleNativeClassI18StreamedBinaryReadILb0EE10RectOffsetLb0EEvRK29SerializationCommandArgumentsR31RuntimeSerializationCommandInfo
QMc:_UNITY_ft_destroy_default_module_classes
lre:_List_1_CheckMatch_m1772343151_gshared
zVa:__ZL12DepthPassJobPN21GfxDeviceAsyncCommand10ArgScratchEPKNS_3ArgE
XSb:__ZNSt3__26vectorIN9ShaderLab20SerializedSubProgram16TextureParameterENS_9allocatorIS3_EEE6assignINS_11__wrap_iterIPS3_EEEENS_9enable_ifIXaasr21__is_forward_iteratorIT_EE5valuesr16is_constructibleIS3_NS_15iterator_traitsISC_E9referenceEEE5valueEvE4typeESC_SC_
V_e:_IntPtr_Equals_m1214967011_AdjustorThunk
Gxe:_List_1_Add_m3591975577_gshared
G$c:__Z55Register_UnityEngine_CanvasGroup_get_ignoreParentGroupsv
PZb:__Z13RegisterClassI19LowerResBlitTextureEvv
Rm:FUNCTION_TABLE_iiiiiiiiiiii
pjb:__ZN16GraphicsSettingsD0Ev
F_j:_pthread_mutex_init__wrapper
F1a:__ZN15LODGroupManager21CalculateLODDataArrayERK13LODParametersPK6Cameraf
n:cttz_i8
eTc:_UNITY_FT_GlyphLoader_Add
HCh:_InternalEnumerator_1_System_Collections_IEnumerator_get_Current_m1004764375_AdjustorThunk
dVe:_DateTimeFormatInfo_get_FullDateTimePattern_m2607507656
Guf:_HttpsClientStream_RaiseServerCertificateValidation_m3356770426
fJd:_DelegateSerializationHolder__ctor_m3915060553
zAb:__ZN15SerializeTraitsINSt3__26vectorIN30RuntimeInitializeOnLoadManager9ClassInfoE13stl_allocatorIS3_L18MemLabelIdentifier12ELi16EEEEE8TransferI24GenerateTypeTreeTransferEEvRS7_RT_
mie:_Array_swap_TisUIVertex_t1204258818_TisUIVertex_t1204258818_m1163375424_gshared
Jl:_emscripten_glViewport
sYb:__Z21GenerateTilingAreaJobP22GenerateTilingAreaInfoj
REj:__ZN6il2cpp6icalls8mscorlib6System15MonoCustomAttrs17IsDefinedInternalEP12Il2CppObjectP20Il2CppReflectionType
wtb:__ZN4Mesh21UnswizzleVertexColorsEb
hGd:_DateTime_ToString_m2276663647_AdjustorThunk
iVc:_cff_parse_font_bbox
xB:__GLOBAL__sub_I_runtime_animation2_lump_cpp
wyb:__ZN14PlayerSettings23VirtualRedirectTransferER18StreamedBinaryReadILb0EE
lNj:__ZN6il2cpp2os5Event5ResetEv
bLe:_ReadOnlyCollection_1_System_Collections_IList_Insert_m1130110335_gshared
Pri:_AnimatorControllerPlayable_GetCurrentAnimatorClipInfoCount_m335090574
twj:__ZN6il2cpp8metadata15GenericMetadata17InflateParametersEPK13ParameterInfohPK20Il2CppGenericContextb
e_e:_Int64_System_IConvertible_ToUInt32_m850395426_AdjustorThunk
wii:_PCMReaderCallback_Invoke_m3610389815
R7c:_HMACSHA512__ctor_m2390736870
Tu:__ZNK17AnimationPlayable27GetNextCompatibleDescendantEi
rs:__ZN8Animator20ProcessAnimationsJobEPNS_11AnimatorJobEj
sGg:_TypeBuilder_GetInterfaces_m1818658502
Maa:__Z25SetNeedToPerformRenderingb
yMg:_MonoMethod_GetPseudoCustomAttributes_m466965107
rZa:__ZNSt3__227__insertion_sort_incompleteIR23CompareReflectionProbesP31RuntimeReflectionProbeBlendInfoEEbT0_S5_T_
OVa:__ZN14qsort_internal30FindAndMovePivotToLastPositionIP15RODataDepthPassi17ROSorterDepthPassEEvT_S4_T0_T1_
Xdh:_Enumerator_System_Collections_IDictionaryEnumerator_get_Value_m3005608231_gshared
Sqh:_MaskUtilities_NotifyStencilStateChanged_m1527407683
M1a:__ZN12CullingGroup10SendEventsEPK17CullingGroupEventj
Fef:_DSAManaged_GenerateKeyPair_m2711647034
r7a:__ZN13sorted_vectorINSt3__24pairIN4core12basic_stringIcNS2_20StringStorageDefaultIcEEEES6_EEN10vector_mapIS6_S6_27compare_tstring_insensitiveIS6_E13stl_allocatorIS7_L18MemLabelIdentifier37ELi16EEE13value_compareESD_E9erase_oneIS6_EEjRKT_
Xpb:__ZThn32_NK8Renderer8GetLayerEv
yce:_Array_InternalArray__ICollection_Add_TisResourceCacheItem_t333236149_m1151081240_gshared
dvg:_SoapServices_GetXmlTypeForInteropType_m3821579913
w$j:_emscripten_glTexParameterfv__wrapper
dEi:_CaptureAssertion_IsComplex_m1433259302
e_g:_Physics2D_INTERNAL_CALL_Internal_Raycast_m489831109
fgj:_il2cpp_method_get_param_count
gYb:__ZN10systeminfo19ISOToSystemLanguageERN4core12basic_stringIcNS0_20StringStorageDefaultIcEEEE
Slj:__ZNK15dense_hashtableINSt3__24pairIK10KeyWrapperINS1_IPK12PropertyInfoP11Il2CppClassEEEjEES9_17ReflectionMapHashIS8_EN14dense_hash_mapIS9_jSD_NS9_14EqualsComparerINS0_8equal_toIS8_EEEENS0_9allocatorISB_EEE9SelectKeyESI_SK_E3endEv
qGc:__ZN11Rigidbody2D8TransferI19StreamedBinaryWriteILb0EEEEvRT_
ENj:__ZN6il2cpp8metadata26Il2CppGenericMethodCompare6EqualsEPK19Il2CppGenericMethodS4_
Jca:__ZNSt3__26vectorIP10MemoryPool13stl_allocatorIS2_L18MemLabelIdentifier72ELi16EEE21__push_back_slow_pathIKS2_EEvRT_
ARc:_ps_dimension_done
fUd:_LayoutRebuilder_MarkLayoutForRebuild_m640589351
KXc:__Z46Register_UnityEngine_TextGenerator_Dispose_cppv
ORd:_PointerEventData_get_pressEventCamera_m724559964
bed:_String_IndexOfUnchecked_m3356721554
Kob:__ZN16LightmapSettings8TransferI14SafeBinaryReadEEvRT_
zCa:__ZN17BufferManagerGLES13ReleaseBufferEP14DataBufferGLES
Csc:__Z18Transfer_BlittableI8JSONReadLb1EjEvRK29SerializationCommandArgumentsR31RuntimeSerializationCommandInfo
lHi:_PKCS12_Decrypt_m1557069392
Lyh:_VertexHelper_AddUIVertexQuad_m280792808
MBf:_WebHeaderCollection_ToString_m1246460752
fEh:_InternalEnumerator_1_System_Collections_IEnumerator_get_Current_m2842514953_AdjustorThunk
kp:stackSave
WRc:_ps_dimension_end
Uec:__Z41Register_UnityEngine_Mesh_Internal_Createv
Vvb:__ZN14SpriteRenderer23VirtualRedirectTransferER24GenerateTypeTreeTransfer
rwj:__ZNK15dense_hashtableI10KeyWrapperIP18Il2CppGenericClassES3_N6il2cpp8metadata22Il2CppGenericClassHashEN14dense_hash_setIS3_S6_NS3_14EqualsComparerINS5_25Il2CppGenericClassCompareEEENSt3__29allocatorIS3_EEE8IdentityESA_SD_E12test_deletedERK30dense_hashtable_const_iteratorIS3_S3_S6_SF_SA_SD_E
q0i:__ZN6il2cpp2vm5Class14GetNestedTypesEP11Il2CppClassPPv
s8c:_MACTripleDES_Initialize_m1318099802
Knf:_MD5SHA1_VerifySignature_m507888141
jqd:_Byte_System_IConvertible_ToChar_m4188836679
NUe:_NumberFormatter_InitDecHexDigits_m2036076025
Aeh:_Enumerator_get_CurrentKey_m3839846791_AdjustorThunk
ntc:__ZN8JSONRead21TransferSTLStyleArrayI13dynamic_arrayIaLj1EEEEvRT_18MemLabelIdentifier17TransferMetaFlags
x3a:__ZN6Camera9SetAspectEf
xa:invoke_viiffiii
Okg:__ZL79TouchInputModule_t2561058385_CustomAttributesCacheGenerator_m_ForceModuleActiveP21CustomAttributesCache
O0j:_emscripten_glBindVertexArray__wrapper
Zjh:_Dictionary_2_InitArrays_m435313205_gshared
t4a:__ZN9Transform37InitializeTransformHierarchyRecursiveER18TransformHierarchyRii
c$b:__Z34DefaultPrepareDispatchBoundsUpdateR13RendererScene18MemLabelIdentifier
WZd:_Graphic_get_useLegacyMeshGeneration_m1366444625
Kmg:__ZL65InputField_t1631627530_CustomAttributesCacheGenerator_m_InputTypeP21CustomAttributesCache
Ucf:_ModulusRing_Pow_m1137250399
LRa:__ZN17MeshRenderingData4InitEP4MeshS1_iP15SharedGfxBufferS3_
Swd:_Hashtable__cctor_m2952659675
ZFf:_X509ChainStatus__ctor_m3628359961_AdjustorThunk
Wfe:_Array_InternalArray__set_Item_TisUICharInfo_t3056636800_m1953167516_gshared
red:_Evidence_get_HostEvidenceList_m2095478124
eic:__Z57Register_UnityEngine_Transform_INTERNAL_set_localPositionv
Pqf:_Context_Clear_m4000337070
fxa:__ZN13GfxDeviceGLES26SetRandomWriteTargetBufferEi15ComputeBufferID
JIf:_IntervalCollection_Normalize_m538796191
szd:_Console_SetEncodings_m342145566
dNi:_TrackedReference_op_Equality_m3491334086
NZd:_FontUpdateTracker_UntrackText_m3827316510
Sdb:__ZN18AssetBundleManager19RegisterAssetBundleEP11AssetBundle
gke:_Array_InternalArray__get_Item_TisSingle_t2076509932_m1495809753_gshared
Nfe:_Array_InternalArray__set_Item_TisAnimatorClipInfo_t3905751349_m978873279_gshared
z7b:__ZNK11ICallString6ToUTF8Ev
bEi:_CaptureAssertion_get_Alternate_m2729005740
mGj:_GC_number_stack_black_listed
PVa:__ZNSt3__211__sift_downIR17ROSorterDepthPassP15RODataDepthPassEEvT0_S5_T_NS_15iterator_traitsIS5_E15difference_typeES5_
fDg:_Default_SelectMethod_m3081239996
oha:__ZN18UnityPropertySheet11UnityTexEnvC2Ev
Ds:__ZN8Animator17ApplyOnAnimatorIKEiRNS_11AnimatorJobE
c5:__ZN12FileAccessor4ReadEyyPvPy
Qfa:__ZN13dynamic_arrayI16ShaderKeywordSetLj4EE6insertEPS0_PKS0_S4_
eAi:_MethodDictionary_IsOverridenKey_m3922224650
fyd:_SyncHashtable_Contains_m3042906549
wAe:_List_1_System_Collections_IList_set_Item_m4016273526_gshared
oGf:_X509KeyUsageExtension_CopyFrom_m931530012
Y2a:__ZN13RenderTexture9SetHeightEi
Tli:_Color32__ctor_m1932627809_AdjustorThunk
uxf:_SslStreamBase_Read_m1036897444
Gsh:_RectMask2D_PerformClipping_m1232012832
suj:__ZN6il2cpp6icalls8mscorlib6System2IO6MonoIO17GetFileAttributesEP12Il2CppStringPi
hfh:_Transform_1_Invoke_m4020530914_gshared
gQc:_tt_cmap8_char_index
J_:__Z24scripting_class_get_name17ScriptingClassPtr
X6:__ZN13RuntimeStaticI15GUIEventManagerLb0EE13StaticDestroyEPv
pEa:__ZN7ApiGLES14TextureSamplerEjj17TextureFilterMode15TextureWrapModeifb18ShadowSamplingModeN2gl17TextureSrgbDecodeE
d4b:__ZN15DirectorManager18ScheduleGraphStartERK14HPlayableGraph
Gfi:_CustomEventData_AddUInt16_m3349298376
KGb:__Z29Transfer_Blittable_ArrayFieldI14SafeBinaryReadjEvRT_R9ArrayInfoRK23StaticTransferFieldInfo
Oji:_Camera_FireOnPostRender_m94860165
me:_emscripten_set_keydown_callback
Cxd:_Enumerator_get_Value_m3684748062
Yhb:__ZN19StreamedBinaryWriteILb0EE21TransferSTLStyleArrayINSt3__26vectorI17SortingLayerEntryNS2_9allocatorIS4_EEEEEEvRT_17TransferMetaFlags
lah:_UInt32_Parse_m3371984903
k5:__ZN12FileAccessorC2Ev
l4a:__ZN9Transform35SetLocalPositionWithoutNotificationERKN4math7_float3E
RBi:_PatternLinkStack_GetCurrent_m2994645935
Nib:__ZN6Camera8TransferI19StreamedBinaryWriteILb0EEEEvRT_
Fsi:_AnimatorControllerPlayable_PlayInFixedTime_m2629510873
gAi:_MethodDictionary_set_Item_m3475146889
$yh:_Toggle_PlayEffect_m3950629415
i8d:_SetPropertyUtility_SetStruct_TisColorBlock_t2652774230_m2085520896_gshared
bEb:__Z39WriteQueueForTransferSignatureIntoCacheRK31TransferFunctionScriptingTraitsRK24TransferRequestSignature17ScriptingClassPtrR23CachedSerializationDataRb
Ona:__ZN13RenderManager18UpdateAllRenderersEv
e3c:__ZN22BaseUnityConnectClient30OnEnteringStatePausedOrStoppedEv
rCc:__ZN10ClipperLib7Clipper18SwapPositionsInAELEPNS_5TEdgeES2_
U8i:__ZN13dynamic_arrayIPK10Il2CppTypeLj4EE6assignEPKS2_S5_
Blj:__ZN15dense_hashtableINSt3__24pairIK10KeyWrapperINS1_IPK12PropertyInfoP11Il2CppClassEEEjEES9_17ReflectionMapHashIS8_EN14dense_hash_mapIS9_jSD_NS9_14EqualsComparerINS0_8equal_toIS8_EEEENS0_9allocatorISB_EEE9SelectKeyESI_SK_E12resize_deltaEjj
Sx:__ZN7mecanim5human12HumanPoseAddERNS0_9HumanPoseERKS1_S4_
_gi:_Animator_ResetTrigger_m865269317
hHe:_Collection_1_IsFixedSize_m218241296_gshared
a4a:__Z24MergeTransformComponentsR9TransformS0_b
Jii:_DelegatePInvokeWrapper_AudioConfigurationChangeHandler_t3743753033
e3e:_MonoIO_get_PathSeparator_m2635828107
m8e:_MonoType_get_Name_m865859211
vNd:_CultureInfo__cctor_m2290268677
Ohd:_String_Trim_m3982520224
lug:_RemotingConfiguration__cctor_m2129988840
yFe:_Collection_1_Insert_m44548038_gshared
TEj:__ZN6il2cpp2vm13ComObjectBase19GetRuntimeClassNameEPP15Il2CppHString__
Tj:_emscripten_glVertexAttribPointer
Wla:__ZN14PreloadManager26UpdatePreloadingSingleStepENS_21UpdatePreloadingFlagsEi
ZWg:_Material__ctor_m1440882780
Ybd:_SHA512Managed_Initialize_m891287980
I3h:__Z82RuntimeInvoker_Boolean_t3825574718_Il2CppObject_TextGenerationSettings_t2543476768PK10MethodInfoPvPS2_
Fed:_SecurityException__ctor_m1484114982
vJi:_X509Crl_GetHashName_m183504634
Ymd:_Array_GetValue_m1507415734
kgc:__Z57Register_UnityEngine_RectTransform_INTERNAL_set_anchorMinv
BTe:_Object_MemberwiseClone_m2655589444
sja:__ZN6prcoreL25inner_stretch_i8_bilinearEPKNS_9InnerInfoE
pS:__ZN11UnityEngine15CloudWebService13WWWRestClient17GetResponseStatusEv
HMg:_MonoMethod_get_IsGenericMethod_m4276550811
ufh:_Transform_1_BeginInvoke_m3826027984_gshared
nR:__ZN11UnityEngine15CloudWebService16SessionContainer24GetSessionHeaderJsonDataERKN4core12basic_stringIcNS2_20StringStorageDefaultIcEEEERNS2_13StringBuilderE
NBd:_Decimal_op_Implicit_m2149927308
K6:__ZN13RuntimeStaticI21AssetReferenceStorageLb0EE13StaticDestroyEPv
_9g:_UInt16_System_IConvertible_ToUInt32_m1864968312
dBj:__ZN6il2cpp6icalls8mscorlib6System9AppDomain22InternalGetProcessGuidEP12Il2CppString
RSc:_cf2_builder_moveTo
bff:_KeyPairPersistence_get_UseMachineKeyStore_m560802076
uNh:_Enumerator_System_Collections_IDictionaryEnumerator_get_Entry_m345330700_AdjustorThunk
JYj:_glBindRenderbuffer__wrapper
nKb:__Z18Transfer_BlittableI24GenerateTypeTreeTransferLb1EjEvRK29SerializationCommandArgumentsR31RuntimeSerializationCommandInfo
hnf:_MD2Managed_Padding_m410163267
Bkb:__ZN11ColorRGBA328TransferI14SafeBinaryReadEEvRT_
Tii:_Bounds__ctor_m1202659404_AdjustorThunk
Rf:_emscripten_glClearDepth
frb:__ZN14SafeBinaryRead21TransferSTLStyleArrayINSt3__26vectorIN15QualitySettings14QualitySettingENS1_9allocatorIS4_EEEEEEvRT_17TransferMetaFlags
V0e:_File_OpenText_m4058508963
Yya:__ZN7ApiGLES13CreateTextureEjN2gl9TexFormatEiiiii
b0h:__Z54RuntimeInvoker_Double_t4078015681_Interval_t2354235237PK10MethodInfoPvPS2_
hyb:__ZNSt3__26vectorINS_4pairIPKN5Unity4TypeE7Hash128EENS_9allocatorIS7_EEE8__appendEj
pvg:_WellKnownClientTypeEntry__ctor_m670594074
Upj:__ZN15dense_hashtableINSt3__24pairIK10KeyWrapperIP11Il2CppClassES4_EES5_N6il2cpp8metadata16SZArrayClassHashEN14dense_hash_mapIS5_S4_SA_NS5_14EqualsComparerINS9_19SZArrayClassCompareEEENS0_9allocatorIS7_EEE9SelectKeyESE_SG_EC2ERKSJ_j
dFd:_DateTime_System_IConvertible_ToSingle_m3927769066_AdjustorThunk
uUc:_cff_font_load
Ouf:_RecordProtocol_SendRecord_m2977889250
dac:__Z13IsPathCreatedRKN4core12basic_stringIcNS_20StringStorageDefaultIcEEEE
wpa:__ZL22stbir__encode_scanlineP11stbir__infoiPvPfiii
Udc:__Z27Input_Get_Custom_PropAnyKeyv
IIc:__ZN20QuadTreeNodeRenderer13StaticDestroyEPv
Q_b:__ZN9Transform12CleanupClassEv
NJj:__ZN6il2cpp6icalls8mscorlib6System9Threading16NativeEventCalls19CloseEvent_internalE12Il2CppIntPtr
Pt:__ZN11UnityEngine9Animation33SetGenericTransformPropertyValuesERKNS0_30AnimatorGenericBindingConstantERKN7mecanim10ValueArrayEP9Transformb
Nqf:_ClientContext_set_ClientHelloProtocol_m2246603449
dMc:_UNITY_FT_Set_Pixel_Sizes
j4d:_U3CMouseDragOutsideRectU3Ec__Iterator1_MoveNext_m2845491958
JTb:__ZNSt3__26vectorIN9ShaderLab19SerializedSubShaderENS_9allocatorIS2_EEE26__swap_out_circular_bufferERNS_14__split_bufferIS2_RS4_EE
uej:_AnalyticsTracker_TriggerEvent_m1494303835
YSd:_StandaloneInputModule_IsModuleSupported_m623598506
Yqj:__ZN6il2cpp2vmL24thread_cleanup_on_cancelEPv
tzg:_SByte_ToString_m4105923225_AdjustorThunk
zgb:_LZ4_compress_generic
zNd:_CultureInfo_ConstructCurrentUICulture_m3363349599
_rb:__ZN13dynamic_arrayI7SubMeshLj4EE18resize_initializedEjRKS0_12ResizePolicy
kpg:__ZL75CanvasScaler_t2574720772_CustomAttributesCacheGenerator_m_FallbackScreenDPIP21CustomAttributesCache
L7e:_MonoType_GetEvent_m4160342003
qsh:_RawImage_set_texture_m2400157626
p_i:_PrimeHelper_ToPrime_m1606935350_gshared
Okb:__Z30ProcessDynamicBatchGeometryJobP25DynamicVBOGeometryJobDataj
xWa:__ZNSt3__27__sort4IRNS_6__lessI11CulledLightS2_EEPS2_EEjT0_S6_S6_S6_T_
bhj:__ZN6il2cpp2vm14TypeNameParser26ParseArrayModifierOptionalEv
oaf:_MSCompatUnicodeTable_Level3_m260824928
_Z:__Z26scripting_object_get_class18ScriptingObjectPtr
s_b:__ZNK28MonoBehaviourPropertyBinding15GenerateBindingERKN4core12basic_stringIcNS0_20StringStorageDefaultIcEEEEbRN11UnityEngine9Animation14GenericBindingE
SUg:_GUIStyle_CalcMinMaxWidth_m2027503105
vYe:_Int32_FindExponent_m3187554672
nff:_KeyPairPersistence_Load_m1355205585
xZe:_Int32_ToString_m2960866144_AdjustorThunk
cSi:_Predicate_1_Invoke_m3539717340_gshared
I_i:_HashSet_1_Contains_m3626542335_gshared
Kgd:_Single_CompareTo_m2081476257_AdjustorThunk
Iai:__Z57RuntimeInvoker_Int32_t2071877448_RaycastHit2D_t4063908774PK10MethodInfoPvPS2_
VCj:__ZN6il2cpp6icalls8mscorlib6System11Environment15internalGetHomeEv
Ybb:__ZNK5Unity9Component7GetNameEv
axg:__ZN21InterfaceFuncInvoker4IP12Il2CppObjectS1_P28SerializationInfo_t22898743028StreamingContext_t1417235061S1_E6InvokeEjP11Il2CppClassS1_S1_S3_S4_S1_
cZi:_ObjectPool_1_Get_m3724675538_gshared
NQa:_UNITY_png_set_error_fn
Fyc:__ZNK11b2RopeJoint16GetReactionForceEf
At:__ZN7mecanim8skeleton26SkeletonPoseComputeGlobalQEPKNS0_8SkeletonEPKNS0_13SkeletonPoseTIN4math4trsXEEEPS7_ii
muc:__ZN8JSONRead21TransferSTLStyleArrayI13dynamic_arrayIfLj4EEEEvRT_18MemLabelIdentifier17TransferMetaFlags
bve:_List_1_GetEnumerator_m2672519407_gshared
$s:__ZN9BlobWrite8TransferI22OffsetPtrArrayTransferIiEEEvRT_PKc17TransferMetaFlags
$9e:_ContractionComparer_Compare_m314873025
TFj:__ZN6il2cpp6icalls8mscorlib6System7Runtime15InteropServices8GCHandle15GetTargetHandleEP12Il2CppObjectii
EVg:_GUIUtility_EndGUIFromException_m2091524531
PZe:_Int64_System_IConvertible_ToDouble_m638786774
kK:__ZN4FMOD6System7releaseEv
O4:__Z18PathToAbsolutePathRKN4core12basic_stringIcNS_20StringStorageDefaultIcEEEE
pme:_Enumerator_MoveNext_m3078170540_AdjustorThunk
eqb:__ZNK8Renderer26GetTypeInfoVirtualInternalEv
Nli:_Color_Lerp_m3323752807
Oec:__Z22Mesh_CUSTOM_HasChannelP12Il2CppObject30InternalScriptingShaderChannel
o4b:__ZN15DirectorManager17AcquireOutputNodeEv
Uw:__ZN8Playable11SetDurationEd
oGa:__ZN16GeometryJobTasks20ScheduleGeometryJobsER9GfxDevicePFvP15GeometryJobDataEPK22GeometryJobInstructionjb
wUg:_GUIUtility_Internal_GetHotControl_m2510727642
lI:__ZN12AudioManager29ShutdownReinitializeAndReloadEv
XGi:_NetscapeCertTypeExtension_Decode_m2210025005
b1g:_RectTransform_GetLocalCorners_m1836626405
yvg:_BaseFixupRecord_DoFixup_m1821597450
r$i:__ZN15dense_hashtableINSt3__24pairIK10KeyWrapperIPK22Il2CppGenericParameterEP11Il2CppClassEES6_N6il2cpp5utils11PointerHashIS4_EEN14dense_hash_mapIS6_S9_SE_NS6_14EqualsComparerINS0_8equal_toIS5_EEEENS0_9allocatorISA_EEE9SelectKeyESJ_SL_E6insertERKSA_
Z0e:_FileLoadException__ctor_m1356374414
Hza:__ZN14DataBufferGLES16RecreateWithDataEjPKv
C9b:__Z29GetGlobalAllowNameConversionsv
g6a:__ZN8Material8SetColorEN9ShaderLab16FastPropertyNameERK10ColorRGBAf
RKg:_Module_GetCustomAttributes_m3581287913
dM:__ZN11AudioSource23VirtualRedirectTransferER18StreamedBinaryReadILb0EE
wd:___syscall91
P6:__ZN21AssetReferenceStorageC2Ev
nJc:__ZNSt3__26vectorIN4core12basic_stringIcNS1_20StringStorageDefaultIcEEEE13stl_allocatorIS5_L18MemLabelIdentifier34ELi16EEEC2INS_11__wrap_iterIPS5_EEEET_SE_RKS8_PNS_9enable_ifIXaasr21__is_forward_iteratorISE_EE5valuesr16is_constructibleIS5_NS_15iterator_traitsISE_E9referenceEEE5valueEvE4typeE
N_:__ZL41AssemblyNameMatchesWithOrWithoutExtensionPKcS0_
YDa:__ZN14GfxContextGLES43AddRenderSurfaceToDeferredFBOInvalidateListEPK17RenderSurfaceGLES
Wrj:__ZN6il2cpp6icalls8mscorlib6System9Threading6Thread15Thread_internalEP12Il2CppThreadP14Il2CppDelegate
_ea:__ZN11NamedObject23VirtualRedirectTransferER14SafeBinaryRead
TLc:__ZNSt3__26vectorIN20TextRenderingPrivate8FontImpl13CharacterInfoE13stl_allocatorIS3_L18MemLabelIdentifier1ELi16EEE6insertENS_11__wrap_iterIPKS3_EERS9_
ema:__ZN23PreloadManagerOperation6IsDoneEv
Gcj:__ZN6il2cpp2vm7Runtime15InvokeWithThrowEPK10MethodInfoPvPS5_
Uif:_X509Certificate_get_RawData_m3000055075
X4b:__Z33GetHasChangedDeprecatedSystemMaskv
vAj:__ZN6il2cpp5utils11StringUtils11Utf16ToUtf8ERKNSt3__212basic_stringIDsNS2_11char_traitsIDsEENS2_9allocatorIDsEEEE
m0e:_MonoIO_GetException_m2577367044
iOh:_Enumerator_VerifyState_m1165543189_AdjustorThunk
LFd:_DateTime_AddSeconds_m722082155_AdjustorThunk
Tud:_SynchronizedArrayListWrapper_CopyTo_m956887031
y9i:__ZNSt3__213__lower_boundIRN6il2cpp5utils11collections13ArrayValueMapIPK10Il2CppType17Il2CppInteropData26InteropDataToTypeConverterNS1_8metadata14Il2CppTypeLessENSA_26Il2CppTypeEqualityComparerEE22LowerBoundFindComparerEPKS8_S7_EET0_SI_SI_RKT1_T_
sqa:__ZN21LightProbeProxyVolume18HasHardwareSupportEv
fEc:__ZNK20b2SeparationFunction17FindMinSeparationEPiS0_f
nja:__ZN6prcoreL31inner_stretch_argb8888_bilinearEPKNS_9InnerInfoE
uNb:__Z18Transfer_BlittableI18StreamedBinaryReadILb1EELb1E8BitFieldEvRK29SerializationCommandArgumentsR31RuntimeSerializationCommandInfo
wOc:_UNITY_FT_Outline_Decompose
Zsf:_TlsClientCertificate_get_ClientCertificate_m3062440489
hed:_StrongNamePublicKeyBlob_ToString_m3721281223
xDh:_InternalEnumerator_1_get_Current_m198513457_AdjustorThunk
jUa:__Z20scripting_object_new17ScriptingClassPtr
dS:__ZN11UnityEngine15CloudWebService10RestClientINS0_16WWWRestHeaderMapEED2Ev
Qic:__Z58Register_UnityEngine_Object_Internal_CloneSingleWithParentv
sE:__Z75AnimatorControllerPlayable_CUSTOM_INTERNAL_CALL_GetAnimatorClipInfoInternalP12Il2CppObjectR9HPlayableihS0_
irc:__ZN9JSONWrite8TransferI13dynamic_arrayI8BitFieldLj4EEEEvRT_PKc17TransferMetaFlags
M_a:__ZN18ShadowMapJobHeaderD0Ev
a_d:_Graphic_OnRectTransformDimensionsChange_m1610753363
KDd:_Convert_ToUInt16_m3265369225
P:Math_exp
q7e:_MonoEnumInfo_get_Cache_m3551569711
Lo:FUNCTION_TABLE_iiifi
oAj:__ZN6il2cpp2os5posix13PosixAutoLockD2Ev
V6d:_Array_InternalArray__ICollection_Contains_TisVector3_t2243707580_m3625701788_gshared
GGc:__ZN13BoxCollider2D15InitializeClassEv
ESc:_cff_get_advances
x4a:__ZN13MonoBehaviour9SetScriptERK4PPtrI10MonoScriptE18ScriptingObjectPtr
FGc:__ZN13ProduceHelperI13BoxCollider2DLb0EE7ProduceE18MemLabelIdentifier18ObjectCreationMode
cOc:_UNITY_FT_Create_Class_sfnt_module_class
qqi:_AnimatorControllerPlayable_SetFloatString_m3937146789
dId:_Decimal_IsZero_m3557909184_AdjustorThunk
xsd:_Char_ToString_m1401375624
B8c:_MD5CryptoServiceProvider__cctor_m3309191799
KX:__ZNK10FileSystem16LastErrorMessageEv
YFj:__ZNK6il2cpp8metadata14Il2CppTypeLessclEPK10Il2CppTypeS4_
Ewi:_ConfigHandler_ReadCustomProviderData_m784203316
aoe:_Enumerator_System_Collections_IEnumerator_Reset_m3052395060_gshared
g7c:__ZN22UnityWebRequestManager10InitializeEv
qlf:_Kernel_DwordDivMod_m3728402123
LCb:__ZN13MonoBehaviour13AwakeFromLoadE17AwakeFromLoadMode
k$c:__ZZN2UI14CanvasRenderer15InitializeClassEvEN38FunctorImpl_810kCanvasHierarchyChanged4CallEPviR11MessageData
NIb:__ZL26Transfer_SimpleNativeClassI17RemapPPtrTransfer8GradientLb1EEvRK29SerializationCommandArgumentsR31RuntimeSerializationCommandInfo
j5b:__ZN12CachedWriter9InitWriteER15CacheWriterBase
R3b:__Z21UnsignedInt64ToStringy
P3g:_UTF7Decoder__ctor_m549434986
V_g:_Quaternion_ToString_m2638853272
NJh:_InternalEnumerator_1_get_Current_m1025321669_AdjustorThunk
kfc:__Z36MonoBehaviour_CUSTOM_InvokeRepeatingP12Il2CppObjectP12Il2CppStringff
ric:__Z66Register_UnityEngine_Transform_INTERNAL_CALL_InverseTransformPointv
EJi:_X509Crl_VerifySignature_m1390212587
$Gf:_Group__ctor_m4103922028
bRa:__ZN6Camera26ClearIntermediateRenderersEj
oQa:_UNITY_png_write_pCAL
x0j:_glLinkProgram__wrapper
Uja:__ZN6prcoreL12RemapGenericI17TexFormatARGB888815TexFormatBGR888EEvPKNS_9InnerInfoE
H8c:_MD5CryptoServiceProvider_ProcessFinalBlock_m1052610785
uE:__Z79AnimatorControllerPlayable_CUSTOM_INTERNAL_CALL_GetNextAnimatorClipInfoInternalR9HPlayablei
hvd:_BitArray_Set_m2878881714
dXe:_Guid_CompareTo_m2203922782_AdjustorThunk
cwh:_Selectable_get_colors_m3501193396
Tvj:__ZN6il2cpp6icalls8mscorlib6System13Globalization11CultureInfo35construct_internal_locale_from_nameEP17Il2CppCultureInfoP12Il2CppString
tQh:__Z58RuntimeInvoker_Il2CppObject_Int32_t2071877448_Il2CppObjectPK10MethodInfoPvPS2_
zKb:__ZL22Transfer_ManagedObjectI24GenerateTypeTreeTransferLb1EEvRK29SerializationCommandArgumentsR31RuntimeSerializationCommandInfo
Zxi:_ContextAttribute_Equals_m53324298
rki:_Canvas_ForceUpdateCanvases_m2446828475
ak:_emscripten_set_main_loop_timing
Edh:_WeakReference_AllocateHandle_m1783929473
Cza:__ZN14DataBufferGLES12RecordRenderEv
A5a:__ZN14ImageReference10FlipImageYEv
rni:_DebugLogHandler_LogFormat_m177245518
Zkc:__Z14GetDefaultSkini
KF:__ZN4FMOD3DSP9setBypassEb
zab:__Z19NormalizeWheelInputf
b7d:_Array_InternalArray__ICollection_Remove_TisLink_t865133271_m1984184141_gshared
nuc:__Z29Transfer_Blittable_ArrayFieldI8JSONReadhEvRT_R9ArrayInfoRK23StaticTransferFieldInfo
s5d:_LayoutRebuilder_IsDestroyed_m3442208294
C7b:__ZN11MonoManager25GetImageFromAssemblyIndexEi
XMj:__ZN6il2cpp2os20ThreadLocalValueImpl8SetValueEPv
zRa:__ZN22RenderingCommandBuffer20CleanupCommandBufferEv
Tpc:__Z18Transfer_BlittableI9JSONWriteLb1EtEvRK29SerializationCommandArgumentsR31RuntimeSerializationCommandInfo
_0e:_FileLoadException__ctor_m918124939
sk:___syscall85
qTa:__ZNSt3__26__sortIRPFbP10GUIElementS2_EPS2_EEvT0_S7_T_
Zlf:_SequentialSearchPrimeGeneratorBase_GenerateSearchBase_m2930465198
C2b:__ZN16GraphicsSettings12CleanupClassEv
bM:__ZNK11AudioSource26GetTypeInfoVirtualInternalEv
M$i:__ZN6il2cpp2vmL21SetupInterfacesLockedEP11Il2CppClassRKNS_2os12FastAutoLockE
FEb:__ZN11MonoManager23VirtualRedirectTransferER24GenerateTypeTreeTransfer
tA:__ZN23AnimationPlayableOutput17SetSourcePlayableEP8Playable
BGf:_Capture__ctor_m885749277
VTg:_GUIStyle_set_clipOffset_m3871613343
k1d:_SubmitEvent__ctor_m222860306
Zi:_emscripten_glUniformMatrix4fv
jR:__ZN11UnityEngine15CloudWebService14DataDispatcher15SetupWebRequestEv
hXh:__Z94RuntimeInvoker_Int32_t2071877448_Il2CppObject_Int32_t2071877448_Il2CppObject_Int32_t2071877448PK10MethodInfoPvPS2_
i5e:_TextWriter__cctor_m4047845042
c4c:__ZN11UnityEngine15PlatformWrapper13GetShaderCapsEv
R$a:__ZNSt3__211__sift_downIR26RenderDeferredObjectSorterP16RenderObjectDataEEvT0_S5_T_NS_15iterator_traitsIS5_E15difference_typeES5_
E1d:_InputField_CaretBlink_m3960486606
ck:_emscripten_glGetProgramiv
Nff:_SmallXmlParser_ReadCharacters_m1966365555
Uwf:_InternalAsyncResult_get_CompletedWithError_m3993955322
l3b:__ZN21FixedBehaviourManager6UpdateEv
R9b:__ZN9Transform9SetParentEPS_NS_15SetParentOptionE
HMe:_ReadOnlyCollection_1_System_Collections_IList_Add_m527174473_gshared
d0:__ZN19ShaderPropertySheet8SetFloatEN9ShaderLab16FastPropertyNameEfNS_8SetFlagsE
Lmg:__ZL68InputField_t1631627530_CustomAttributesCacheGenerator_m_AsteriskCharP21CustomAttributesCache
qna:__ZN19RuntimeSceneManager24BeginIntegrateMainThreadEP10UnityScene
I_h:__Z80RuntimeInvoker_Void_t1841601450_Il2CppObject_Int32_t2071877448_Int16_t4041245914PK10MethodInfoPvPS2_
oCj:__ZNSt3__2plIcNS_11char_traitsIcEENS_9allocatorIcEEEENS_12basic_stringIT_T0_T1_EERKS9_S6_
$5e:_LocalDataStoreSlot__cctor_m1192669356
pTb:__ZN9ShaderLab20SerializedSubProgramaSERKS0_
TSj:_roundf
yjd:_String_CreateString_m2556700934
Whb:__ZN18StreamedBinaryReadILb0EE21TransferSTLStyleArrayINSt3__26vectorI17SortingLayerEntryNS2_9allocatorIS4_EEEEEEvRT_17TransferMetaFlags
as:__ZN8Animator15SetPrepareStageEv
xxh:_Slider_get_axis_m162140813
N$i:__ZN6il2cpp2vmL24SetupTypeHierarchyLockedEP11Il2CppClassRKNS_2os12FastAutoLockE
Gab:__ZL11TextHandleriPK23EmscriptenKeyboardEventPv
bZa:__Z20CalculateLightMatrixRK15SharedLightDataP10Matrix4x4f
Vvh:_ScrollRect_SetLayoutHorizontal_m3486408020
rLc:_destroy_face
Vpi:_AnimationOffsetPlayable_INTERNAL_CALL_GetPosition_m602003518
eKj:__ZN6il2cpp6icalls8mscorlib6System8Security12Cryptography24RNGCryptoServiceProvider13RngInitializeEP11Il2CppArray
DAf:_IPAddress__cctor_m3624830012
mM:__ZN20SoundChannelInstance7setMuteEb
Y9f:__ZL115AnimatorStateInfo_t2577870592_CustomAttributesCacheGenerator_AnimatorStateInfo_t2577870592____nameHash_PropertyInfoP21CustomAttributesCache
vCf:_AsnEncodedData_EnhancedKeyUsageExtension_m1452131166
pOb:__Z19TransferField_ArrayI18StreamedBinaryReadILb1EE27Converter_SimpleNativeClassI17AnimationCurveTplIfEEEvRK23StaticTransferFieldInfoR31RuntimeSerializationCommandInfoRT0_
DGc:__ZN7b2World18SetContactListenerEP17b2ContactListener
kAa:__ZN18GfxFramebufferGLES22MakeCurrentFramebufferENS_7BuiltinE
HHf:_Interpreter_Close_m1500459069
wk:_JS_SystemInfo_GetWidth
Qpa:__ZN12CachedReader4ReadEPvj
_Sc:_cf2_blues_init
BDh:_InternalEnumerator_1_System_Collections_IEnumerator_get_Current_m3600601141_gshared
mbd:_SHA1Internal_HashFinal_m3188468925
sPi:_Vector3_op_Inequality_m799191452
csd:_Char_GetHashCode_m2343577184
tYa:__Z24CalculateLightShadowFadeRK6CamerafffR8Vector4f
C1:__ZN19RuntimeSceneManagerD2Ev
Kvi:_ChannelData_get_CustomProperties_m1470957369
mja:__ZN6prcore17GetIntegerBlitterE13TextureFormatS0_N14ImageReference8BlitModeE
Hji:_Camera_INTERNAL_CALL_ScreenPointToRay_m2752248646
iAc:__ZN13BoxCollider2DD0Ev
Qkj:__ZN6il2cpp2gc19AppendOnlyGCHashMapINSt3__24pairIPK11Il2CppImageP11Il2CppClassEEP22Il2CppReflectionModule17ReflectionMapHashIS9_ENS2_8equal_toIS9_EEE11TryGetValueERKS9_PSB_
eeh:_Enumerator_VerifyState_m3173176371_AdjustorThunk
Hzf:_TypeConverterAttribute__cctor_m506796812
B9b:__ZN9BlobWrite14ReduceCopyImplERK14ReduceCopyDataj
cMh:_Comparer_1_System_Collections_IComparer_Compare_m1790257529_gshared
Xyc:__ZNK12b2WheelJoint10GetAnchorAEv
AXj:_glShaderSource__wrapper
EKa:__ZN25MultiBlocksMemoryFileData17AdjustBlocksCountEj
Asj:__ZNSt3__214__split_bufferIN6il2cpp2vm22EmbeddedResourceRecordERNS_9allocatorIS3_EEED2Ev
Uqf:_TlsClientHello__ctor_m1699671541
wJc:__ZN13TextRendering4Font8TransferI24GenerateTypeTreeTransferEEvRT_
sxi:_Context_NotifyGlobalDynamicSinks_m2916447645
lNa:__ZN23ManagedAttributeManager15InitializeClassEv
acc:__Z27CullingGroup_CUSTOM_DisposeP12Il2CppObject
X_g:_Random_Range_m2884721203
Prj:__ZN6il2cpp6icalls8mscorlib6SystemL23CheckWideningConversionEjjj
VRa:__ZN13ComputeShader15SetTextureParamEjRKN9ShaderLab16FastPropertyNameE9TextureID16TextureDimension
Owh:_Shadow_set_effectDistance_m1951993364
SQg:_GUILayoutEntry_ApplyStyleSettings_m371609721
fkh:_Dictionary_2_ContainsKey_m416495915_gshared
Cm:_glStencilMask
JBj:__ZN6il2cpp2os10ThreadImpl16GetCurrentThreadEv
Owd:_Hashtable__ctor_m2337481811
Ldh:_Enumerator_System_Collections_IEnumerator_get_Current_m2010873149_gshared
Log:__ZL74SpriteState_t1353336012_CustomAttributesCacheGenerator_m_HighlightedSpriteP21CustomAttributesCache
Utg:_RealProxy__ctor_m2505535530
zHj:_GC_push_conditional_with_exclusions
Xah:_UInt32_System_IConvertible_ToUInt16_m2798641702_AdjustorThunk
Vvg:_BinaryFormatter_get_DefaultSurrogateSelector_m219714691
kNg:_MonoProperty_GetOptionalCustomModifiers_m3827844355
VPj:_strrchr
Waf:_SimpleCollator_GetSortKey_m2188419329
Dpg:__ZL56LayoutElement_t2808691390_CustomAttributesCacheGeneratorP21CustomAttributesCache
Xfc:__Z33Register_UnityEngine_Random_Rangev
Plb:__ZN14RenderSettings27UpdateIndirectSpecularColorEv
Tyb:__ZN14PlayerSettings8TransferI18StreamedBinaryReadILb0EEEEvRT_
Cdj:__ZN6il2cpp6icalls8mscorlib6System8MonoType16GetMethodsByNameEP20Il2CppReflectionTypeP12Il2CppStringibS5_
vui:_GCHandle__ctor_m2952050298
Wqh:_Mask_IsRaycastLocationValid_m62488857
C$:__ZN17DirectorFrameTime10SampleTimeEfff
Jsa:__ZNSt3__27__sort3IRNS_4lessIN22BuiltinResourceManager8ResourceEEEPS3_EEjT0_S7_S7_T_
qLh:_DefaultComparer_Compare_m3472472212_gshared
y1e:_MonoIO_GetLength_m2812344043
IRc:_ps_hints_t2mask
lF:__Z110Register_UnityEngine_Experimental_Director_AnimatorControllerPlayable_INTERNAL_CALL_GetParametersArrayInternalv
Iub:__ZN10BlendShape8TransferI19StreamedBinaryWriteILb0EEEEvRT_
Ysi:_PlayableHandle_INTERNAL_CALL_IsValidInternal_m2792360706
_Ni:_Transform_IsChildOf_m10844547
S_e:__Z21il2cpp_codegen_sizeofP11Il2CppClass
jba:__Z19GetTimeSinceStartupv
Sfd:_SecurityFrame_get_Assembly_m2816566490
ZWc:_TT_Load_Composite_Glyph
bQi:_NetFxCoreExtensions_CreateDelegate_m2492743074
ePh:__Z51RuntimeInvoker_Boolean_t3825574718_Int64_t909078037PK10MethodInfoPvPS2_
xnd:_Array_Sort_m2994254654
gAe:_List_1__ctor_m593058937_gshared
PWa:__ZN29RenderNodeQueuePrepareContextC2Ev
ZN:__ZN10SampleClipC2E18MemLabelIdentifier18ObjectCreationMode
nUb:__ZN9ShaderLab20SerializedSubProgram16TextureParameter8TransferI24GenerateTypeTreeTransferEEvRT_
JLj:__ZN6il2cpp2os11MutexHandle4WaitEj
w8b:__ZL34GetComponentsImplementationRecurseILb1ELi1ELi1EEbR10GameObjectbRK17CompareParametersRK39GetComponentsImplementation_ReturnValue
ILj:__ZN6il2cpp2os11MutexHandle4WaitEv
Tsd:_ArrayList_set_Capacity_m592558035
bla:__ZN6prcoreL17RemapGenericFloatI15TexFormatRGHalf18TexFormatARGBFloatEEvPKNS_9InnerInfoE
TQa:__ZN13RenderManager23AddRemoveCamerasDelayedEv
qQa:_UNITY_png_write_pHYs
v7d:_Array_InternalArray__ICollection_Remove_TisILTokenInfo_t149559338_m1523907845_gshared
X1c:__ZN11UnityEngine9Analytics15AnalyticsConfigC2Ev
Bmi:_ContactFilter2D_CheckConsistency_m1391185667
b_i:_Enumerator_CheckState_m1761755727_gshared
fxd:_Hashtable_Rehash_m2877670513
X2a:__ZN13RenderTexture8SetWidthEi
C3d:_InputField_Insert_m1593238693
$Wc:_UNITY_FT_GlyphLoader_CheckSubGlyphs
Hbj:__ZN6il2cpp2vm21ThreadPoolCompartment20SpawnNewWorkerThreadEv
tce:_Array_InternalArray__ICollection_Add_TisCustomAttributeTypedArgument_t1498197914_m3260005285_gshared
XYa:__Z25SetupObjectBakedOcclusionbRK15SharedLightDataRK26SharedLightmapSettingsDataRK15LightmapIndicesR17ShaderPassContext
Wxd:_SyncHashtable_GetObjectData_m3774367030
gXe:_Guid_GetHashCode_m1401300871
Jnc:__Z42Register_UnityEngine_GUIStyle_set_fontSizev
ms:__ZN8Animator9BuildJobsERK13dynamic_arrayIP14PlayableOutputLj4EERS0_INS_11AnimatorJobELj4EEPS7_bb
G$:__ZN9ShaderLab16FastPropertyName4InitEPKc
LZb:__Z13RegisterClassIN2UI13RectTransformEEvv
saf:_MSCompatUnicodeTable_ToWidthCompat_m2299599532
O_i:__ZN13Il2CppHashMapIPK22Il2CppGenericParameterP11Il2CppClassN6il2cpp5utils11PointerHashIS1_EENSt3__28equal_toIS2_EENS9_9allocatorINS9_4pairIK10KeyWrapperIS2_ES4_EEEEEC2EjRKS8_RKSB_
a9e:_NumberFormatter_get_IsFloatingSource_m2830957202
hsb:__ZN10VertexData8TransferI17RemapPPtrTransferEEvRT_
Lca:__ZN13RenderTexture9SetMipMapEb
Vuh:_ScrollRect_set_verticalScrollbarSpacing_m2356851539
NZ:__Z18GetDirectorManagerv
J9e:_OperatingSystem_GetObjectData_m2276196875
thb:__ZNK10TagManager26GetTypeInfoVirtualInternalEv
ABb:__ZN21ArchiveStorageCreator13AppendRawNodeERKN4core12basic_stringIcNS0_20StringStorageDefaultIcEEEEN20ArchiveStorageHeader9NodeFlagsEyy
Mhc:__Z38Transform_CUSTOM_INTERNAL_get_rotationP12Il2CppObjectP11Quaternionf
Lhj:__ZNSt3__26vectorIN6il2cpp2vm17TypeNameParseInfoENS_9allocatorIS3_EEE8allocateEj
lsi:_AnimatorControllerPlayable_CrossFadeInFixedTime_m1082259778
Fkj:__ZNK15dense_hashtableINSt3__24pairIK10KeyWrapperINS1_IPK10MethodInfoP11Il2CppClassEEEjEES9_17ReflectionMapHashIS8_EN14dense_hash_mapIS9_jSD_NS9_14EqualsComparerINS0_8equal_toIS8_EEEENS0_9allocatorISB_EEE9SelectKeyESI_SK_E5beginEv
yCa:__ZN7ApiGLES19UploadBufferSubDataEjN2gl12BufferTargetEllPKv
mhd:_String_System_IConvertible_ToInt32_m1927223638
R7d:_Array_InternalArray__ICollection_Remove_TisContentType_t1028629049_m3085152315_gshared
gki:_Canvas_set_sortingOrder_m2922819993
sjd:_ASCIIEncoding__ctor_m4127831672
qGb:__Z19TransferField_ArrayI14SafeBinaryRead27Converter_SimpleNativeClassI8GUIStyleEEvRK23StaticTransferFieldInfoR31RuntimeSerializationCommandInfoRT0_
Y3g:_UTF8Encoding__ctor_m3336862259
pKj:__ZN6il2cpp5utils10MemoryPoolC2Ej
QEf:_X509Chain_GetAuthorityKeyIdentifier_m2607407678
lKj:__ZN6il2cpp5utils10MemoryPoolC2Ev
plb:__ZN14RenderSettings5ResetEv
Wsj:__ZNSt3__212basic_stringIDsNS_11char_traitsIDsEENS_9allocatorIDsEEE6appendEPKDsj
gTh:__Z117RuntimeInvoker_Int32_t2071877448_Il2CppObject_Il2CppObject_Int32_t2071877448_Int32_t2071877448_BooleanU26_t3168250738PK10MethodInfoPvPS2_
HIh:_InternalEnumerator_1_get_Current_m3724267862_AdjustorThunk
Mie:_Dictionary_2_Do_ICollectionCopyTo_TisKeyValuePair_2_t3716250094_m1740410536_gshared
LPg:_GUI_CallWindowDelegate_m2039577415
tBj:__ZN6il2cpp2os10ThreadImplD2Ev
Tgf:_RSAManaged_Dispose_m3018788098
Yxc:__ZN12b2MouseJoint23InitVelocityConstraintsERK12b2SolverData
Joc:__ZN8Gradient8TransferI9JSONWriteEEvRT_
_Ad:_DateTime_ToUniversalTime_m1815024752
ebb:__ZNK12TLSAllocatorI14StackAllocatorE22GetAllocatedMemorySizeEv
GQf:__ZL54AssemblyName_t894705941_CustomAttributesCacheGeneratorP21CustomAttributesCache
XDd:_Convert_ToUInt32_m3394039268
m5a:__ZN17RemapPPtrTransfer12PushMetaFlagE17TransferMetaFlags
tLa:__ZN12HandlerChain4NameEv
sxb:__ZNSt3__26vectorI9InputAxisNS_9allocatorIS1_EEE10deallocateEv
eYe:_Int16_Equals_m3925135434_AdjustorThunk
r0c:__Z44Register_UnityEngine_CanvasRenderer_get_cullv
wOf:__ZL60IHashCodeProvider_t1980576455_CustomAttributesCacheGeneratorP21CustomAttributesCache
f_b:__ZN13ProduceHelperI13MonoBehaviourLb0EE7ProduceE18MemLabelIdentifier18ObjectCreationMode
qne:_Enumerator_VerifyState_m1677639504_AdjustorThunk
cqf:_CipherSuiteCollection_get_Item_m280627160
YEb:__Z44InitializeTransferFunctionScriptingTraitsForI17RemapPPtrTransferEvR31TransferFunctionScriptingTraits
ltg:_SerializationInfoEnumerator_MoveNext_m1876990879
o7g:_TimeSpan_Duration_m4205681645
z6a:__ZN14UnityWebStream24UpdateAllUnityWebStreamsEv
_Mf:__ZL60ObsoleteAttribute_t3878847927_CustomAttributesCacheGeneratorP21CustomAttributesCache
wR:__ZN11UnityEngine15CloudWebService14DataErrorEventD2Ev
Rde:_Array_InternalArray__ICollection_CopyTo_TisRaycastHit2D_t4063908774_m3837098618_gshared
ona:__ZN18LoadSceneOperation21MustCompleteNextFrameEv
PK:__ZNK12AudioManager16GetAudioListenerEv
YPd:_EventTrigger_OnScroll_m626934407
SNi:_Transform_Rotate_m1743927093
V2f:__ZL48Camera_t189460977_CustomAttributesCacheGeneratorP21CustomAttributesCache
r2a:__ZNSt3__26vectorI11CameraStackNS_9allocatorIS1_EEE8__appendEj
_zc:__ZNK11Rigidbody2D20GetAttachedCollidersER13dynamic_arrayIP10Collider2DLj4EE
L2d:_InputField_OnDisable_m1865339380
Uah:_UInt32_System_IConvertible_ToType_m747769316
Dx:__ZN7mecanim9animation12GetHumanPoseERKNS0_18ClipMuscleConstantEPKNS0_10ValueDeltaERNS_5human9HumanPoseE
ulj:__ZN6il2cpp2vm10Reflection17GetPropertyObjectEP11Il2CppClassPK12PropertyInfo
H1c:__ZN11UnityEngine9Analytics15UserCustomEvent12CustomParams6InsertEPKcRNS1_11CustomValueE
_Yj:_glDeleteVertexArrays__wrapper
yX:__Z13GetFileSystemv
b6:__ZNK5Unity4Type21FindAllDerivedClassesER13dynamic_arrayIPKS0_Lj4EENS0_17TypeFilterOptionsE
W6:__ZN13RuntimeStaticI15GUIEventManagerLb0EE16StaticInitializeEPv
rwb:__ZN14SafeBinaryRead8TransferIfEEvRT_PKc17TransferMetaFlags
wVe:_DaylightTime_get_Delta_m2316831491
EEc:__ZNSt3__27__sort5IR24RayHitsByDepthComparitorP12RaycastHit2DEEjT0_S5_S5_S5_S5_T_
S6d:_Array_InternalArray__ICollection_Contains_TisUILineInfo_t3621277874_m1175659630_gshared
E6g:_WaitHandle_WaitOne_m370363697
WGf:_FactoryCache_Lookup_m1681894361
dGd:_DateTime_Subtract_m698282245_AdjustorThunk
_vb:__ZThn32_N14SpriteRenderer15AddAsRenderNodeER15RenderNodeQueueRK20DeprecatedSourceData
gSa:__ZN19ShaderPropertySheet9SetMatrixEN9ShaderLab16FastPropertyNameERK10Matrix4x4fNS_8SetFlagsE
F9c:_RIPEMD160Managed_Initialize_m3365407578
_nb:__Z29GetTextureSizeAllowedMultiple13TextureFormat
CAf:_IPAddress_HostToNetworkOrder_m1092199707
u8d:_SetPropertyUtility_SetStruct_TisSpriteState_t1353336012_m2898060836_gshared
Wdd:_SecurityAttribute__ctor_m3425755778
K3b:__ZN21IntermediateRenderers3AddEP20IntermediateRenderer
cfj:_il2cpp_array_element_size
cg:_glCheckFramebufferStatus
I9d:_Array_compare_TisInt32_t2071877448_m840310202_gshared
PKh:_InternalEnumerator_1_System_Collections_IEnumerator_get_Current_m442726479_AdjustorThunk
DAg:_DESTransform_ECB_m2629024873
pJh:_InternalEnumerator_1_System_Collections_IEnumerator_get_Current_m790514740_AdjustorThunk
ljd:__Z37il2cpp_codegen_get_executing_assemblyPK10MethodInfo
Oae:_Array_InternalArray__IndexOf_TisByte_t3683104436_m3605266236_gshared
kVg:_GUIStyle_set_richText_m1853532836
Zsh:_RaycastAllCallback_Invoke_m981876639
L2g:_UnicodeEncoding__ctor_m72484327
HWi:_PlayerOneControls_Update_m1412454757
Uuj:__ZN14dense_hash_mapI10KeyWrapperIP14Il2CppIUnknownEjN6il2cpp5utils11PointerHashIS1_EENS3_14EqualsComparerINSt3__28equal_toIS2_EEEENS9_9allocatorINS9_4pairIKS3_jEEEEE15set_deleted_keyERSF_
G6:__ZN22BuiltinResourceManager16StaticInitializeEPv
zUe:_NumberFormatter_ScaleOrder_m1915154678
Fwc:__ZN24b2ChainAndCapsuleContact8EvaluateEP10b2ManifoldRK11b2TransformS4_
Zrf:_ClientSessionInfo_SetContext_m2649357891
XYe:_Int32_System_IConvertible_ToInt64_m3790029067_AdjustorThunk
BAc:__ZN13BoxCollider2D13PrepareShapesER13dynamic_arrayIP7b2ShapeLj4EERK10Matrix4x4f
APd:_RaycasterManager_GetRaycasters_m1154876874
kxf:_SslStreamBase_InternalReadCallback_m2524917586
E5:__ZN8Remapper6RemoveEi
pse:_List_1_CheckCollection_m2608305187_gshared
_Lc:__ZL36CleanupTextRenderingScriptingClassesv
T2a:__ZN15ReflectionProbe17UseRendererResultEP13ProbeRenderer
dnd:_Array_BinarySearch_m3270245097
Mec:__Z34Mesh_CUSTOM_SetArrayForChannelImplP12Il2CppObject30InternalScriptingShaderChannel34InternalScriptingVertexChannelTypeiP11Il2CppArrayi
M0e:_MonoIO_DeleteFile_m3273821223
ccf:_BigInteger_GenerateRandom_m2507308768
VEd:_DateTime_System_IConvertible_ToDouble_m1431748426_AdjustorThunk
Rbi:__Z76RuntimeInvoker_Void_t1841601450_Int32_t2071877448_ContactPoint2D_t3659330976PK10MethodInfoPvPS2_
E6d:_Array_InternalArray__ICollection_Contains_TisUInt16_t986882611_m510319131_gshared
See:_Array_InternalArray__Insert_TisRaycastHit2D_t4063908774_m3174907903_gshared
tId:_Decimal_ToString_m541380585
ufj:_il2cpp_class_is_valuetype
O6c:__ZZN18UnityConnectClient23RegisterGlobalCallbacksEvEN41EarlyUpdateUnityConnectClientUpdatestruct7ForwardEv
PB:__ZN11UnityEngine9Animation28GenericAnimationBindingCache25RegisterIAnimationBindingEPKN5Unity4TypeEiP17IAnimationBinding
$E:__Z106Register_UnityEngine_Experimental_Director_AnimatorControllerPlayable_INTERNAL_CALL_GetLayerWeightInternalv
v0c:__Z70RectTransformUtility_CUSTOM_INTERNAL_CALL_RectangleContainsScreenPointP12Il2CppObjectRK13Vector2fIcallS0_
xLd:_Enum_ToObject_m2601523252
vTj:dynCall_viiffiii
vVa:__Z20RenderSceneDepthPassRK19SharedRendererSceneRK17ShaderReplaceDatabR17ShaderPassContext
p1c:__ZN14UnityAnalytics25UnregisterGlobalCallbacksEv
l1a:__Z40ProcessCameraIndexListIsNodeVisibleInOutRK22SceneCullingParametersPK9SceneNodePK4AABBR9IndexList
pkb:__ZN16GraphicsSettings8TransferI17RemapPPtrTransferEEvRT_
T3e:_StreamReader__ctor_m2654332332
VZc:__ZN2UI6Canvas13UpdateBatchesEb
vqe:_List_1_CheckCollection_m3968030679_gshared
p2g:_StringBuilder_ToString_m617673931
B4c:__ZN11UnityEngine7Connect13ConfigHandler12GetListenersERKN4core12basic_stringIcNS2_20StringStorageDefaultIcEEEE
xva:__ZN9GfxDevice18AllocRenderSurfaceEb
qYb:__ZN10TagManager32GetSortingLayerUniqueIDFromValueEi
CDi:_AnchorInfo_get_IsComplete_m1247624133
DYd:_Dropdown_Show_m324374589
w_:__ZL27CleanupCoreScriptingClassesv
TRd:_RaycastResult_get_isValid_m2482925612
Aec:__Z26AnimationCurve_CUSTOM_InitP12Il2CppObjectP11Il2CppArray
c$j:_glUniform1uiv__wrapper
mwc:__ZNK14b2PolygonShape5CloneEP16b2BlockAllocator
Tmj:__ZN6il2cpp2vm10Reflection7IsEventEP12Il2CppObject
l2:__ZN17PersistentManager26GetStreamNameSpaceInternalEi
wG:__ZN4FMOD6System11createSoundEPKcjP22FMOD_CREATESOUNDEXINFOPPNS_5SoundE
_ki:_CanvasRenderer_get_cull_m3577089379
co:FUNCTION_TABLE_iiifiiii
CZg:_Object_Destroy_m4145850038
X2h:__Z109RuntimeInvoker_Void_t1841601450_PlayableHandleU26_t3483893774_Int32_t2071877448_SByte_t454417549_Il2CppObjectPK10MethodInfoPvPS2_
kij:__ZN6il2cpp2vm4Type14IsSystemDBNullEPK10Il2CppType
A0:__ZN9ShaderLab19CommonPropertyNames13StaticCleanupEPv
t3:__Z31scripting_method_get_returntype18ScriptingMethodPtr
bvh:_ScrollRect_UpdateBounds_m3266596336
hpb:__ZN15SerializeTraitsI12LightmapDataE8TransferI24GenerateTypeTreeTransferEEvRS0_RT_
YPa:_unity_z_zcfree
kWd:_ColorBlock_GetHashCode_m649325222
CXj:_glStencilOpSeparate__wrapper
Y5b:__ZN4Mesh5SetUvEiPKfjj
Rna:__ZN7Texture13SetAnisoLimitENS_20AnisotropicFilteringE
goa:__ZN28LightProbeProxyVolumeManager25UpdateSHCoeffsTextureDataER21LightProbeProxyVolume
vJa:__Z18CreateDecompressor15CompressionType18MemLabelIdentifier
SO:__ZN11AudioModule16SetListenerPauseEb
Wh:_emscripten_glCompressedTexSubImage2D
ODa:__ZN13GfxDeviceGLES22MemoryBarrierImmediateEyN2gl17MemoryBarrierTypeE
WDd:_Convert_ToUInt32_m1336475941
Htj:__ZN6il2cpp6icalls8mscorlib6System4Type18internal_from_nameEP12Il2CppStringbb
qla:__ZN6prcoreL26RemapGenericFloatToIntegerI18TexFormatARGBFloat17TexFormatARGB8888EEvPKNS_9InnerInfoE
gVc:_cff_ps_has_glyph_names
rTi:_InvokableCall_1__ctor_m2837611051_gshared
oBi:_PatternCompiler_EmitPosition_m3013268572
sGf:_X509SubjectKeyIdentifierExtension__ctor_m1109455121
P_d:_Graphic_CreateColorFromAlpha_m2614574534
Vnc:__Z44Register_UnityEngine_GUIStyle_SetDefaultFontv
QMb:__Z18Transfer_BlittableI18StreamedBinaryReadILb1EELb1EiEvRK29SerializationCommandArgumentsR31RuntimeSerializationCommandInfo
Zs:__ZN9BlobWrite8TransferI22OffsetPtrArrayTransferIKN4math7_float3EEEEvRT_PKc17TransferMetaFlags
Rcd:_TripleDES_IsWeakKey_m483013953
HDf:_X509Certificate2_get_PrivateKey_m2662162956
Ilj:__ZN15dense_hashtableINSt3__24pairIK10KeyWrapperINS1_IPK12PropertyInfoP11Il2CppClassEEEjEES9_17ReflectionMapHashIS8_EN14dense_hash_mapIS9_jSD_NS9_14EqualsComparerINS0_8equal_toIS8_EEEENS0_9allocatorISB_EEE9SelectKeyESI_SK_E12maybe_shrinkEv
gNb:__Z18Transfer_BlittableI18StreamedBinaryReadILb1EELb1EsEvRK29SerializationCommandArgumentsR31RuntimeSerializationCommandInfo
qz:__ZN26AnimatorControllerPlayable17IsMultithreadableEv
ugd:_Single_System_IConvertible_ToSByte_m3757385387
M1e:_StreamAsyncResult_SetComplete_m2141125667
Wna:__ZL21SetAnisoLimitEnumImplN7Texture20AnisotropicFilteringEb
b3c:__ZN22BaseUnityConnectClient17OnEnterStateReadyEv
vY:__GLOBAL__sub_I_platformdependent_webgl_source_lump_cpp
Zjb:__ZN14GrowableBufferD2Ev
Qdc:__Z29Input_CUSTOM_GetMouseButtonUpi
aej:__ZN6il2cpp6icalls8mscorlib6System8MonoType16InternalGetEventEP20Il2CppReflectionTypeP12Il2CppStringi
ROc:_UNITY_tt_face_load_maxp
aec:__Z46Input_CUSTOM_INTERNAL_set_compositionCursorPosRK13Vector2fIcall
su:__ZN7mecanim5human12FullBodyMaskEv
$$:__ZN19ShaderPropertySheet11ComputeHashEv
Pwc:__ZN12b2EPCollider24ComputePolygonSeparationEv
Iee:_Array_InternalArray__Insert_TisUInt16_t986882611_m2263078_gshared
oVd:_CanvasScaler_HandleScaleWithScreenSize_m80056230
NR:__ZN11UnityEngine15CloudWebService16SessionContainer16GetJsonDataBlockEjRKN4core12basic_stringIcNS2_20StringStorageDefaultIcEEEERS6_PjSA_
jdj:__ZNK6il2cpp5utils10functional6FilterINSt3__212basic_stringIcNS3_11char_traitsIcEENS3_9allocatorIcEEEENS0_11StringUtils21CaseSensitiveComparerEEclIPKcEEbRKT_
G3g:_UTF7Encoding_InternalGetBytes_m2772055844
Eaf:_SimpleCollator__cctor_m2693747668
mId:_Decimal_CompareTo_m2454501434_AdjustorThunk
A2:__ZN14SafeBinaryReadD2Ev
F9g:_UInt16_System_IConvertible_ToChar_m4055364664
EZb:__Z13RegisterClassI7TextureEvv
nOb:__ZN8Gradient8TransferI18StreamedBinaryReadILb1EEEEvRT_
hgh:_Enumerator_Dispose_m2369319718_AdjustorThunk
Fnc:__Z45Register_UnityEngine_GUIStyle_SetFontInternalv
oDc:__ZN19CollisionListener2DD0Ev
Ktj:__ZN6il2cpp6icalls8mscorlib6System4Type15MakeGenericTypeEP20Il2CppReflectionTypeP11Il2CppArray
pj:_SDL_PauseAudio
zfj:_il2cpp_class_from_type
Lnd:_Array_Sort_m2323017822
mHj:_GC_clear_mark_bit
Fth:_Scrollbar_UpdateDrag_m3839695926
KRg:_GUILayoutUtility__cctor_m2957755459
z0:__ZN9ShaderLab19CommonPropertyNames16StaticInitializeEPv
x6e:_MissingMemberException__ctor_m3710131950
FA:__ZN7mecanim9animation18CreateAvatarOutputEPKNS0_14AvatarConstantEbbRNS_6memory9AllocatorE
doc:__Z45GUIUtility_CUSTOM_Internal_GetKeyboardControlv
dAg:_CspParameters__ctor_m2546931874
fM:__ZN11AudioSource23VirtualRedirectTransferER24GenerateTypeTreeTransfer
$1c:__ZN14UnityAnalytics15SendCustomEventERN11UnityEngine9Analytics15UserCustomEventE
Ksb:__ZN14Texture2DArray23VirtualRedirectTransferER14SafeBinaryRead
oYa:__ZNK6Camera21CalculateCanDoShadowsEv
X_d:_Graphic__cctor_m1643894470
vDj:__ZN6il2cpp2os6Thread12SetStackSizeEj
bEf:_X509ChainElementEnumerator_get_Current_m2232618221
ZAb:__ZNK20ArchiveStorageReader15HasStreamBlocksEv
r6b:__ZNK8Renderer16IsVisibleInSceneEv
Xuh:_ScrollRect_set_onValueChanged_m3957749575
YX:__Z13VFormatBufferPciPKcz
fPb:__Z18Transfer_BlittableI18StreamedBinaryReadILb0EELb1EhEvRK29SerializationCommandArgumentsR31RuntimeSerializationCommandInfo
kRi:_U3CCreateWhereIteratorU3Ec__Iterator1D_1_Dispose_m1879652802_gshared
P0d:_Image_GenerateSimpleSprite_m4275440988
Bni:_Display_get_systemHeight_m3377672024
uah:_UInt16_ToString_m3280699191
ula:__ZN6prcoreL27StretchGenericFloatBilinearI15TexFormatRFloatEEvPKNS_9InnerInfoE
iQh:__Z130RuntimeInvoker_Int32_t2071877448_Il2CppObject_Int32_t2071877448_Int32_t2071877448_Il2CppObject_Int32_t2071877448_Int32_t2071877448PK10MethodInfoPvPS2_
jVh:__Z102RuntimeInvoker_Il2CppObject_Int32_t2071877448_Int32_t2071877448_Il2CppObject_Il2CppObject_Il2CppObjectPK10MethodInfoPvPS2_
yae:_Array_IndexOf_TisCustomAttributeNamedArgument_t94157543_m745056346_gshared
ZBa:__Z14PadImageBorderR14ImageReferenceii
lkj:__ZN15dense_hashtableINSt3__24pairIK10KeyWrapperINS1_IPK10MethodInfoP11Il2CppClassEEEjEES9_17ReflectionMapHashIS8_EN14dense_hash_mapIS9_jSD_NS9_14EqualsComparerINS0_8equal_toIS8_EEEENS0_9allocatorISB_EEE9SelectKeyESI_SK_E4findERSA_
Waj:__ZN6il2cpp2vm13MetadataCache28GetFieldDefaultValueForFieldEPK9FieldInfo
xAh:_ArrayReadOnlyList_1_ReadOnlyError_m2289309720_gshared
Jy:__ZN27AnimationLayerMixerPlayableD2Ev
mcj:__ZN6il2cpp2vm8basepathEPKc
vI:__ZN12AudioManager39HandlePendingAudioConfigurationCallbackEv
lk:_emscripten_glIsFramebuffer
NEa:__ZNK13TranslateGLES9GetFormatE13TextureFormat17TextureColorSpace
$2b:__ZN12_GLOBAL__N_16qAtan2Eff
fDd:_Convert_ToInt64_m954367741
pk:_JS_Sound_SetLoopPoints
Lsd:_ArrayList__ctor_m1467563650
qN:__ZN12AudioManager17ShouldSourcePauseEb
GKj:__ZN6il2cpp2vm26MetadataAllocGenericMethodEv
pGa:__ZN19ConstantBuffersGLES12RecordRenderEv
tNi:_Transform_INTERNAL_set_rotation_m3703763817
gqa:__ZN18AsyncUploadManager22UploadStreamingTextureEP28FileTextureUploadInstruction
Lqc:__ZN9JSONWrite8TransferI10RectOffsetEEvRT_PKc17TransferMetaFlags
FBa:__ZN4crnd12symbol_codec11decode_bitsEj
Qwc:__ZN15b2CircleContact8EvaluateEP10b2ManifoldRK11b2TransformS4_
yhe:_Array_Sort_TisRaycastResult_t21186376_TisRaycastResult_t21186376_m38820193_gshared
$gi:_Animator_ResetTriggerString_m1445965342
W0e:_StreamReader__ctor_m3454466728
AI:__ZN4FMOD6System12createReverbEPPNS_6ReverbE
Wbh:_UInt64_Equals_m1243465002
pOi:_Vector2_get_Item_m2792130561
Cma:__Z16MarkDependenciesR27GarbageCollectorThreadStatej
VFf:_X509ChainElementEnumerator_Reset_m3832280427
F8e:_MulticastDelegate_RemoveImpl_m2024746777
yVd:_CanvasUpdateRegistry_ParentCount_m2367607495
z8e:_MulticastDelegate_Equals_m3064081489
e7h:__Z54RuntimeInvoker_Void_t1841601450_ColorBlock_t2652774230PK10MethodInfoPvPS2_
Pjf:_Activator_CreateInstance_m1465989661
u0:__ZNK9Transform11GetPositionEv
bFi:_PositionAssertion_GetWidth_m2294218483
WSa:__ZN23SharedMeshRenderingData18UnloadVertexStreamEi
yPi:_Vector4_set_Item_m3077071044
J3b:__ZN31CanvasBatchIntermediateRenderer11AddSubBatchERK16DrawBuffersRangePK19ShaderPropertySheet
j2b:__ZN19RenderEventsContextC2Ei
$P:__Z6simd4fRKf
Mde:_Array_InternalArray__ICollection_CopyTo_TisColor32_t874517518_m379086718_gshared
vxh:_Slider_ClampValue_m2851810895
Sk:_emscripten_glEnable
iSg:_GUISkin_set_font_m4009958323
YUi:_UnityEvent_1_FindMethod_Impl_m3813546_gshared
vxj:__ZN6il2cpp2gc16GarbageCollector29RegisterFinalizerForNewObjectEP12Il2CppObject
zhb:__ZN10TagManager23VirtualRedirectTransferER14SafeBinaryRead
lOc:_UNITY_FT_Init_Class_ft_grays_raster
e$a:__Z15InitLightMeshesv
hYf:__ZL97WaitHandle_t677569169_CustomAttributesCacheGenerator_WaitHandle_t677569169____Handle_PropertyInfoP21CustomAttributesCache
Cle:_KeyValuePair_2_ToString_m1391611625_AdjustorThunk
Dn:FUNCTION_TABLE_iifiii
V7e:_MonoType_HasElementTypeImpl_m1040892148
GRa:__ZN22RenderingCommandBuffer36AcquireAndRegisterSharedMaterialDataEP8Material
sLb:__Z18Transfer_BlittableI19StreamedBinaryWriteILb0EELb1E8Vector2fEvRK29SerializationCommandArgumentsR31RuntimeSerializationCommandInfo
gTc:_cf2_arrstack_init
XRf:__ZL65ClassInterfaceAttribute_t910653559_CustomAttributesCacheGeneratorP21CustomAttributesCache
zij:__ZN15dense_hashtableINSt3__24pairIK10KeyWrapperINS1_IPK14Il2CppAssemblyP11Il2CppClassEEEjEES9_17ReflectionMapHashIS8_EN14dense_hash_mapIS9_jSD_NS9_14EqualsComparerINS0_8equal_toIS8_EEEENS0_9allocatorISB_EEE9SelectKeyESI_SK_E15insert_noresizeERKSB_
IV:__Z15CleanLogHandler7LogTypePKcz
QUb:__ZN9ShaderLab19SerializedSubShader8TransferI19StreamedBinaryWriteILb0EEEEvRT_
j3g:_UTF32Encoding_GetBytes_m2290150495
fDb:__ZN6Camera17RemoveImageFilterERK11ImageFilter
oDa:__ZNSt3__218__insertion_sort_3IR25ValueParameterArraySorterPN20GpuProgramParameters14ValueParameterEEEvT0_S6_T_
aCc:__ZN10ClipperLib7Clipper27ProcessEdgesAtTopOfScanbeamEx
tqh:_LayoutUtility_GetLayoutProperty_m4052007472
vTi:_InvokableCall_1_Invoke_m3239892614_gshared
DSa:__ZNSt3__214__split_bufferI20ComputeShaderVariantRNS_9allocatorIS1_EEED2Ev
kJc:__ZNSt3__26vectorIN4core12basic_stringIcNS1_20StringStorageDefaultIcEEEE13stl_allocatorIS5_L18MemLabelIdentifier34ELi16EEE7reserveEj
vsf:_Context_set_WriteSequenceNumber_m3356252710
eXe:_Guid_Equals_m2389236871
P0:__Z27LogRepeatingStringWithFlagsRKN4core12basic_stringIcNS_20StringStorageDefaultIcEEEE15LogMessageFlagsi
Vw:__ZNK8Playable11GetDurationEv
nx:__ZN17AnimationPlayable28ComputeNeedsBindingRebuildedEv
xpe:_List_1_CheckIndex_m3609163576_gshared
dzb:__ZN15ResourceManagerD0Ev
DDf:_X509ExtensionCollection__ctor_m1324282194
j5c:__ZN18UnityConnectClient33OnPlayerSessionStateChangedStaticEPS_jyy
aOf:__ZL74CaseInsensitiveHashCodeProvider_t2307530285_CustomAttributesCacheGeneratorP21CustomAttributesCache
Qya:__ZN7ApiGLES4LoadE16GfxDeviceLevelGL
upb:__ZN18StreamedBinaryReadILb0EE21TransferSTLStyleArrayI13dynamic_arrayI31EnlightenSystemAtlasInformationLj8EEEEvRT_17TransferMetaFlags
yBa:__ZN4crnd12crn_unpacker22decode_color_endpointsEv
Cwj:__ZN15dense_hashtableI10KeyWrapperIP18Il2CppGenericClassES3_N6il2cpp8metadata22Il2CppGenericClassHashEN14dense_hash_setIS3_S6_NS3_14EqualsComparerINS5_25Il2CppGenericClassCompareEEENSt3__29allocatorIS3_EEE8IdentityESA_SD_E15insert_noresizeERKS3_
IMe:_ReadOnlyCollection_1_System_Collections_IList_Clear_m3006875897_gshared
q1b:__ZZL31RegisterOtherRendererPropertiesR22GenericPropertyBindingEN30Wrapper_RendererReceiveShadows13GetFloatValueEPv
Koe:_Enumerator_System_Collections_IEnumerator_get_Current_m3866069145_gshared
Fba:__ZN8Material11SetPassFastEPN9ShaderLab4PassER17ShaderPassContextP6Shaderib
h5c:__ZN11UnityEngine7Connect20BasePersistentValues10SaveValuesER9JSONWrite
U$g:_Rect_get_max_m96665935_AdjustorThunk
cui:_RuntimeHelpers_InitializeArray_m3920580167
AQd:_ExecuteEvents_get_pointerDownHandler_m1172742772
DEc:__ZNSt3__27__sort4IR24RayHitsByDepthComparitorP12RaycastHit2DEEjT0_S5_S5_S5_T_
d7b:__Z14ScaleCurveTimeR17AnimationCurveTplIfEf
qFf:_X509CertificateEnumerator_System_Collections_IEnumerator_MoveNext_m3708362145
$Ua:__Z12SetupLODFadeR9GfxDeviceR17ShaderPassContextf
Nzc:__ZN26b2PolygonAndCapsuleContact6CreateEP9b2FixtureiS1_iP16b2BlockAllocator
hIi:_X501_ToString_m3328169518
T_a:__ZL24CollectForwardObjectsJobP27CollectForwardObjectsHeader
UZ:__ZN8Playable13SetGameObjectEP10GameObject
k2a:__ZNK25CameraStackRenderingState24ResolveTempToEyeTexturesEv
L0a:__Z13IsNodeVisibleRK9SceneNodeRK4AABBRK22SceneCullingParameters
x0c:__Z57RectTransformUtility_CUSTOM_INTERNAL_CALL_PixelAdjustRectP12Il2CppObjectS0_R5RectTIfE
Cvg:_DelayedFixupRecord_FixupImpl_m4249966635
$0j:_emscripten_glStencilMask__wrapper
qMc:__ZZ29InitializeTextRenderingModulevEN40CleanUpTextRenderingGarbageCollectstruct7ForwardEv
H3:__ZN11TypeManager19ClassNameToTypeInfoEPKcb
ocf:_BigInteger_ToString_m3837784224
BRa:__ZN15RenderNodeQueue7CleanupEv
gIc:__ZN16NovodexAllocator8allocateEjPKcS1_i
s_a:__Z17PrepareShadowMapsRK11CullResultsRK11ActiveLightRK10MinMaxAABB
L4g:_NativeEventCalls_CreateEvent_internal_m1605829321
Pgg:__ZL73RuntimePlatform_t1869584967_CustomAttributesCacheGenerator_MetroPlayerX64P21CustomAttributesCache
ZFh:_InternalEnumerator_1_System_Collections_IEnumerator_get_Current_m3239681450_AdjustorThunk
Q_a:__ZN9ShaderLab10GrabPassesD2Ev
YYg:_MonoBehaviour_set_useGUILayout_m2666356651
Vsb:__ZN14Texture2DArray13UploadTextureEv
q7h:__Z69RuntimeInvoker_TextGenerationSettings_t2543476768_Vector2_t2243707579PK10MethodInfoPvPS2_
zQc:_tt_cmap14_done
rna:__ZN18AwakeFromLoadQueue25RegisterObjectInstanceIDsEv
bqd:_Buffer_BlockCopy_m1586717258
WUf:__ZL93X509Certificate_t283079845_CustomAttributesCacheGenerator_X509Certificate_GetName_m2354987368P21CustomAttributesCache
gKc:__ZN20TextRenderingPrivate19NativeTextGenerator15InsertCharacterEiPj
WBc:__ZTv0_n12_N10ClipperLib7ClipperD0Ev
gNd:_CompareInfo_GetSortKey_m3691382873
Kyc:__ZN11b2RopeJoint24SolveVelocityConstraintsERK12b2SolverData
gHd:_DBNull_ToString_m3228904745
IBf:_WebHeaderCollection_AddWithoutValidate_m1479880592
b_h:__Z80RuntimeInvoker_Void_t1841601450_Int32_t2071877448_Int32_t2071877448_Il2CppObjectPK10MethodInfoPvPS2_
kof:_RC4_get_IV_m506011366
qJi:_X509Crl__ctor_m2469408229
GNh:_Enumerator_get_CurrentValue_m3562053380_AdjustorThunk
yGf:_X509SubjectKeyIdentifierExtension_CopyFrom_m136762226
Hme:_Enumerator_System_Collections_IEnumerator_Reset_m610822832_AdjustorThunk
Bfc:__Z41MonoBehaviour_Set_Custom_PropUseGUILayoutP12Il2CppObjecth
bLc:_UNITY_FT_Open_Face
SYj:_glGenRenderbuffers__wrapper
qji:_Bounds_ToString_m1966597703
jdf:_BigInteger_op_Division_m1581119694
aRb:__ZN16ScriptingManagerD0Ev
Rfi:_UnityAnalyticsHandler_CustomEvent_m2884790978
Pwg:_CallbackHandler_Invoke_m1498072969
KAg:_DSACryptoServiceProvider__ctor_m701823690
ARg:_Mathf_Clamp_m2354025655
CDg:_CustomAttributeData_GetCustomAttributes_m2421330738
Uyj:__ZN30dense_hashtable_const_iteratorINSt3__24pairIK10KeyWrapperINS1_IPKcS4_EEEiEES6_24NamespaceAndNamePairHashN14dense_hash_mapIS6_iS9_NS6_14EqualsComparerI26NamespaceAndNamePairEqualsEENS0_9allocatorIS8_EEE9SelectKeyESD_SF_EppEv
k8g:_Type_get_IsEnum_m313908919
Tbc:__Z44Register_UnityEngine_Component_get_transformv
adc:__Z39GameObject_CUSTOM_FindGameObjectWithTagP12Il2CppString
cFe:_Collection_1_System_Collections_ICollection_CopyTo_m1335644572_gshared
Yve:_List_1_CheckMatch_m2830747427_gshared
oJa:__ZN17ArchiveFileSystem12MountArchiveEPKcS1_
Vpc:__Z18Transfer_BlittableI9JSONWriteLb1E8Vector4fEvRK29SerializationCommandArgumentsR31RuntimeSerializationCommandInfo
A_:__Z11RequireTypePKcS0_S0_
SNh:_Enumerator_System_Collections_IEnumerator_Reset_m70453843_gshared
_pb:__ZThn32_NK8Renderer14GetSubsetIndexEi
SOi:_Vector3_get_Item_m3616014016
e0b:__ZN13ProduceHelperI15ResourceManagerLb0EE7ProduceE18MemLabelIdentifier18ObjectCreationMode
mwa:__ZN9GfxDevice15ImmediateVertexEfff
lZb:__Z13RegisterClassI8MaterialEvv
mMd:_FieldAccessException__ctor_m3893881490
x4h:__Z82RuntimeInvoker_Int32_t2071877448_Rect_t3681755626_Il2CppObject_Vector2_t2243707579PK10MethodInfoPvPS2_
_ta:__ZN13GfxDeviceGLES15SetStencilStateEPK18DeviceStencilStatei
okj:__ZN15dense_hashtableINSt3__24pairIK10KeyWrapperINS1_IPK10MethodInfoP11Il2CppClassEEEjEES9_17ReflectionMapHashIS8_EN14dense_hash_mapIS9_jSD_NS9_14EqualsComparerINS0_8equal_toIS8_EEEENS0_9allocatorISB_EEE9SelectKeyESI_SK_E6insertERKSB_
YOj:_cycle
hMi:_TextGenerator_Populate_m4139823822
Md:_emscripten_glUniform1iv
Syh:_Text_get_preferredHeight_m452532789
aEc:__ZN15b2DistanceProxy3SetEPK7b2Shapei
khd:_String_System_IConvertible_ToDouble_m3860911722
z9a:__ZN16MemoryFileSystemD2Ev
UTb:__ZN9ShaderLab18SerializedPropertyD2Ev
sKc:__Z17dynamic_pptr_castIP9Texture2D7TextureET_RK4PPtrIT0_E
Lx:__ZN7mecanim14ValueArrayLoopERKNS_10ValueArrayES2_RS0_fRKNS_14ValueArrayMaskE
ZNe:_ReadOnlyCollection_1_System_Collections_IList_set_Item_m1272038804_gshared
BBh:_InternalEnumerator_1_System_Collections_IEnumerator_get_Current_m1931522460_AdjustorThunk
Sdd:_SecurityPermission_IsEmpty_m1869313067
jFf:_X509CertificateCollection__ctor_m3709509050
vbc:__Z37Register_UnityEngine_Camera_get_depthv
wgf:_EncryptedPrivateKeyInfo_get_Salt_m2734354394
VPe:_ReadOnlyCollection_1_System_Collections_Generic_IListU3CTU3E_set_Item_m1918537449_gshared
GDe:_Collection_1_System_Collections_ICollection_CopyTo_m3896480607_gshared
eRd:_PointerEventData_set_position_m794507622
v4h:__Z115RuntimeInvoker_Void_t1841601450_Rect_t3681755626_Il2CppObject_Int32_t2071877448_Int32_t2071877448_Int32_t2071877448PK10MethodInfoPvPS2_
v9:__ZN15dense_hashtableINSt3__24pairIKPKcPK4RTTIEES3_N11TypeManager23ConstCharPtrHashFunctorEN14dense_hash_mapIS3_S7_SA_NS9_19ConstCharPtrEqualToE13stl_allocatorIS8_L18MemLabelIdentifier6ELi16EEE9SelectKeyESC_SF_E12resize_deltaEjj
k9a:__Z23ConvertIntegerToTypePtrItEbPvR14SafeBinaryRead
hri:_AnimatorControllerPlayable_IsParameterControlledByCurveID_m4183631446
Iu:__ZN7mecanim5human29HumanGetGoalOrientationOffsetENS0_4GoalE
be:_emscripten_glStencilFunc
wVh:__Z101RuntimeInvoker_Void_t1841601450_Il2CppObject_Il2CppObject_Il2CppObject_Il2CppObject_Int32_t2071877448PK10MethodInfoPvPS2_
Bud:_SynchronizedArrayListWrapper_get_Capacity_m2541698837
EMg:_MonoMethod_MakeGenericMethod_impl_m2063853616
Ifd:__Z46il2cpp_codegen_get_marshal_directive_exceptionPKc
SVb:__ZN9ShaderLab20SerializedSubProgram14AddMatrixParamEPKcii15ShaderParamTypei
he:_glGetActiveUniformBlockName
ED:__ZN26AnimatorControllerPlayable23ValidateParameterStringE17GetSetValueResultRKN4core12basic_stringIcNS1_20StringStorageDefaultIcEEEE
mXe:_Guid_AppendByte_m2890893073
mIg:_MethodBuilder_Invoke_m1874904900
nrd:_Char_System_IConvertible_ToType_m3106771703_AdjustorThunk
BIf:_Interval_Intersects_m3480157390_AdjustorThunk
uec:__Z39Quaternion_CUSTOM_INTERNAL_CALL_InverseRK11QuaternionfRS_
Cui:_GCHandle_Alloc_m1063472408
sJ:__ZN4FMOD7Channel20set3DConeOrientationEP11FMOD_VECTOR
sn:FUNCTION_TABLE_iiifii
Szg:_CryptoConfig_CreateFromName_m391442950
Tzj:__ZN6il2cpp2vm12GenericClass11SetupEventsEP11Il2CppClass
HWc:_tt_delta_interpolate
sQc:_tt_cmap12_get_info
nyd:_SortedList__ctor_m3698381356
vvj:__ZN6il2cpp2vm15ReboxIReferenceEP14Il2CppIUnknownP11Il2CppClass
w4e:_StreamWriter_LowLevelWrite_m4205372900
nXi:__ZN6il2cpp6icalls8mscorlib6System7Decimal14decimalCompareEP19il2cpp_decimal_reprS5_
xJj:__ZThn4_N6il2cpp2vm13CachedCCWBaseINS0_13ManagedObjectEE7ReleaseEv
Tvd:_CollectionBase_System_Collections_IList_get_Item_m2370387510
nhe:_Array_Sort_TisCustomAttributeNamedArgument_t94157543_m3436077809_gshared
d_j:_glCopyTexImage2D__wrapper
O1g:_ResourceRequest__ctor_m3340010930
s4d:_LayoutElement__ctor_m789941073
Lji:_Camera_FireOnPreCull_m1679634170
Xia:__Z18ClearByDrawingQuad13GfxClearFlagsRK10ColorRGBAffjR17ShaderPassContext
mxi:_DynamicPropertyCollection_FindProperty_m1233265924
Ska:__ZN6prcoreL17RemapGenericFloatI14TexFormatRHalf15TexFormatRFloatEEvPKNS_9InnerInfoE
OUa:__Z16ShouldUseShadowsb
JZ:__ZN15DirectorManager21RebuildStageCallbacksEv
Tla:__ZN19RuntimeSceneManager9LoadSceneERKN4core12basic_stringIcNS0_20StringStorageDefaultIcEEEES6_S6_RK9UnityGUIDiNS_11LoadingModeE
rCa:__ZN7ApiGLES10DrawArraysE16GfxPrimitiveTypejjj
noi:_Event_PopEvent_m1952528237
$G:__ZN10SampleClip13LoadBaseSoundEv
WTh:__Z62RuntimeInvoker_Il2CppObject_Int32_t2071877448_SByte_t454417549PK10MethodInfoPvPS2_
Jxj:__ZN15dense_hashtableINSt3__24pairIK10KeyWrapperIP12Il2CppObjectEN6il2cpp2gc9CachedCCWEEES5_NS7_5utils11PointerHashIS3_EEN14dense_hash_mapIS5_S9_SD_NS5_14EqualsComparerINS0_8equal_toIS4_EEEENS0_9allocatorISA_EEE9SelectKeyESI_SK_E15insert_noresizeERKSA_
mIe:_Collection_1_Contains_m643401393_gshared
Wia:__ZN22DeviceMVPMatricesStateC2ER9GfxDevice
chd:_String__ctor_m372528291
cn:FUNCTION_TABLE_iifii
gpj:__ZN6il2cpp2vm10Reflection12HasAttributeEP9FieldInfoP11Il2CppClass
ana:__ZNSt3__26__treeIiNS_4lessIiEE13stl_allocatorIiL18MemLabelIdentifier1ELi16EEE7destroyEPNS_11__tree_nodeIiPvEE
oc:invoke_viiifi
Api:_AnimationClipPlayable_GetSpeed_m668389965
u7e:_LongComparer_Compare_m3981323622
Hxh:_Slider_FindSelectableOnUp_m15474611
Mra:__ZNK11AssetBundle14GetPreloadDataEiR13dynamic_arrayIiLj4EE
Ehf:_EncryptedData_get_EncryptedContent_m2732115576
GWh:__Z81RuntimeInvoker_Boolean_t3825574718_SByte_t454417549_Il2CppObject_SByte_t454417549PK10MethodInfoPvPS2_
rf:_JS_Sound_SetPosition
ECi:_Assertion_set_FalseExpression_m1781616372
uGf:_X509SubjectKeyIdentifierExtension_FromHexChars_m2515150420
xaj:__ZL13GetSharedInstPK17Il2CppGenericInst
QMf:__ZL51IReflect_t3412036974_CustomAttributesCacheGeneratorP21CustomAttributesCache
dTd:_StandaloneInputModule_SendSubmitEventToSelectedObject_m3421155293
cmi:_Component_GetComponentsInChildren_m908027537
o3c:__ZN22BaseUnityConnectClient17SaveSessionValuesEv
$yi:_CallContextRemotingData_Clone_m2226242476
$1:__Z63ThreadAndSerializationSafeCheckSetMonoBehaviourBeingTransferredP13MonoBehaviour
W_a:__Z24SetupActiveLightsContextR21ActiveLightingContextRK12ActiveLightsRK11CullResultsP14ShadowMapCacheRK10MinMaxAABB
Sgc:__Z38Sprite_CUSTOM_INTERNAL_get_textureRectP12Il2CppObjectP5RectTIfE
cHd:_DBNull_System_IConvertible_ToUInt32_m2681284284
Unj:__ZNK15dense_hashtableINSt3__24pairIK10KeyWrapperIPK22Il2CppGenericParameterEPK24MonoGenericParameterInfoEES6_N6il2cpp5utils11PointerHashIS4_EEN14dense_hash_mapIS6_SA_SF_NS6_14EqualsComparerINS0_8equal_toIS5_EEEENS0_9allocatorISB_EEE9SelectKeyESK_SM_E3endEv
Iib:__ZN6Camera8TransferI24GenerateTypeTreeTransferEEvRT_
uoh:_EqualityComparer_1__cctor_m416314417_gshared
Ka:invoke_iiiiiiif
Ga:invoke_iiiiiiii
IBb:__ZN24RingBufferMemoryFileData16ConsumeReadBytesEy
kYg:_Mesh_GetUVChannel_m364477864
NEf:_X509ChainElementCollection_Contains_m3599995067
S1j:b120
V1j:b123
U1j:b122
X1j:b125
W1j:b124
Z1j:b127
Y1j:b126
$1j:b129
igc:__Z52Register_UnityEngine_RectTransform_INTERNAL_get_rectv
m_:__Z21PostprocessStacktracePKcRN4core12basic_stringIcNS1_20StringStorageDefaultIcEEEE
hca:__ZN19RenderBufferManager13GetTempBufferEii17DepthBufferFormat19RenderTextureFormatj22RenderTextureReadWrite14VRTextureUsagei
Xyb:__ZN18StreamedBinaryReadILb0EE21TransferSTLStyleArrayI13dynamic_arrayI16SplashScreenLogoLj4EEEEvRT_17TransferMetaFlags
B7d:_Array_InternalArray__ICollection_Remove_TisX509ChainStatus_t4278378721_m4127982424_gshared
Gbc:__Z47Register_UnityEngine_Camera_get_allCamerasCountv
qad:___clang_call_terminate
r3c:__ZN22BaseUnityConnectClient20StartEventDispatcherEv
f6b:__ZNSt3__26vectorIj13stl_allocatorIjL18MemLabelIdentifier1ELi16EEE6assignIPKtEENS_9enable_ifIXaasr21__is_forward_iteratorIT_EE5valuesr16is_constructibleIjNS_15iterator_traitsIS9_E9referenceEEE5valueEvE4typeES9_S9_
Bs:__ZN7mecanim9animation16EvaluateAvatarIKEPKNS0_14AvatarConstantEPKNS0_11AvatarInputEPNS0_12AvatarOutputEPNS0_12AvatarMemoryEPNS0_15AvatarWorkspaceEb
UCa:__ZL25ProgramUniformMatrix4x3fvPK7ApiGLESjiihPKv
D2h:__Z83RuntimeInvoker_Il2CppObject_RayU26_t3651946800_Single_t2076509932_Int32_t2071877448PK10MethodInfoPvPS2_
DOa:__ZN12InputManager13InputEndFrameEv
Uxd:_SyncHashtable__ctor_m2029869827
erj:__ZN6il2cpp2vm6Thread5SetupEP12Il2CppThread
iRe:_ReadOnlyCollection_1_System_Collections_IList_Remove_m2200089035_gshared
yWi:_ObjStatsCorrect_SetNameCat_m1244961542
BDe:_Collection_1_CheckWritable_m2756357359_gshared
bQj:___munmap
N1d:_InputField_get_characterLimit_m2386380888
rlg:__ZL68ColorBlock_t2652774230_CustomAttributesCacheGenerator_m_PressedColorP21CustomAttributesCache
TCd:_Convert_ToInt64_m1722087499
ig:_localtime_r
n1h:__Z74RuntimeInvoker_Vector3_t2243707580_Vector3_t2243707580_Vector3_t2243707580PK10MethodInfoPvPS2_
I0h:__Z80RuntimeInvoker_Il2CppObject_Ray_t2469606224_Single_t2076509932_Int32_t2071877448PK10MethodInfoPvPS2_
kg:_strftime
rca:__ZN7Texture33SetStoredColorSpaceNoDirtyNoApplyE17TextureColorSpace
eY:__ZN12FileAccessorD2Ev
Etb:__ZN14VertexDataInfoC2Ev
hMd:_Exception_GetObjectData_m2653827630
ZOi:_Vector3_Equals_m2692262876_AdjustorThunk
IEh:_InternalEnumerator_1_get_Current_m2415979394_gshared
MNb:__ZL17Transfer_GUIStyleI18StreamedBinaryReadILb1EELb1EEvRK29SerializationCommandArgumentsR31RuntimeSerializationCommandInfo
Huh:_ScrollRect_SetDirtyCaching_m1491302821
Sdj:__ZN6il2cpp6icalls8mscorlib6SystemL9IsPrivateEPK12PropertyInfo
EDg:_CustomAttributeData_GetCustomAttributes_m3258419955
L0:__ZN9shadertag10InitializeEv
bVa:__ZN13BatchRenderer20RenderSingleWithPassER17ShaderPassContextPK18SharedMaterialDataP6ShaderPN9ShaderLab4PassEiPKNS7_10GrabPassesEjib15BatchBreakCause
_D:__Z92Register_UnityEngine_Experimental_Director_AnimationOffsetPlayable_INTERNAL_CALL_SetRotationv
qrb:__ZN15QualitySettings14QualitySetting8TransferI24GenerateTypeTreeTransferEEvRT_
yde:_Array_InternalArray__ICollection_CopyTo_TisParameterModifier_t1820634920_m4127516211_gshared
ikd:_DecoderReplacementFallback__ctor_m2344783488
teh:_Enumerator_System_Collections_IDictionaryEnumerator_get_Key_m467957770_AdjustorThunk
sXc:__Z28Font_Get_Custom_PropMaterialP12Il2CppObject
FJj:__ZN6il2cpp6icalls8mscorlib6System9Threading16NativeEventCalls19ResetEvent_internalE12Il2CppIntPtr
Yig:__ZL65EventTrigger_t1967201810_CustomAttributesCacheGenerator_delegatesP21CustomAttributesCache
BFe:_Collection_1_Remove_m4136193368_gshared
UPd:_EventTrigger_OnPointerUp_m2791622548
Qwh:_Shadow_set_useGraphicAlpha_m141905402
r5b:__ZN22BlockMemoryCacheWriter14LockCacheBlockEjPPhS1_
wDj:__ZN6il2cpp2os6Thread10RunWrapperEPv
fug:_RealProxy_InternalGetTransparentProxy_m3415358600
ctc:__Z22TransferField_NonArrayI8JSONRead27Converter_SimpleNativeClassI8GUIStyleEEvRK23StaticTransferFieldInfoR31RuntimeSerializationCommandInfoRT0_
Qg:_llvm_eh_typeid_for
q3b:__Z13RegisterClassI10GameObjectEvv
qOf:__ZL53HashValues_t2390200547_CustomAttributesCacheGeneratorP21CustomAttributesCache
xDf:_X509BasicConstraintsExtension_get_PathLengthConstraint_m3004531343
D6e:_MissingMemberException__ctor_m4277447068
nqe:_List_1_Find_m1881447651_gshared
UNg:_StrongNameKeyPair_System_Runtime_Serialization_ISerializable_GetObjectData_m1693082120
BPb:__Z18Transfer_BlittableI18StreamedBinaryReadILb0EELb1E8Vector4fEvRK29SerializationCommandArgumentsR31RuntimeSerializationCommandInfo
VBj:__ZN6il2cpp2vm6Method8GetParamEPK10MethodInfoj
h_e:_Int64_CompareTo_m1953686218
zuj:__ZN6il2cpp6icalls8mscorlib6System2IO6MonoIO4ReadE12Il2CppIntPtrP11Il2CppArrayiiPi
B0j:_glBindVertexArray__wrapper
GAg:_DSA_Create_m3450041777
Mga:__ZN8Material8TransferI14SafeBinaryReadEEvRT_
mni:_Debug_LogWarningFormat_m79553173
Wmb:__ZN12CubemapArray17UploadToGfxDeviceEv
hvh:_ScrollRect_AdjustBounds_m1033723448
dla:__ZN6prcoreL17RemapGenericFloatI15TexFormatRGHalf17TexFormatRGBAHalfEEvPKNS_9InnerInfoE
Gne:_Enumerator_System_Collections_IEnumerator_Reset_m2200349770_gshared
J6:__ZN13RuntimeStaticI21AssetReferenceStorageLb0EE16StaticInitializeEPv
r_h:__Z107RuntimeInvoker_Boolean_t3825574718_Int32_t2071877448_Int64U5BU5DU26_t2476256456_StringU5BU5DU26_t3730240492PK10MethodInfoPvPS2_
jEf:_X509Chain_CheckRevocationOnChain_m2441901351
qJj:__ZN6il2cpp2vm13ManagedObject14QueryInterfaceERK10Il2CppGuidPPv
Ccd:_SymmetricAlgorithm_CreateDecryptor_m4240570785
R8g:_Type_GetMethod_m3650909507
vH:__ZN11AudioSource4StopEb
EOj:_frexp
uHb:__ZN14SafeBinaryRead21TransferSTLStyleArrayI13dynamic_arrayI10Matrix4x4fLj4EEEEvRT_17TransferMetaFlags
nJe:_Collection_1_CheckWritable_m732350052_gshared
oqd:_Byte_System_IConvertible_ToDecimal_m1036493607
lba:__Z25GetSplashScreenBackgroundRK5RectTIfE
u9:__ZN14dense_hash_mapIPKcPK4RTTIN11TypeManager23ConstCharPtrHashFunctorENS5_19ConstCharPtrEqualToE13stl_allocatorINSt3__24pairIKS1_S4_EEL18MemLabelIdentifier6ELi16EEEixERSB_
n6c:__ZN13RuntimeStaticI19UnityConnectServiceLb0EE16StaticInitializeEPv
JLh:_DefaultComparer_Compare_m1247109616_gshared
hOg:_ResourceManager__ctor_m498829021
XGa:__ZN18GlslGpuProgramGLESD2Ev
m6a:__ZN13RenderTexture14SetVolumeDepthEi
Qwg:_SerializationCallbacks__ctor_m722356782
Itc:__ZN10Matrix4x4f8TransferI8JSONReadEEvRT_
J3:__ZN14dense_hash_mapIPKcPK4RTTIN11TypeManager23ConstCharPtrHashFunctorENS5_19ConstCharPtrEqualToE13stl_allocatorINSt3__24pairIKS1_S4_EEL18MemLabelIdentifier6ELi16EEE5beginEv
P1:__ZN17PersistentManager18ReadObjectThreadedEi
_xa:__ZN25TransformFeedbackSkinning31CleanupTransformFeedbackShadersEv
VFj:__ZN6il2cpp6icalls8mscorlib6System7Runtime16CompilerServices14RuntimeHelpers15InitializeArrayEP11Il2CppArray12Il2CppIntPtr
fGh:_InternalEnumerator_1_System_Collections_IEnumerator_get_Current_m2851415307_gshared
iKc:__ZNK20TextRenderingPrivate8FontImpl19GetCharacterAdvanceEjijfPj
QLj:__ZN6il2cpp6icalls8mscorlib4Mono8Security12Cryptography18KeyPairPersistence16_IsUserProtectedEP12Il2CppString
Lzf:_DefaultUriParser__ctor_m4218024811
cFg:_DerivedType_GetField_m3960169619
FHd:_Decimal_System_IConvertible_ToInt16_m3159038792_AdjustorThunk
lsb:__ZN10VertexData8TransferI18StreamedBinaryReadILb0EEEEvRT_
hif:_PKCS12_GetExistingParameters_m2413397265
y6a:__ZN14PreloadManager16UpdatePreloadingEv
$Sh:__Z148RuntimeInvoker_Int32_t2071877448_Il2CppObject_Int32_t2071877448_Int32_t2071877448_Il2CppObject_Int32_t2071877448_Int32_t2071877448_Int32_t2071877448PK10MethodInfoPvPS2_
PDj:__ZN14dense_hash_mapI10KeyWrapperIPK19Il2CppGenericMethodEP10MethodInfoN6il2cpp8metadata23Il2CppGenericMethodHashENS4_14EqualsComparerINS8_26Il2CppGenericMethodCompareEEENSt3__29allocatorINSD_4pairIKS4_S6_EEEEEC2EjRKS9_RKSC_
Gbb:__ZNK21UnityDefaultAllocatorI17LowLevelAllocatorE8ContainsEPKv
_h:_emscripten_get_main_loop_timing
C0e:_DirectoryInfo__ctor_m3750996792
wUd:_BaseMeshEffect_ModifyMesh_m2134816219
prb:__ZN24GenerateTypeTreeTransfer21TransferSTLStyleArrayINSt3__26vectorIN15QualitySettings14QualitySettingENS1_9allocatorIS4_EEEEEEvRT_17TransferMetaFlags
O4a:__ZN23ManagedAttributeManager52CallManagedGetParentTypeDisallowingMultipleInclusionE17ScriptingClassPtr
nke:_Array_InternalArray__get_Item_TisAnimatorClipInfo_t3905751349_m2163447872_gshared
oxb:__ZNSt3__26vectorI9InputAxisNS_9allocatorIS1_EEE6resizeEj
iVa:__ZN13BatchRendererC2ER15RenderLoopStatsRK15RenderNodeQueuebbb
Zdd:_SecurityElement_IsValidAttributeValue_m483287146
gkd:_Decoder_set_Fallback_m1780632169
pp:getTempRet0
y3h:__Z81RuntimeInvoker_Void_t1841601450_PlayableHandleU26_t3483893774_Vector3_t2243707580PK10MethodInfoPvPS2_
Hpi:_AnimationClipPlayable_set_applyFootIK_m1054409049
KVh:__Z114RuntimeInvoker_Void_t1841601450_Il2CppObject_Il2CppObject_Int32_t2071877448_Il2CppObject_Il2CppObject_Il2CppObjectPK10MethodInfoPvPS2_
X0d:_Image_AddQuad_m1603575622
fof:_PrivateKeyInfo_RemoveLeadingZero_m3396807048
$rj:__ZN6il2cpp6icalls8mscorlib6System9ThreadingL21lookup_cached_cultureEP12Il2CppThreadi
S$a:__ZN18DeferredRenderLoopD2Ev
C4:__ZNK16TypeTreeIterator4NameEv
DX:__ZN15FileSystemEntry3SetEPKc
hgj:_il2cpp_method_has_attribute
j8c:_MACTripleDES__ctor_m884945242
bJ:__ZN20SoundChannelInstance15ParameterBuffer5ApplyEPN4FMOD7ChannelE
dF:__Z117Register_UnityEngine_Experimental_Director_AnimatorControllerPlayable_INTERNAL_CALL_GetAnimatorTransitionInfoInternalv
fKc:__ZN20TextRenderingPrivate19NativeTextGenerator9InsertTabEv
QQg:_Rect_set_y_m4294916608
E3c:__ZN11UnityEngine15PlatformWrapper24GetRuntimePlatformStringEv
Ii:_glIsEnabled
LDb:__Z25scripting_class_get_image17ScriptingClassPtr
Mi:_emscripten_glDrawElementsInstanced
Fz:__ZN26AnimatorControllerPlayable27SetupStateMachineBehavioursEv
Hmf:_ARC4Managed_Dispose_m4102232694
$mf:_HMAC_Initialize_m3052649104
Gqa:__ZN18JobBatchDispatcherD2Ev
TWb:__ZN9Transform17MainThreadCleanupEv
dIj:_GC_clear_hdr_marks
zXj:_glScissor__wrapper
w1j:_emscripten_glCreateShader__wrapper
KSc:_cff_fd_select_get
LRf:__ZL73CompilationRelaxationsAttribute_t238494011_CustomAttributesCacheGeneratorP21CustomAttributesCache
acd:_SHA512Managed_processBlock_m3220567420
_yf:_NameObjectCollectionBase_get_Keys_m446053925
Wi:_emscripten_glGetShaderiv
ENa:__ZZ23InitPlayerLoopCallbacksvEN41EarlyUpdateUpdateAllUnityWebStreamsstruct7ForwardEv
dK:__ZN4FMOD6System10getVersionEPj
b1e:_FileLoadException_GetObjectData_m2047020314
obe:_Array_InternalArray__IndexOf_TisSByte_t454417549_m1427585061_gshared
$Xc:__ZN2UI6Canvas23VirtualRedirectTransferER24GenerateTypeTreeTransfer
_zd:_Decimal_u64_m3991988111
XRi:_Predicate_1_BeginInvoke_m2959352225_gshared
Pkh:_Dictionary_2_CopyToCheck_m2147716750_gshared
yHi:_X509Certificate_Parse_m1764345628
pyi:_SynchronizationAttribute_GetClientContextSink_m1264319894
NIc:__ZN13TextRendering4Font13AwakeFromLoadE17AwakeFromLoadMode
Zua:__ZN9GfxDevice21ReleaseSharedMeshDataEP14SharedMeshData
eyb:__ZNSt3__27__sort5IRNS_6__lessINS_4pairIPKN5Unity4TypeE7Hash128EES8_EEPS8_EEjT0_SC_SC_SC_SC_T_
uGe:_Collection_1_ConvertItem_m3168406667_gshared
w6i:__ZNK15dense_hashtableINSt3__24pairIK10KeyWrapperIPKcEP11Il2CppClassEES5_N6il2cpp5utils11StringUtils12StringHasherIS4_EEN14dense_hash_mapIS5_S8_SE_NS5_14EqualsComparerINSC_21CaseSensitiveComparerEEENS0_9allocatorIS9_EEE9SelectKeyESI_SK_E10test_emptyEj
kHj:_GC_unreachable_finalize_mark_proc
IIj:_maybe_finalize
nzi:_ConstructionCall_GetObjectData_m3974358557
agc:__Z43RectTransform_CUSTOM_INTERNAL_get_anchorMaxP12Il2CppObjectP13Vector2fIcall
LGd:_DateTimeOffset_get_DateTime_m229084964_AdjustorThunk
zga:__ZN8Material28UpdateHashesOnPropertyChangeEN9ShaderLab16FastPropertyNameE
Mgc:__Z53Register_UnityEngine_SortingLayer_GetLayerValueFromIDv
xvd:_CaseInsensitiveComparer_Compare_m1192858479
xFb:__Z18Transfer_BlittableI14SafeBinaryReadLb1E8Vector4fEvRK29SerializationCommandArgumentsR31RuntimeSerializationCommandInfo
p5d:_LayoutRebuilder_Clear_m2390054824
oDg:_Default_SelectMethod_m622251293
jM:__ZN11AudioSource12AddToManagerEv
Sr:__ZN8Animator23VirtualRedirectTransferER19StreamedBinaryWriteILb0EE
Vv:__ZN11UnityEngine9Animation32CreateAnimatorGenericBindingsOptERKNS0_20AnimationSetBindingsER9TransformPKN7mecanim9animation14AvatarConstantEPKNS0_21AvatarBindingConstantEbRNS6_6memory9AllocatorER8Animator
syj:__ZN6il2cpp2vm5Image13ClassFromNameEPK11Il2CppImagePKcS6_
ATj:dynCall_vdddddd
cUb:__ZN24GenerateTypeTreeTransfer21TransferSTLStyleArrayINSt3__26vectorIN9ShaderLab14SerializedPassENS1_9allocatorIS4_EEEEEEvRT_17TransferMetaFlags
u1:__ZL32MarkLevelGameManagerDependenciesR27GarbageCollectorThreadState
hxa:__ZNK13GfxDeviceGLES26HasActiveRandomWriteTargetEv
qYj:_glGetActiveUniformsiv__wrapper
Jgc:__Z43Register_UnityEngine_Material_EnableKeywordv
U2:__ZN13MonoBehaviour19SetupScriptingCacheE17ScriptingClassPtrP10MonoScript
a_h:__Z59RuntimeInvoker_Il2CppObject_Double_t4078015681_Il2CppObjectPK10MethodInfoPvPS2_
ir:__Z20AnimationEventToMonoRK14AnimationEventR18MonoAnimationEvent
Mhg:__ZL74UnityEventBase_t828812576_CustomAttributesCacheGenerator_m_PersistentCallsP21CustomAttributesCache
buj:__ZN6il2cpp2vm13LivenessState18ShouldProcessValueEP12Il2CppObjectP11Il2CppClass
uVh:__Z45RuntimeInvoker_Il2CppObject_IntPtr_t_IntPtr_tPK10MethodInfoPvPS2_
ATb:__ZNSt3__26vectorIN9ShaderLab14SerializedPassENS_9allocatorIS2_EEE8__appendEj
TSb:__ZNSt3__26vectorIN9ShaderLab20SerializedSubProgram13BufferBindingENS_9allocatorIS3_EEEC2INS_11__wrap_iterIPS3_EEEET_SB_RKS5_PNS_9enable_ifIXaasr21__is_forward_iteratorISB_EE5valuesr16is_constructibleIS3_NS_15iterator_traitsISB_E9referenceEEE5valueEvE4typeE
czc:__ZN12b2WheelJoint24SolveVelocityConstraintsERK12b2SolverData
iTh:__Z170RuntimeInvoker_Int32_t2071877448_Il2CppObject_Int32_t2071877448_Int32_t2071877448_Il2CppObject_Int16_t4041245914_Int32_t2071877448_SByte_t454417549_ContextU26_t3131521781PK10MethodInfoPvPS2_
nob:__ZN9Texture2D23VirtualRedirectTransferER18StreamedBinaryReadILb0EE
WAc:__ZN10Collider2D8TransferI24GenerateTypeTreeTransferEEvRT_
mKd:_Double_System_IConvertible_ToUInt16_m286326038_AdjustorThunk
_ug:_TypeInfo__ctor_m1475908211
Ohb:__ZNSt3__26__treeINS_12__value_typeIN4core12basic_stringIcNS2_20StringStorageDefaultIcEEEEjEENS_19__map_value_compareIS6_S7_NS_4lessIS6_EELb1EEE13stl_allocatorIS7_L18MemLabelIdentifier6ELi16EEE7destroyEPNS_11__tree_nodeIS7_PvEE
A3:__ZN16ScriptingManager27NativeTypeForScriptingClassE17ScriptingClassPtr
kEf:_X509Chain_WrapUp_m1072032285
UIi:_X509CertificateEnumerator_System_Collections_IEnumerator_MoveNext_m1448966539
MPc:_get_sfnt_table
Mke:_Object_FindObjectOfType_TisIl2CppObject_m2967490724_gshared
Grf:_TlsServerHelloDone__ctor_m2125611008
GPa:_unity_z_tr_stored_block
K9d:_Array_compare_TisIl2CppObject_m1481822507_gshared
gRd:_PointerEventData_set_pressPosition_m2094137883
e1a:__ZL22ScheduleSceneNodesJobsP25ScheduleSceneNodesJobDataj
Kk:_emscripten_set_canvas_size
tlf:_BigInteger_op_Subtraction_m972393015
$Mh:_Comparer_1__cctor_m2253684996_gshared
jTb:__ZNSt3__26vectorIN9ShaderLab20SerializedSubProgramENS_9allocatorIS2_EEE8__appendEj
VU:__ZN20DynamicHeapAllocatorI17LowLevelAllocatorE8AllocateEji
D1c:__ZN11UnityEngine9Analytics15UserCustomEvent12ToJsonStringER9JSONWrite
KVa:__ZN20DynamicPropertySheet15SetVectorQueuedERKN9ShaderLab16FastPropertyNameERK8Vector4fN19ShaderPropertySheet8SetFlagsE
SOe:_ReadOnlyCollection_1_System_Collections_IEnumerable_GetEnumerator_m4248982967_gshared
zs:__ZN7mecanim9animation22EvaluateAvatarRetargetEPKNS0_14AvatarConstantEPKNS0_11AvatarInputEPNS0_12AvatarOutputEPNS0_12AvatarMemoryEPNS0_15AvatarWorkspaceEb
rlb:__ZN14RenderSettings23VirtualRedirectTransferER19StreamedBinaryWriteILb0EE
iqc:__ZL26Transfer_SimpleNativeClassI9JSONWrite10RectOffsetLb0EEvRK29SerializationCommandArgumentsR31RuntimeSerializationCommandInfo
EHj:_GC_push_conditional
Q1c:__ZN21UnityAnalyticsManager23VirtualRedirectTransferER24GenerateTypeTreeTransfer
JAa:__ZN17GenericDynamicVBO10AllocateVBEjR21DynamicVBOChunkHandle
Ere:_List_1_get_Item_m1547593893_gshared
n0e:_Path_GetPathRoot_m1269357080
owj:__ZN30dense_hashtable_const_iteratorI10KeyWrapperIP18Il2CppGenericClassES3_N6il2cpp8metadata22Il2CppGenericClassHashEN14dense_hash_setIS3_S6_NS3_14EqualsComparerINS5_25Il2CppGenericClassCompareEEENSt3__29allocatorIS3_EEE8IdentityESA_SD_EppEv
xPd:_EventSystem_SetSelectedGameObject_m2211816110
gl:_glMapBufferRange
gob:__ZN9Texture2D8TransferI18StreamedBinaryReadILb0EEEEvRT_
Pdc:__Z31Input_CUSTOM_GetMouseButtonDowni
mEj:__ZN15dense_hashtableINSt3__24pairIK10KeyWrapperIPK19Il2CppGenericMethodEP10MethodInfoEES6_N6il2cpp8metadata23Il2CppGenericMethodHashEN14dense_hash_mapIS6_S9_SD_NS6_14EqualsComparerINSC_26Il2CppGenericMethodCompareEEENS0_9allocatorISA_EEE9SelectKeyESH_SJ_E3endEv
b4b:__ZN13PlayableGraph4PlayEv
uTa:__ZNK9Transform16GetLocalPositionEv
Sra:__ZN13LoadOperation19IntegrateTimeSlicedEi
_qb:__ZNK15QualitySettings26GetTypeInfoVirtualInternalEv
Oif:_X501__cctor_m3795360380
uxa:__ZN13GfxDeviceGLES22DispatchComputeProgramE12ObjectHandleI18ComputeProgram_TagPvE15ComputeBufferIDj
bVg:_GUIStyle_set_contentOffset_m2138084868
rEe:_Collection_1_System_Collections_ICollection_CopyTo_m4193844941_gshared
MCd:_Convert_ToInt32_m2297793940
lqa:__Z17TransformAABBSlowRK4AABBRK10Matrix4x4fRS_
$ob:__ZN15SerializeTraitsI13dynamic_arrayI7Hash128Lj8EEE19ResizeSTLStyleArrayERS2_i18MemLabelIdentifier
Qoj:__ZN13Il2CppHashMapINSt3__24pairIPK9FieldInfoP11Il2CppClassEEj17ReflectionMapHashIS7_ENS0_8equal_toIS7_EENS0_9allocatorINS1_IK10KeyWrapperIS7_EjEEEEEC2EjRKS9_RKSB_
_Rb:__ZN9ShaderLab21SerializedShaderState8TransferI14SafeBinaryReadEEvRT_
JQj:_ftruncate
_ad:_RSAPKCS1SignatureFormatter_SetKey_m2365816458
HTc:_cf2_stack_pushInt
z4g:_CompressedStack__ctor_m276924800
MQd:_ExecuteEvents_get_cancelHandler_m1964324668
Kha:__ZN15SerializeTraitsINSt3__24pairIN4core12basic_stringIcNS2_20StringStorageDefaultIcEEEES6_EEE8TransferI24GenerateTypeTreeTransferEEvRS7_RT_
K_j:b89
J_j:b88
b_j:b81
a_j:b80
j_j:b83
d4:__ZN18ResourceImageGroup7CleanupEv
r_j:b85
Sqi:_AnimatorControllerPlayable_SetTrigger_m3144166126
I_j:b87
y_j:b86
bzh:_ToggleGroup_RegisterToggle_m3118973598
a2b:__ZN13ProduceHelperI4MeshLb0EE7ProduceE18MemLabelIdentifier18ObjectCreationMode
dof:_PrivateKeyInfo_Decode_m1053025782
Rhf:_PKCS12_Decrypt_m2457743414
emb:__ZN8Playable19SetOutputConnectionEPS_i
P5i:__ZN15dense_hashtableINSt3__24pairIK10KeyWrapperIPK11Il2CppClassEPKcEES6_N6il2cpp5utils11PointerHashIS3_EEN14dense_hash_mapIS6_S9_SE_NS6_14EqualsComparerINS0_8equal_toIS5_EEEENS0_9allocatorISA_EEE9SelectKeyESJ_SL_EC2ERKSO_j
Wl:_glDeleteShader
cMd:_Exception_GetType_m3898489832
_ka:__ZN6prcoreL17RemapGenericFloatI15TexFormatRGHalf16TexFormatRGFloatEEvPKNS_9InnerInfoE
sBe:_Stack_1_Peek_m1548778538_gshared
zNa:__ZZ23InitPlayerLoopCallbacksvEN38EarlyUpdateExecuteMainThreadJobsstruct7ForwardEv
Nwh:_Shadow_set_effectColor_m3110056844
r_g:_Physics2D_GetColliderFromInstanceID_m95920619
r9b:__Z27scripting_add_internal_callPKcPKv
Lee:_Array_InternalArray__Insert_TisUriScheme_t1876590943_m2728325409_gshared
Aoj:__ZN13Il2CppHashMapINSt3__24pairIPK9EventInfoP11Il2CppClassEEj17ReflectionMapHashIS7_ENS0_8equal_toIS7_EENS0_9allocatorINS1_IK10KeyWrapperIS7_EjEEEEEC2EjRKS9_RKSB_
Uwj:__GLOBAL__sub_I_GarbageCollector_cpp
fJi:_X509Store_CheckStore_m1027496478
R9h:__Z87RuntimeInvoker_Int32_t2071877448_UIVertex_t1204258818_UIVertex_t1204258818_Il2CppObjectPK10MethodInfoPvPS2_
J3h:__Z93RuntimeInvoker_TextGenerationError_t780770201_Il2CppObject_TextGenerationSettings_t2543476768PK10MethodInfoPvPS2_
Xu:__ZN26AnimatorControllerPlayable18SetLayerAutoWeightEv
Kb:invoke_vffff
jRj:__ZNSt3__212basic_stringIcNS_11char_traitsIcEENS_9allocatorIcEEEC2ERKS5_jjRKS4_
tid:_String_Contains_m4017059963
nLh:_DefaultComparer_Compare_m1606207039_gshared
j_c:__ZN2UI14CanvasRenderer12SyncMaterialENS0_8SyncFlagE
ELj:__ZN6il2cpp2vm9Parameter30GetDefaultParameterValueObjectEPK10MethodInfoPK13ParameterInfoPb
xfe:_Array_InternalArray__set_Item_TisLabelData_t3712112744_m2253365137_gshared
FYg:_MonoBehaviour_Invoke_m666563676
D4e:_StringReader__ctor_m643998729
GAf:_IPv6Address_TryParse_m2220524278
nZh:__Z75RuntimeInvoker_DateTime_t693205669_DateTime_t693205669_TimeSpan_t3430258949PK10MethodInfoPvPS2_
DPc:_UNITY_tt_face_done_kern
dxi:_Context_get_DefaultContext_m2211922324
Tmc:__Z59GUIStyle_CUSTOM_Internal_GetNumCharactersThatFitWithinWidth13Il2Cpp_IntPtrP12Il2CppStringf
uof:_RSAManaged_GetPaddedValue_m2972141669
wvh:_ScrollRect_OnDrag_m1424848249
Baa:__Z19scripting_gc_enablev
xDi:_AnchorInfo__ctor_m617409099
d0c:__Z55Register_UnityEngine_CanvasRenderer_DisableRectClippingv
FIf:_Interval_CompareTo_m2909556284_AdjustorThunk
Atb:__ZN14SafeBinaryRead21TransferSTLStyleArrayI13dynamic_arrayI11ColorRGBA32Lj4EEEEvRT_17TransferMetaFlags
wHf:_Interpreter_GetLastDefined_m2450713313
OCi:_Parser_ParseAssertionType_m3316669790
owh:_Selectable_get_isPointerDown_m774209881
NWb:__ZNSt3__27__sort4IRNS_6__lessIN4core12basic_stringIcNS2_20StringStorageDefaultIcEEEES6_EEPS6_EEjT0_SA_SA_SA_T_
eUj:dynCall_viiiifii
WVi:_GameManager_ShowAbout_m3737710106
cnj:__ZN6il2cpp2gc19AppendOnlyGCHashMapINSt3__24pairIPK11Il2CppImageP11Il2CppClassEEP22Il2CppReflectionModule17ReflectionMapHashIS9_ENS2_8equal_toIS9_EEEC2Ev
M1:__Z20GetPersistentManagerv
UWc:_UNITY_TT_Set_Var_Design
caa:__ZN21SystemInfoStringCache16StaticInitializeEPv
Rpf:_TlsStream__ctor_m4117943603
Rjj:__ZN15dense_hashtableINSt3__24pairIK10KeyWrapperIPK10Il2CppTypeEjEES6_N6il2cpp8metadata14Il2CppTypeHashEN14dense_hash_mapIS6_jSB_NS6_14EqualsComparerINSA_26Il2CppTypeEqualityComparerEEENS0_9allocatorIS8_EEE9SelectKeyESF_SH_E12maybe_shrinkEv
dyh:_Text_FontTextureChanged_m4236993972
JCj:__ZN6il2cpp2gc16GarbageCollector23MakeDescriptorForObjectEPji
JNg:_ParameterModifier_t1820634920_marshal_pinvoke
OCb:__ZNK13MonoBehaviour7GetNameEv
xWi:_ObjStatsCorrect_SetValue_m338369650
Ima:__ZN19ScriptingInvocation28AdjustArgumentsToMatchMethodEv
Awj:__ZN15dense_hashtableI10KeyWrapperIP18Il2CppGenericClassES3_N6il2cpp8metadata22Il2CppGenericClassHashEN14dense_hash_setIS3_S6_NS3_14EqualsComparerINS5_25Il2CppGenericClassCompareEEENSt3__29allocatorIS3_EEE8IdentityESA_SD_E6insertERKS3_
Ikb:__Z20RenderMultipleMeshesRK15RenderNodeQueueRK18RenderMultipleData17ShaderChannelMask
Zhj:__ZN6il2cpp2vm4Type19GetGenericParameterEPK10Il2CppType
F$c:__Z51Register_UnityEngine_CanvasGroup_get_blocksRaycastsv
SJh:_InternalEnumerator_1_get_Current_m2826780083_gshared
R1j:b119
Ftc:__ZN8JSONRead21TransferSTLStyleArrayI13dynamic_arrayI11ColorRGBA32Lj4EEEEvRT_18MemLabelIdentifier17TransferMetaFlags
llj:__ZNK15dense_hashtableINSt3__24pairIK10KeyWrapperINS1_IPK11Il2CppImageP11Il2CppClassEEEjEES9_17ReflectionMapHashIS8_EN14dense_hash_mapIS9_jSD_NS9_14EqualsComparerINS0_8equal_toIS8_EEEENS0_9allocatorISB_EEE9SelectKeyESI_SK_E3endEv
Bd:_glBeginQuery
cCg:_Assembly_GetCustomAttributes_m95309865
$Pg:_GUILayoutUtility_INTERNAL_CALL_Internal_GetWindowRect_m3236664463
cHc:__ZN10Effector2D25CheckEffectorColliderMaskEP10Collider2DS1_
ZQa:__ZN6Camera12RenderStereoENS_10RenderFlagE8CullFlagPNS_24PerformEyeRenderFunctionE
MW:__ZN20LocalFileSystemPosix10ToAbsoluteEPKc
n$d:_GridLayoutGroup__ctor_m1099847132
fTh:__Z136RuntimeInvoker_Boolean_t3825574718_Il2CppObject_Il2CppObject_Int32_t2071877448_Int32_t2071877448_SByte_t454417549_ContextU26_t3131521781PK10MethodInfoPvPS2_
DQa:_UNITY_png_default_flush
Dtd:_ArrayListWrapper_set_Capacity_m2792463350
zPj:_getcwd
v2g:_StringBuilder_Append_m1128243247
Jzc:__ZN16b2CapsuleContact6CreateEP9b2FixtureiS1_iP16b2BlockAllocator
pbb:__ZN25ThreadsafeLinearAllocatorD2Ev
AEd:_DateTime_get_Year_m1985210972
_aa:__Z21SendMessageToEveryoneRK17MessageIdentifier11MessageData
q7:__ZN21BillboardBatchManager16StaticInitializeEPv
cTg:_Object_get_name_m2079638459
P1j:b117
sZ:__ZN12_GLOBAL__N_138ArchiveRedirectFileSystemStaticDestroyEPv
VLd:_EventHandler_Invoke_m1137722757
J8i:__ZNK15dense_hashtableINSt3__24pairIK10KeyWrapperI13dynamic_arrayIPK10Il2CppTypeLj4EEEPFvvEEES8_N6il2cpp8metadata19Il2CppSignatureHashEN14dense_hash_mapIS8_SB_SF_NS8_14EqualsComparerINSE_22Il2CppSignatureCompareEEENS0_9allocatorISC_EEE9SelectKeyESJ_SL_E5beginEv
_7e:_MonoType_IsSubclassOf_m2211166238
PFe:_Collection_1_System_Collections_ICollection_CopyTo_m2859266050_gshared
Su:__ZN7mecanim14ValueArrayCopyEPKNS_10ValueArrayEPS0_PKNS_14ValueArrayMaskE
nIj:_GC_continue_reclaim
j$e:_InvalidCastException__ctor_m2730571470
RFf:_X509ChainElementCollection_System_Collections_IEnumerable_GetEnumerator_m2559704689
fDf:_PublicKey_get_Key_m126090744
$Kc:__ZNSt3__23mapIN20TextRenderingPrivate7FontRefEP11FT_FaceRec_NS_4lessIS2_EENS_9allocatorINS_4pairIKS2_S4_EEEEEixERS9_
tJa:__ZN17ArchiveFileSystem10AddStorageEP20ArchiveStorageReader
Jli:_Color_Equals_m661618137
Kxc:__ZNK12b2MotorJoint16GetReactionForceEf
VEa:__ZN12_GLOBAL__N_112UploadFormatE13TextureFormat
unh:_EqualityComparer_1_System_Collections_IEqualityComparer_GetHashCode_m1203798961_gshared
F$i:__ZN6il2cpp2vm5Class15GetEnumBaseTypeEP11Il2CppClass
Anb:__ZNK9Texture2D16GetNpotTexelSizeEv
Lqh:_Mask_get_rectTransform_m3304369086
GMi:_TooltipAttribute__ctor_m2640804852
Bsi:_AnimatorControllerPlayable_INTERNAL_CALL_PlayInFixedTimeInternal_m847261734
OAa:__ZN9GfxDevice22GetDefaultVertexBufferE26GfxDefaultVertexBufferTypej
pEe:_Collection_1__ctor_m3903788797_gshared
nOe:_ReadOnlyCollection_1_System_Collections_ICollection_CopyTo_m1129689124_gshared
RPj:___fseeko_unlocked
D7h:__Z162RuntimeInvoker_Void_t1841601450_Il2CppObject_Int32_t2071877448_SByte_t454417549_SByte_t454417549_SingleU26_t4173844468_SingleU26_t4173844468_SingleU26_t4173844468PK10MethodInfoPvPS2_
l_j:_glGetActiveUniform__wrapper
JPj:_sscanf
Ttb:__ZN14SafeBinaryRead21TransferSTLStyleArrayINSt3__26vectorI17BlendShapeChannelNS1_9allocatorIS3_EEEEEEvRT_17TransferMetaFlags
_ia:__Z17BeginSplashScreenv
kWi:_GarbageScoring_OnTriggerExit2D_m1668601547
OOi:_Vector3__ctor_m2638739322_AdjustorThunk
OUb:__ZN9ShaderLab16SerializedShader8TransferI19StreamedBinaryWriteILb0EEEEvRT_
mah:_UInt32_Parse_m2400360707
CA:__ZN7mecanim9animation18CreateAvatarMemoryEPKNS0_14AvatarConstantERNS_6memory9AllocatorE
lzd:_Stack_Pop_m3788808882
JNh:_Enumerator_VerifyCurrent_m4246196125_AdjustorThunk
kGd:_DateTime_op_Equality_m1867073872
Rt:__ZN7mecanim8skeleton16SkeletonPoseCopyIN4math4trsXENS2_7affineXEEEvPKNS0_13SkeletonPoseTIT_EEPNS5_IT0_EE
uAa:__ZN18GfxFramebufferGLES18GetFramebufferNameERK20GfxRenderTargetSetup
FSj:_saveSetjmp
vuj:__ZN6il2cpp6icalls8mscorlib6System2IO6MonoIO11GetFileTypeE12Il2CppIntPtrPi
tlc:__Z30Event_Get_Custom_PropCharacterP12Il2CppObject
SZ:__ZN13PlayableGraph27SchedulePlayableDestructionERK9HPlayable
tXj:_glGetFramebufferAttachmentParameteriv__wrapper
pGb:__Z22scripting_array_length17ScriptingArrayPtr
Vdd:_SecurityElement_GetAttribute_m4288291176
UXi:_IndexedSet_1_get_Count_m2839545138_gshared
Npa:__ZN14SafeBinaryRead20TransferTypelessDataEjPvi
yOg:_RenderPipelineManager_get_currentPipeline_m679160301
ORf:__ZL66StringFreezingAttribute_t2691375565_CustomAttributesCacheGeneratorP21CustomAttributesCache
gpc:__ZN9rapidjson13GenericReaderINS_4UTF8IcEES2_13JSONAllocatorE10ParseFalseILj1ENS_25GenericInsituStringStreamIS2_EENS_15GenericDocumentIS2_S3_S3_EEEEvRT0_RT1_
B1h:__Z69RuntimeInvoker_Single_t2076509932_Int32_t2071877448_Int32_t2071877448PK10MethodInfoPvPS2_
g0:__Z19GetActiveColorSpacev
Inh:_EqualityComparer_1__cctor_m1672307556_gshared
ctg:_SoapTypeAttribute_get_IsInteropXmlElement_m2941294827
Swb:__ZN14SpriteRenderer18UpdateCachedSpriteEv
ooe:_Enumerator_System_Collections_IEnumerator_get_Current_m3542273247_gshared
Trd:_Char_System_IConvertible_ToUInt32_m1557991717_AdjustorThunk
cjd:_Encoding_get_UTF8Unmarked_m628720656
rUe:_NumberFormatter_RoundBits_m1545255255
O0:__Z6StrCmpPKcS0_
hWb:__Z21CheckGpuProgramUsable20ShaderGpuProgramType
ZCg:_Binder__cctor_m3736115807
lCj:__ZN6il2cpp2os9Directory20GetFileSystemEntriesERKNSt3__212basic_stringIcNS2_11char_traitsIcEENS2_9allocatorIcEEEESA_iiPi
Zkh:_Dictionary_2_OnDeserialization_m2160537783_gshared
YJc:__ZN20TextRenderingPrivate19NativeTextGenerator5SetupEv
Vyb:__ZN12AspectRatios8TransferI18StreamedBinaryReadILb0EEEEvRT_
B3b:__ZN10GameObject14CopyPropertiesERS_
wnc:__Z44Register_UnityEngine_GUIStyle_get_fixedWidthv
tad:_RSACryptoServiceProvider_Common_m2581564813
GHi:_X509CertificateEnumerator_MoveNext_m4060814498
E2e:_MemoryStream_CheckIfClosedThrowDisposed_m2253054610
IAh:_ArrayReadOnlyList_1_GetEnumerator_m634288642_gshared
V6a:__ZNK13ScreenManager12IsFullScreenEv
kQj:_rand
WXj:_emscripten_glFramebufferRenderbuffer__wrapper
XCj:__ZN6il2cpp5utils9PathUtils7CombineIcEENSt3__212basic_stringIT_NS3_11char_traitsIS5_EENS3_9allocatorIS5_EEEERKNS0_10StringViewIS5_EERKSA_
Bri:_AnimatorControllerPlayable_INTERNAL_CALL_GetNextAnimatorStateInfoInternal_m1550960895
eHb:__ZN14SafeBinaryRead21TransferSTLStyleArrayINSt3__26vectorI17AnimationCurveTplIfE13stl_allocatorIS4_L18MemLabelIdentifier1ELi16EEEEEEvRT_17TransferMetaFlags
Mac:__Z60Register_UnityEngine_AsyncOperation_set_allowSceneActivationv
kwg:_ObjectManager_RegisterObject_m872610295
O0a:__Z22PrepareOptimizedPlanesPK5PlaneiPKN4math7_float4E
x0g:_RectOffset_t3387826427_marshal_pinvoke
_Zd:_Graphic_SetVerticesDirty_m1607014370
o7:__ZN17UniqueIDGenerator15CreatePureIndexEv
CB:__ZN11UnityEngine9Animation28GenericAnimationBindingCache15DidReloadDomainEv
akf:_AppDomain_InternalGetProcessGuid_m1278588156
q3d:_InputField_MoveRight_m386206014
q7d:_Array_InternalArray__ICollection_Remove_TisIl2CppObject_m2425110446_gshared
F$e:_BinaryReader_ReadBoolean_m2892291883
V_i:__ZN15dense_hashtableINSt3__24pairIK10KeyWrapperIPK22Il2CppGenericParameterEP11Il2CppClassEES6_N6il2cpp5utils11PointerHashIS4_EEN14dense_hash_mapIS6_S9_SE_NS6_14EqualsComparerINS0_8equal_toIS5_EEEENS0_9allocatorISA_EEE9SelectKeyESJ_SL_E14squash_deletedEv
Gzb:__ZNSt3__26__treeINS_12__value_typeIN4core12basic_stringIcNS2_20StringStorageDefaultIcEEEE4PPtrI6ObjectEEENS_19__map_value_compareIS6_SA_NS_4lessIS6_EELb1EEE13stl_allocatorISA_L18MemLabelIdentifier51ELi16EEE7destroyEPNS_11__tree_nodeISA_PvEE
Uxc:__ZNK12b2MouseJoint17GetReactionTorqueEf
zjc:__Z14GUIClipTextureP9Texture2DPhiiii
Ptf:_TlsServerCertificate_validateCertificates_m1988583701
v0:__ZNK9Transform18TransformDirectionERK8Vector3f
MQg:_GUILayoutEntry_SetHorizontal_m1828181654
Z0j:_emscripten_glClearStencil__wrapper
D9i:__ZN15dense_hashtableINSt3__24pairIK10KeyWrapperIPK11Il2CppClassEPKcEES6_N6il2cpp5utils11PointerHashIS3_EEN14dense_hash_mapIS6_S9_SE_NS6_14EqualsComparerINS0_8equal_toIS5_EEEENS0_9allocatorISA_EEE9SelectKeyESJ_SL_E12resize_deltaEjj
WRj:__ZNK10__cxxabiv120__si_class_type_info27has_unambiguous_public_baseEPNS_19__dynamic_cast_infoEPvi
Cbj:__ZN6il2cpp2vm21ThreadPoolCompartment13QueueWorkItemEP17Il2CppAsyncResult
HVj:_glTexSubImage3D__wrapper
TGf:_FactoryCache_Add_m2602974721
UOa:__Z21WriteImageAsyncThreadPv
s6:__ZL16GetInterfaceImpl18UnityInterfaceGUID
Y$i:__ZN6il2cpp2vmL17SetupFieldOffsetsENS0_15FieldLayoutKindEP11Il2CppClassjRKNSt3__26vectorIjNS4_9allocatorIjEEEE
bqe:_List_1_System_Collections_IList_get_Item_m936612973_gshared
QEj:__ZN6il2cpp6icalls8mscorlib6System15MonoCustomAttrs27GetCustomAttributesInternalEP12Il2CppObjectP20Il2CppReflectionTypeb
aXc:_UNITY_TT_Set_MM_Blend
uwg:_ObjectReader_ReadAssembly_m869834280
Yjb:__ZN22RenderingCommandBufferD0Ev
$Je:_Collection_1_IsSynchronized_m971497175_gshared
wQd:_ExecuteEvents_Execute_m1617536317
ayh:_Text_get_cachedTextGeneratorForLayout_m1357670532
yI:__ZL31InitializeAudioScriptingClassesv
pTa:__Z14SortGUIByDepthP10GUIElementS0_
EYe:_NumberFormatter_NumberToString_m126384393
zZj:_emscripten_glVertexAttrib4fv__wrapper
y6:__ZN13RuntimeStaticI13dynamic_arrayIPK31TransferFunctionScriptingTraitsLj4EELb0EE16StaticInitializeEPv
Izi:_LogicalCallContext__ctor_m3173272863
eri:_AnimatorControllerPlayable_IsParameterControlledByCurveString_m4036987523
M6e:_MonoCustomAttrs__cctor_m2608447972
rYe:_Int32_FindSign_m3803672540
UNh:_Enumerator_System_Collections_IEnumerator_Reset_m70453843_AdjustorThunk
vX:__ZNK20LocalFileSystemPosix21GetAvailableDiskSpaceEPKcRy
faa:__ZNSt3__26__treeIiNS_4lessIiEENS_9allocatorIiEEE7destroyEPNS_11__tree_nodeIiPvEE
ADf:_X509Certificate2__ctor_m1095336775
mua:__ZNK9GfxDevice14GetWorldMatrixEv
_Mg:_MonoProperty_GetGetMethod_m1100580870
$Va:__Z19scripting_array_new17ScriptingClassPtrjj
nN:__ZN11SoundHandle13CreateChannelEb
Nob:__ZN14SafeBinaryRead21TransferSTLStyleArrayI13dynamic_arrayI12LightmapDataLj4EEEEvRT_17TransferMetaFlags
ukf:_ArgumentException__ctor_m3312963299
qTb:__ZNSt3__26vectorIN9ShaderLab20SerializedSubProgram16TextureParameterENS_9allocatorIS3_EEE6assignIPS3_EENS_9enable_ifIXaasr21__is_forward_iteratorIT_EE5valuesr16is_constructibleIS3_NS_15iterator_traitsISA_E9referenceEEE5valueEvE4typeESA_SA_
jRi:_U3CCreateWhereIteratorU3Ec__Iterator1D_1_MoveNext_m3533253043_gshared
Knj:__ZN15dense_hashtableINSt3__24pairIK10KeyWrapperIPK22Il2CppGenericParameterEPK24MonoGenericParameterInfoEES6_N6il2cpp5utils11PointerHashIS4_EEN14dense_hash_mapIS6_SA_SF_NS6_14EqualsComparerINS0_8equal_toIS5_EEEENS0_9allocatorISB_EEE9SelectKeyESK_SM_E15set_deleted_keyERKSB_
wGf:_X509SubjectKeyIdentifierExtension__ctor_m3887138480
wme:_Enumerator_System_Collections_IEnumerator_get_Current_m2853089017_AdjustorThunk
dzc:__ZN12b2WheelJoint24SolvePositionConstraintsERK12b2SolverData
Og:_emscripten_exit_fullscreen
o1d:_InputField_get_mesh_m3276583786
Fui:_GCHandle_Free_m1639542352_AdjustorThunk
nBj:__ZN6il2cpp6icalls8mscorlib6System6String19InternalAllocateStrEi
buc:__Z29Transfer_Blittable_ArrayFieldI8JSONRead11QuaternionfEvRT_R9ArrayInfoRK23StaticTransferFieldInfo
QTf:__ZL65SoapParameterAttribute_t2780084514_CustomAttributesCacheGeneratorP21CustomAttributesCache
Bbc:__Z45Register_UnityEngine_Camera_get_targetDisplayv
I1b:__ZNK24RendererAnimationBinding15GenerateBindingERKN4core12basic_stringIcNS0_20StringStorageDefaultIcEEEEbRN11UnityEngine9Animation14GenericBindingE
Kjb:__Z15GetFlareManagerv
UAi:_Enumerator_System_Collections_IEnumerator_get_Current_m1429268283
WLe:_ReadOnlyCollection_1_System_Collections_Generic_ICollectionU3CTU3E_Clear_m388357963_gshared
jOj:___toread
tT:__ZN19CloudServiceHandler10QueueEventEPN11UnityEngine15CloudWebService14CloudEventInfoE
xSj:___cxa_is_pointer_type
Kid:_String_Concat_m56707527
xu:__ZN7mecanim9animation16EvaluateAvatarDXEPKNS0_14AvatarConstantEPKNS0_11AvatarInputEPNS0_12AvatarMemoryEPNS0_15AvatarWorkspaceEPNS0_12AvatarOutputE
_Da:__ZN4gles20DestroyRenderSurfaceEP7ApiGLESP17RenderSurfaceGLES
vme:_Enumerator_System_Collections_IEnumerator_get_Current_m2853089017_gshared
_hc:__Z34Transform_CUSTOM_SetAsFirstSiblingP12Il2CppObject
xia:__ZN17PersistentManager40GlobalToLocalSerializedFileIndexInternalERK26SerializedObjectIdentifier
fR:__ZN11UnityEngine15CloudWebService17SessionEventQueue14ParseEventDataERKN4core12basic_stringIcNS2_20StringStorageDefaultIcEEEE
hOd:_BaseEventData_get_selectedObject_m3551206992
gbf:_SimpleCollator_CompareOrdinal_m2176988387
IMd:_CCGregorianCalendar_GetYear_m1289900195
M3h:__Z441RuntimeInvoker_Boolean_t3825574718_Il2CppObject_Il2CppObject_Il2CppObject_ColorU26_t3402129837_Int32_t2071877448_Single_t2076509932_Single_t2076509932_Int32_t2071877448_SByte_t454417549_SByte_t454417549_Int32_t2071877448_Int32_t2071877448_Int32_t2071877448_Int32_t2071877448_SByte_t454417549_Int32_t2071877448_Single_t2076509932_Single_t2076509932_Single_t2076509932_Single_t2076509932_SByte_t454417549_SByte_t454417549_UInt32U26_t2197289955PK10MethodInfoPvPS2_
CYe:_Int16_ToString_m2592645088
Sya:__ZN13TranslateGLES4InitERK12GraphicsCaps16GfxDeviceLevelGL
Vxg:_SerializationInfoEnumerator_Reset_m2206466680
_Na:__ZZ23InitPlayerLoopCallbacksvEN33PostLateUpdateInputEndFramestruct7ForwardEv
x2c:__Z32CustomEventData_CUSTOM_AddUInt32P12Il2CppObjectP12Il2CppStringj
_Zi:_GenericEqualityComparer_1_Equals_m1934771410_gshared
SBb:__ZN24RingBufferMemoryFileDataD0Ev
kAb:__ZNSt3__26vectorIN30RuntimeInitializeOnLoadManager15ClassMethodInfoE13stl_allocatorIS2_L18MemLabelIdentifier12ELi16EEE8__appendEj
v$b:__ZN13ProduceHelperI10TagManagerLb0EE7ProduceE18MemLabelIdentifier18ObjectCreationMode
M_h:__Z84RuntimeInvoker_Il2CppObject_Il2CppObject_Il2CppObject_Il2CppObject_Int32_t2071877448PK10MethodInfoPvPS2_
mMj:__ZN6il2cpp2os6Memory12AlignedAllocEjj
XFj:__ZN6il2cpp8metadataL7CompareEPK10Il2CppTypeS3_
fPg:_GameObject_set_layer_m2712461877
mof:_RSAManaged__ctor_m1370411656
Lmb:__ZN12CubemapArray23VirtualRedirectTransferER17RemapPPtrTransfer
A8b:__ZL27GetComponentsImplementationILb0ELi0EEbR10GameObjectbRK17CompareParametersRK39GetComponentsImplementation_ReturnValue
NBf:_WebHeaderCollection_GetObjectData_m3940120977
vDb:__ZN9Scripting36IsSystemCollectionsGenericDictionaryE17ScriptingClassPtr
Xsh:_Raycast3DCallback_EndInvoke_m3234280377
UDi:_BalancingGroup__ctor_m2474435406
SWd:_ColorTweenCallback__ctor_m3619686788
H4:__ZL16ReadTypeTreeImplILb0EEbR8TypeTreeRK16TypeTreeIteratorRPKhS6_i
zqd:_Byte_System_IConvertible_ToInt32_m1032609763_AdjustorThunk
kWb:__ZN9ShaderLab7ProgramD0Ev
Llb:__ZNK22BuiltinResourceManager21GetResourceInstanceIDEPKN5Unity4TypeERKN4core12basic_stringIcNS4_20StringStorageDefaultIcEEEE
Cwa:__ZN9GfxDevice15BeginFrameStatsEv
Mcc:__Z42Register_UnityEngine_RectOffset_set_bottomv
Ntd:_ArrayListWrapper_IndexOf_m3574835167
kWa:__ZN28LightProbeProxyVolumeContext8CopyFromERKS_
H3a:__ZN23TransformChangeDispatch32QueueTransformChangeIfHasChangedER18TransformHierarchy
b$a:__ZN18DeferredRenderLoop15RenderFinalPassEP13RenderTextureS1_
$Da:__ZN7ApiGLES18DeleteRenderbufferERj
VCa:__ZL23ProgramUniformMatrix4fvPK7ApiGLESjiihPKv
_Sb:__ZN9ShaderLab20SerializedSubProgram15MatrixParameter8TransferI14SafeBinaryReadEEvRT_
oYe:_Int32_Parse_m124693431
C8b:__ZL27GetComponentsImplementationILb0ELi1EEbR10GameObjectbRK17CompareParametersRK39GetComponentsImplementation_ReturnValue
cWc:_Round_Down_To_Grid
r4g:_UTF8Decoder__ctor_m1460357288
qea:__ZN13RenderTexture7ReleaseEv
bvb:__ZN10MeshFilter23VirtualRedirectTransferER14SafeBinaryRead
Z_a:__ZN19ShaderPropertySheet26SetTextureWithExplicitSizeEN9ShaderLab16FastPropertyNameE9TextureIDiiff
eAd:_Convert_ToByte_m1201588964
lvb:__ZN12MeshRenderer17MainThreadCleanupEv
Aac:__Z36AsyncOperation_Get_Custom_PropIsDoneP12Il2CppObject
KGa:__ZN22CreateGpuProgramOutput12CreateParamsEv
Iya:__ZNK14GfxContextGLES13GetDefaultFBOEv
A7d:_Array_InternalArray__ICollection_Remove_TisSByte_t454417549_m2474211570_gshared
hba:__ZN14GraphicsHelper5ClearE13GfxClearFlagsRK10ColorRGBAffjR17ShaderPassContext
Cfj:_il2cpp_class_is_enum
krj:__ZN6il2cpp2vm6Thread49CheckCurrentThreadForInterruptAndThrowIfNecessaryEv
Ike:_GameObject_AddComponent_TisIl2CppObject_m3813873105_gshared
vga:__ZNSt3__23mapIN9ShaderLab16FastPropertyNameEN18UnityPropertySheet11UnityTexEnvENS_4lessIS2_EENS_9allocatorINS_4pairIKS2_S4_EEEEEixERS9_
xta:__ZNK13TranslateGLES25GetTextureTargetDimensionEj
p2d:_InputField_SetToCustom_m250029371
cfe:_Array_InternalArray__set_Item_TisByte_t3683104436_m1694926640_gshared
HBi:_PatternCompiler_EmitInfo_m597931026
Dlf:_ModulusRing_Multiply_m3113924743
phc:__Z47Texture2D_CUSTOM_INTERNAL_CALL_GetPixelBilinearP12Il2CppObjectffR10ColorRGBAf
Ni:_emscripten_glVertexAttrib4f
ALe:_ReadOnlyCollection_1_System_Collections_IEnumerable_GetEnumerator_m531171980_gshared
KVb:__ZNSt3__26vectorIN20GpuProgramParameters14ConstantBufferENS_9allocatorIS2_EEE8__appendEj
Ihe:_Array_Sort_TisUILineInfo_t3621277874_m3105833015_gshared
u8e:_MonoType_GetGenericArguments_m2708198481
hqe:_List_1_AddEnumerable_m2489692396_gshared
VPi:_WaitForSecondsRealtime__ctor_m1734539010
zza:__ZN4gles10SetTextureER15DeviceStateGLESjjj19BuiltinSamplerState
Hwa:__ZN9GfxDevice18SetGlobalDepthBiasEff
Rcj:__ZN6il2cpp6icalls8mscorlib6System8MonoType12get_AssemblyEP20Il2CppReflectionType
_i:_emscripten_glGetPointerv
ju:__ZN8Animator22ApplyBuiltinRootMotionEv
jqb:__ZN8Renderer23VirtualRedirectTransferER14SafeBinaryRead
DFg:_DerivedType_get_UnderlyingSystemType_m3904230233
RUh:__Z135RuntimeInvoker_IntPtr_t_Il2CppObject_Int32_t2071877448_Int32_t2071877448_Int32_t2071877448_Int32_t2071877448_MonoIOErrorU26_t1029615899PK10MethodInfoPvPS2_
VSa:__Z27ConvertSubMeshesToTrianglesR13dynamic_arrayI7SubMeshLj4EERS_ItLj2EE
T$i:__ZN6il2cpp2vmL15GetBitmapNoInitEP11Il2CppClassPjRjj
_Ef:_X509Certificate2Collection__ctor_m819526826
$H:__ZN12AudioManager5ResetEv
Qmf:_KeyBuilder_Key_m3814433741
vkf:_ArgumentException__ctor_m158205422
iae:_Array_compare_TisVector3_t2243707580_m3709184876_gshared
T$d:_HorizontalLayoutGroup_SetLayoutHorizontal_m3237355818
au:__ZN7mecanim5human14RetargetToTDoFEPKNS0_5HumanEPNS0_9HumanPoseEPNS_8skeleton13SkeletonPoseTIN4math4trsXEEESB_
$og:__ZL60AspectRatioFitter_t3114550109_CustomAttributesCacheGeneratorP21CustomAttributesCache
By:__ZN7mecanim5human18HumanPoseBlendNodeERNS0_9HumanPoseEPS1_f
URc:_UNITY_FT_RoundFix
TVb:__ZN9ShaderLab20SerializedSubProgram15AddTextureParamEPKcii16TextureDimension
Rr:__ZNK8Animator26GetTypeInfoVirtualInternalEv
IFi:_Uri_get_Parser_m2250631932
foi:_Event_GetHashCode_m2214628668
TZd:_Graphic_set_color_m646149893
Pga:__ZN14SafeBinaryRead19TransferSTLStyleMapINSt3__23mapIN4core12basic_stringIcNS3_20StringStorageDefaultIcEEEES7_NS1_4lessIS7_EE13stl_allocatorINS1_4pairIKS7_S7_EEL18MemLabelIdentifier1ELi16EEEEEEvRT_17TransferMetaFlags
SZc:__ZN2UI6Canvas27UpdateEventIndexesRecursiveERi
yx:__ZN7mecanim9animation18EvaluateRootMotionERKNS0_18ClipMuscleConstantERKNS0_15ClipMuscleInputEPKfS8_RNS0_12MotionOutputEb
lR:__ZN11UnityEngine15CloudWebService16SessionContainer21PrepareDataErrorEventERN4core12basic_stringIcNS2_20StringStorageDefaultIcEEEE
VNc:_UNITY_FT_Outline_New
nMb:__Z19TransferField_ArrayI19StreamedBinaryWriteILb0EE27Converter_SimpleNativeClassI8GUIStyleEEvRK23StaticTransferFieldInfoR31RuntimeSerializationCommandInfoRT0_
VKi:_SpriteRenderer_SetSprite_INTERNAL_m2338909670
Mog:__ZL70SpriteState_t1353336012_CustomAttributesCacheGenerator_m_PressedSpriteP21CustomAttributesCache
Kug:_RemotingServices_RegisterInternalChannels_m1827304423
ATg:_GUIStyle_get_onNormal_m1675201777
mr:__ZL32CleanupAnimationScriptingClassesv
rbj:__ZNSt3__213__vector_baseIN6il2cpp2os19SocketHandleWrapperENS_9allocatorIS3_EEED2Ev
xVg:_GUIStyleState_Cleanup_m705006206
ic:invoke_viiffi
c7a:__ZN13sorted_vectorINSt3__24pairIN4core12basic_stringIcNS2_20StringStorageDefaultIcEEEEPK17MessageIdentifierEEN10vector_mapIS6_S9_NS0_4lessIS6_EENS0_9allocatorISA_EEE13value_compareESF_E10insert_oneERKSA_
A5g:_Thread_GetCachedCurrentUICulture_m5590127
Imb:__ZNK12CubemapArray20GetRuntimeMemorySizeEv
dPi:_Vector3_Dot_m3161182818
PTb:__Z14resize_trimmedINSt3__26vectorIN9ShaderLab18SerializedPropertyENS0_9allocatorIS3_EEEEEvRT_j
Mze:_List_1_CheckMatch_m4018158235_gshared
Jbf:_Context_t2636657155_marshal_pinvoke_back
l9i:__ZN6il2cpp2vm13MetadataCache38GetMethodInfoFromMethodDefinitionIndexEi
mqd:_Byte_System_IConvertible_ToDateTime_m1583041031
p2i:__ZL24UnresolvedVirtualCall_68P12Il2CppObjectS0_iS0_S0_S0_S0_S0_S0_PK10MethodInfo
esb:__ZN10VertexData8TransferI24GenerateTypeTreeTransferEEvRT_
NDj:__ZN13Il2CppHashMapIPK19Il2CppGenericMethodP10MethodInfoN6il2cpp8metadata23Il2CppGenericMethodHashENS6_26Il2CppGenericMethodCompareENSt3__29allocatorINS9_4pairIK10KeyWrapperIS2_ES4_EEEEEC2EjRKS7_RKS8_
roh:_EqualityComparer_1_System_Collections_IEqualityComparer_Equals_m1089835085_gshared
o0a:__ZL10CullLightsRK22SceneCullingParametersR11CullResults
ZYd:_Dropdown__cctor_m264401557
nnd:_Array_IndexOf_m2819632474
TMh:_Comparer_1__cctor_m3996541505_gshared
ez:__ZN7mecanim12statemachine20GetBlendTreeConstantERKNS0_13StateConstantEi
B4b:__Z40GetTemporaryCachePathApplicationSpecificv
Uua:__ZN9GfxDevice16EndAsyncJobFrameEv
POc:_UNITY_tt_face_load_hhea
OBb:__ZN24RingBufferMemoryFileData11SetGrowableEb
Ooi:_PersistentCall__ctor_m2079279187
Ezd:_Convert_ToBase64String_m1936815455
Tk:___syscall3
Wk:___syscall6
Yk:___syscall4
vId:_Decimal_ToString_m759431975
iWi:_GarbageScoring_Start_m317816287
IUd:_ColorBlock_get_fadeDuration_m987725262
Fxj:__ZN6il2cpp2vm3RCW14QueryInterfaceILb1EEEP14Il2CppIUnknownP15Il2CppComObjectRK10Il2CppGuid
Jzg:_CryptographicException__ctor_m2415891459
tEc:__ZNSt3__26__sortIR24RayHitsByDepthComparitorP12RaycastHit2DEEvT0_S5_T_
evc:__ZN27PerformanceReportingManager23VirtualRedirectTransferER14SafeBinaryRead
N8b:__ZN9Scripting25BroadcastScriptingMessageER10GameObjectPKc18ScriptingObjectPtr
ll:_emscripten_glShaderBinary
pmd:_Array_InternalArray__RemoveAt_m1126483634
Qji:_Camera_INTERNAL_CALL_RaycastTry_m1030092423
kX:__ZNK20LocalFileSystemPosix6ExistsERK13FileEntryData
b$g:_RangeInt_get_end_m913869897
Ryf:_DictionaryNodeEnumerator_get_DictionaryNode_m3521889822
Pu:__ZN7mecanim5human19MaskHasLeftFootGoalERKNS_6bitsetILj70EEE
uYg:_Mesh_get_colors32_m4153271224
NFc:__ZNK17Physics2DSettings26GetTypeInfoVirtualInternalEv
k1c:__Z58Register_UnityEngine_Canvas_GetETC1SupportedCanvasMaterialv
n_g:_Physics2D_INTERNAL_CALL_GetRayIntersectionAll_m161475998
qOb:__ZN17AnimationCurveTplIfE8TransferI18StreamedBinaryReadILb1EEEEvRT_
FGd:_DateTimeOffset_GetHashCode_m3312197462_AdjustorThunk
S4c:__ZN18UnityConnectClientD2Ev
Vej:_il2cpp_set_data_dir
DFi:_Uri_get_IsUnc_m2111738174
$Ki:_DataUtility_INTERNAL_CALL_GetPadding_m1621366113
b4c:__ZN11UnityEngine15PlatformWrapper30GetGraphicsDriverLibraryStringEv
uOi:_Vector2_ToString_m775491729
Ynf:_EncryptedPrivateKeyInfo_Decode_m1706190306
sPb:__Z18Transfer_BlittableI18StreamedBinaryReadILb0EELb0E4AABBEvRK29SerializationCommandArgumentsR31RuntimeSerializationCommandInfo
MDd:_Convert_ToUInt16_m1665900934
B2a:__Z14DrawGUITextureRK5RectTIfEP7Texture11ColorRGBA32P8Materiali
hyh:_Text_get_supportRichText_m3291105891
h1g:_RectTransform_GetParentSize_m1571597933
_s:__ZN9BlobWrite8TransferI22OffsetPtrArrayTransferIKN4math7_float4EEEEvRT_PKc17TransferMetaFlags
Jvc:__ZNK11b2EdgeShape7RayCastEP15b2RayCastOutputRK14b2RayCastInputRK11b2Transformi
RAi:_MatchCollection_GetEnumerator_m3516985966
zrc:__ZN9JSONWrite8TransferI4AABBEEvRT_PKc17TransferMetaFlags
A3g:_UTF7Encoding__ctor_m2365939916
BKa:__ZN25MultiBlocksMemoryFileData9SetLengthEy
aN:__Z30GetAudioSpatializerDefinitionsR13dynamic_arrayIP29AudioEffectInternalDefinitionLj4EE
KLi:_TextGenerationSettings_Equals_m3944651893_AdjustorThunk
arh:_MatEntry__ctor_m3650167335
w6h:__Z143RuntimeInvoker_Void_t1841601450_Il2CppObject_Vector2_t2243707579_Vector2_t2243707579_Color32_t874517518_Vector2_t2243707579_Vector2_t2243707579PK10MethodInfoPvPS2_
jAc:__ZN10Collider2D13AwakeFromLoadE17AwakeFromLoadMode
qAb:__ZNSt3__26vectorIN30RuntimeInitializeOnLoadManager9ClassInfoE13stl_allocatorIS2_L18MemLabelIdentifier12ELi16EEE8__appendEj
qnb:__ZNK9Texture2D20GetRuntimeMemorySizeEv
w9g:_TypeInitializationException__ctor_m2993591639
um:_emscripten_glUniform2iv
PXe:_Int16_System_IConvertible_ToInt64_m733340257
MKc:_UNITY_FT_Outline_Transform
jhc:__Z60Register_UnityEngine_Sprites_DataUtility_Internal_GetMinSizev
k0i:__ZN6il2cpp2vm5Class10GetMethodsEP11Il2CppClassPPv
cYa:__Z30AddDefaultStreamsToMeshBuffersR9GfxDeviceR11MeshBuffersRK16DrawBuffersRange17ShaderChannelMaskS6_
Ded:_Hash_GetObjectData_m315532943
bza:__ZN7ApiGLES17DeleteFramebufferERN2gl6HandleILNS0_10ObjectTypeE9EEES3_
PFa:__ZN15UniformTFMethod13MapBoneBufferEj
jrf:_RecordProtocol_SendAlert_m2816808523
UYc:__ZN2UI14CanvasRendererD2Ev
Wzi:_MethodCall_get_LogicalCallContext_m3769562079
Krj:__ZN6il2cpp6icalls8mscorlib6System5Array8SetValueEP11Il2CppArrayP12Il2CppObjectS5_
Q4e:_SynchronizedReader_Read_m1399666181
ALg:_MonoEvent_get_Name_m2796714646
laa:__Z9SetupArgviPPKc
ERd:_PointerEventData_set_worldNormal_m2025727441
qsf:_Context_get_SentConnectionEnd_m3114190867
Mmb:__ZN12CubemapArray23VirtualRedirectTransferER24GenerateTypeTreeTransfer
j5:__ZN12FileAccessor4OpenER15FileSystemEntry14FilePermission16FileAutoBehavior
_Me:_ReadOnlyCollection_1__ctor_m2364452928_gshared
kCj:__ZN6il2cpp2os9Directory6CreateERKNSt3__212basic_stringIcNS2_11char_traitsIcEENS2_9allocatorIcEEEEPi
Jqb:__ZN23TransformChangeDispatch32QueueTransformChangeIfHasChangedERK15TransformAccess
hRd:_PointerEventData_set_clickTime_m3931922487
jUe:_NumberFormatter_AppendNonNegativeNumber_m629862866
Bia:__ZNSt3__26vectorINS_4pairIN9ShaderLab16FastPropertyNameEN18UnityPropertySheet11UnityTexEnvEEENS_9allocatorIS6_EEE21__push_back_slow_pathIKS6_EEvRT_
Cti:_ResourceInfo__ctor_m2401359321_AdjustorThunk
cDj:__ZN6il2cpp2os26LibraryNamePrefixAndSuffixC2EPKcS3_
Kwd:_Hashtable__ctor_m392789568
j5g:_Mutex_CreateMutex_internal_m2352956576
B3g:_UTF7Encoding__cctor_m4192443836
Amc:__Z31GUIStyle_CUSTOM_SetFontInternalP12Il2CppObjectS0_
B:tempValue
QMj:__ZN6il2cpp8metadata24Il2CppGenericContextHash4HashEPK20Il2CppGenericContext
TXe:_Int16_System_IConvertible_ToSingle_m3277935657
H_:__Z29scripting_class_from_fullnamePKcS0_S0_
Vsh:_Raycast3DCallback_Invoke_m2271859924
Dz:__ZN26AnimatorControllerPlayable18DeallocateBindingsEv
xN:__ZN11AudioSource19CreateOpenALRolloffEfff
CPc:_UNITY_FT_Stream_ReadAt
dpa:__ZN9Texture3D34UpdateFileTextureUploadInstructionEP28FileTextureUploadInstructionj
aUg:_GUIStyle_get_lineHeight_m2132859383
cai:__Z102RuntimeInvoker_Int32_t2071877448_Il2CppObject_UIVertex_t1204258818_Int32_t2071877448_Int32_t2071877448PK10MethodInfoPvPS2_
ipi:_UnityEvent_FindMethod_Impl_m3303953986
B9g:_UInt16_System_IConvertible_ToBoolean_m887616848
$O:__ZN11AudioModule22CreateAudioClipFromWWWEP10IWWWStreamPKcbbi
l2g:_StringBuilder_set_Length_m3039225444
ZHe:_Collection_1_System_Collections_IList_Contains_m3870109702_gshared
L6d:_Array_InternalArray__ICollection_Contains_TisRaycastResult_t21186376_m3188614988_gshared
vEd:_CultureAwareComparer_GetHashCode_m3681260951
R_c:__Z13RegisterClassIN2UI11CanvasGroupEEvv
wf:_emscripten_glClear
cth:_Selectable__ctor_m1440593935
z3i:__ZL25UnresolvedVirtualCall_132P12Il2CppObject17Color_t2020392075faaaPK10MethodInfo
$3b:__ZNK8Playable6HandleEv
w3:__ZN14MessageHandler28MessageIDToMessageIdentifierEi
iAf:_HttpRequestCreator_Create_m3607509610
yKj:__ZN6il2cpp2vm10WaitHandle19NewManualResetEventEb
rOe:_ReadOnlyCollection_1_System_Collections_IList_Contains_m3707723158_gshared
ydh:_Version_GetHashCode_m880841176
dgi:_CustomEventData_Add_m4160204358
eE:__Z51Register_UnityEngine_Animator_get_hasBoundPlayablesv
ARi:_Nullable_1_ToString_m1238126148_AdjustorThunk
Nd:emscriptenWebGLGetUniform
Bo:FUNCTION_TABLE_iiiiiiiiiii
R1a:__ZL10CleanUpJobP20CullingGroupsJobData
Yrd:_Char_CompareTo_m3044885427_AdjustorThunk
S0e:_FileStream_GetSecureFileName_m508045384
xHh:_InternalEnumerator_1_System_Collections_IEnumerator_get_Current_m2035754659_AdjustorThunk
avb:__ZN10MeshFilter23VirtualRedirectTransferER24GenerateTypeTreeTransfer
u2a:__ZN13RenderManager15BatchModeUpdateEv
btb:__ZN14SafeBinaryRead21TransferSTLStyleArrayI13dynamic_arrayI8Vector2fLj4EEEEvRT_17TransferMetaFlags
wia:__ZN17PersistentManager51InstanceIDToLocalSerializedObjectIdentifierInternalEiR31LocalSerializedObjectIdentifier
FCc:__ZN10ClipperLib7Clipper15SetWindingCountERNS_5TEdgeE
GUc:_UNITY_FT_Create_Class_cff_services
qd:_glVertexAttribIPointer
wBg:_HMAC_set_HashName_m457235014
v6b:__ZNK6Sprite10GetPaddingE20SpriteRenderDataMode
W5d:_Array_InternalArray__ICollection_Contains_TisTableRange_t2011406615_m605506746_gshared
yih:_Dictionary_2_Add_m1296007576_gshared
uDd:_Decimal_op_Explicit_m729046406
Tzg:_CryptoConfig_CreateFromName_m2169102076
r_d:_Graphic_OnEnable_m2900261811
Wzg:_CryptographicUnexpectedOperationException__ctor_m3552441227
Nri:_AnimatorControllerPlayable_GetAnimatorClipInfoCountInternal_m826336390
Jtd:_ArrayListWrapper_Clear_m321161741
u3d:_InputField_LineDownCharacterPosition_m2690468785
BPc:_UNITY_ft_glyphslot_alloc_bitmap
Mhe:_Array_Sort_TisVector2_t2243707579_TisVector2_t2243707579_m2582252549_gshared
Bbh:_UInt64_System_IConvertible_ToDouble_m2828923873
sUh:__Z45RuntimeInvoker_Il2CppObject_Int16_t4041245914PK10MethodInfoPvPS2_
B_b:__ZZN2UI13RectTransform15InitializeClassEvEN31FunctorImpl_62kTransformChanged4CallEPviR11MessageData
Lve:_List_1_System_Collections_IList_set_Item_m1129584681_gshared
XQc:_ft_raster1_render
mgc:__Z57Register_UnityEngine_RectTransform_INTERNAL_set_anchorMaxv
Fqe:_List_1_set_Capacity_m491101164_gshared
eRj:__ZNKSt3__221__basic_string_commonILb1EE20__throw_length_errorEv
J2g:_StringBuilder_Insert_m1733097906
O_h:__Z88RuntimeInvoker_Void_t1841601450_Il2CppObject_Int32_t2071877448_Il2CppObject_Il2CppObjectPK10MethodInfoPvPS2_
Zwf:_SslStreamBase_get_HashStrength_m480059173
Wgh:_ValueCollection_System_Collections_Generic_ICollectionU3CTValueU3E_Clear_m3271993638_gshared
pzd:_Enumerator_MoveNext_m1419609883
oJ:__ZN4FMOD7Channel19setReverbPropertiesEPK29FMOD_REVERB_CHANNELPROPERTIES
X2:__ZN13MonoBehaviour22GetScriptFullClassNameEv
sAf:_ServicePointManager_FindServicePoint_m3137356168
w2g:_StringBuilder_Append_m3541816491
Coa:__ZN20SphericalHarmonicsL211AddWeightedERKS_f
WRd:_PointerInputModule_GetPointerData_m1695674453
iJb:__Z19TransferField_ArrayI17RemapPPtrTransfer27Converter_SimpleNativeClassI8GUIStyleEEvRK23StaticTransferFieldInfoR31RuntimeSerializationCommandInfoRT0_
qEd:_Convert_ToUInt64_m345450801
DRi:_Predicate_1_BeginInvoke_m2559992383_gshared
Ivj:__ZN6il2cpp2vm3RCW7CleanupEP15Il2CppComObject
Koc:__ZN9JSONWrite8TransferI10ColorRGBAfEEvRT_PKc17TransferMetaFlags
q3:__Z25scripting_method_get_name18ScriptingMethodPtr
vgc:__Z35Register_UnityEngine_Resources_Loadv
THb:__Z19TransferField_ArrayI14SafeBinaryRead16Converter_StringEvRK23StaticTransferFieldInfoR31RuntimeSerializationCommandInfoRT0_
zQj:_rename
zIj:_GC_exit_check
MNi:_Transform_INTERNAL_CALL_TransformDirection_m2899991790
N8e:_NotSupportedException__ctor_m3232764727
Izf:_TypeConverterAttribute_Equals_m2330345916
s0e:_MonoIO_CreateDirectory_m379525469
Rs:__ZN9BlobWrite8TransferI22OffsetPtrArrayTransferI9OffsetPtrIN7mecanim12statemachine18StateMachineMemoryEEEEEvRT_PKc17TransferMetaFlags
YMc:_UNITY_ft_smooth_renderer_class_pic_free
vye:_List_1_System_Collections_IList_Remove_m3763718607_gshared
nf:_emscripten_glStencilOpSeparate
Ghd:_String_Concat_m2000667605
obj:__ZN6il2cpp2os19SocketHandleWrapperC2ERKS1_
ABj:__ZN6il2cpp2os10ThreadImpl12QueueUserAPCEPFvPvES2_
J4c:__ZN22BaseUnityConnectClient10QueueEventERN11UnityEngine15CloudWebService17CloudServiceEventEPKcjb
lYg:_Mesh_DefaultDimensionForChannel_m153181993
wWc:_UNITY_FT_Hypot
Cod:_BitConverter_ToInt64_m1329623425
h$b:__ZN8RendererC2E12RendererType18MemLabelIdentifier18ObjectCreationMode
wfj:_il2cpp_class_is_abstract
Gf:_emscripten_glGetError
bK:__Z14FMOD_FILE_SeekPvjS_
qzi:_MethodCall_get_Properties_m1893707917
Ieh:_ShimEnumerator_get_Entry_m2387156530_gshared
D2c:__Z56Register_UnityEngine_Analytics_CustomEventData_AddStringv
c3a:__ZNK13RenderTexture32CalculateNeedsInvertedProjectionEv
Lab:__ZN10systeminfo18GetOperatingSystemEv
Of:emscriptenWebGLGet
s0g:_Rect_GetHashCode_m559954498_AdjustorThunk
p5:__Z19CanReplaceComponentRN5Unity9ComponentEPKNS_4TypeEPN4core12basic_stringIcNS5_20StringStorageDefaultIcEEEE
N0b:__ZN12CubemapArray11InitTextureEiii13TextureFormatb
zYg:_Mesh_SetUVs_m841280343
KDf:_X509Certificate2_get_SignatureAlgorithm_m3069898012
YE:__Z105Register_UnityEngine_Experimental_Director_AnimatorControllerPlayable_INTERNAL_CALL_GetLayerCountInternalv
ZZe:_Int64_System_IConvertible_ToSingle_m1678482180
eXh:__Z54RuntimeInvoker_Il2CppObject_IntPtr_t_Int32_t2071877448PK10MethodInfoPvPS2_
LUg:_GUIStyle_INTERNAL_CALL_Internal_CalcSizeWithConstraints_m1203344891
zt:__ZN7mecanim5human13HumanFixTwistEPKNS0_5HumanEPNS_8skeleton13SkeletonPoseTIN4math4trsXEEES9_iiRKf
MYa:__ZL24AssignProjectorQueuesJobP30AssignProjectorQueuesJobHeader
S6g:_TimeSpan_get_Hours_m3804628138
AZd:_FontData_set_alignByGeometry_m2819509290
Xwj:__ZN14dense_hash_mapI10KeyWrapperIP12Il2CppObjectEN6il2cpp2gc9CachedCCWENS4_5utils11PointerHashIS1_EENS3_14EqualsComparerINSt3__28equal_toIS2_EEEENSB_9allocatorINSB_4pairIKS3_S6_EEEEEC2EjRKS9_RKSE_
QVb:__ZN9ShaderLab20SerializedSubProgram14SetConstBufferEPKci
zkf:_ArgumentNullException__ctor_m911049464
HQi:_Check_Source_m3385315029
xSe:_Comparison_1_Invoke_m345024424_gshared
XSc:_cf2_getStdVW
zPe:_ReadOnlyCollection_1_System_Collections_IList_Insert_m3936197025_gshared
GV:__Z40DebugStringToFilePostprocessedStacktraceRK21DebugStringToFileData
jtc:__Z29Transfer_Blittable_ArrayFieldI8JSONReadjEvRT_R9ArrayInfoRK23StaticTransferFieldInfo
PZg:_Object_GetInstanceID_m1920497914
ZGh:_InternalEnumerator_1_get_Current_m314017974_AdjustorThunk
Msi:_AnimatorControllerPlayable_Play_m1337154648
tg:__setLetterbox
_1e:_MemoryStream__ctor_m1043059966
fMi:_TextGenerator_Populate_Internal_m1817393161
esg:__ZN21InterfaceFuncInvoker3IP12Il2CppObjectP6Type_t28StreamingContext_t1417235061PS1_E6InvokeEjP11Il2CppClassS1_S3_S4_S5_
Xtb:__ZNSt3__26vectorI17BlendShapeChannelNS_9allocatorIS1_EEE6assignINS_11__wrap_iterIPS1_EEEENS_9enable_ifIXaasr21__is_forward_iteratorIT_EE5valuesr16is_constructibleIS1_NS_15iterator_traitsISA_E9referenceEEE5valueEvE4typeESA_SA_
D4d:_LayoutElement_set_preferredWidth_m3072758716
tCf:_AsnEncodedData_ToString_m724151831
L2a:__ZN11TimeManager11GetRealtimeEv
YHj:_GC_print_block_list
oK:__ZN29AudioEffectInternalDefinitionC2EP26UnityAudioEffectDefinitionb
mLg:_MonoMethodInfo_GetDeclaringType_m4186531677
etg:_SoapTypeAttribute_SetReflectionObject_m1566293812
e_i:_Enumerator_System_Collections_IEnumerator_Reset_m2573763156_AdjustorThunk
Tug:_RemotingServices_CreateClientProxy_m1631035355
fch:_UInt64_ToString_m2892887310
qhd:_String_System_IConvertible_ToType_m512800076
UDj:__ZN15dense_hashtableINSt3__24pairIK10KeyWrapperIPK19Il2CppGenericMethodEP10MethodInfoEES6_N6il2cpp8metadata23Il2CppGenericMethodHashEN14dense_hash_mapIS6_S9_SD_NS6_14EqualsComparerINSC_26Il2CppGenericMethodCompareEEENS0_9allocatorISA_EEE9SelectKeyESH_SJ_EC2ERKSM_j
Rzc:__ZN24b2ChainAndCapsuleContact6CreateEP9b2FixtureiS1_iP16b2BlockAllocator
$Ja:__Z37ReadDirectoryInfo_UnityWebAndUnityRawR12FileAccessorRKN20ArchiveStorageHeader6HeaderERNS1_13DirectoryInfoE
J0:__ZNSt3__26__treeINS_12__value_typeIPKciEENS_19__map_value_compareIS3_S4_15compare_tstringIS3_ELb1EEENS_9allocatorIS4_EEE7destroyEPNS_11__tree_nodeIS4_PvEE
clh:_Dictionary_2_ToTValue_m1381983709_gshared
E8e:_MulticastDelegate_KPM_m1592985119
KKe:_Collection_1_ConvertItem_m3941916604_gshared
LVa:__ZN20DynamicPropertySheet14SetValueQueuedEN9ShaderLab16FastPropertyNameEN19ShaderPropertySheet12PropertyTypeEjNS2_8SetFlagsE
DZc:__ZN2UI6Canvas26MarkAllNestedCanvasesDirtyEv
uvj:__ZN6il2cpp2vm12ReboxIfBoxedEP14Il2CppIUnknownP11Il2CppClass
swe:_List_1__ctor_m2766376432_gshared
w7a:__ZN25PathNamePersistentManagerD2Ev
O1:__ZN17PersistentManager48IntegrateObjectAndUnlockIntegrationMutexInternalEi
tp:__ZN6Object12SetHideFlagsENS_9HideFlagsE
mFc:__ZN9b2Fixture11SynchronizeEP12b2BroadPhaseRK11b2TransformS4_
XXj:_emscripten_glGetFramebufferAttachmentParameteriv__wrapper
b2a:__ZN13RendererScene15InitializeUmbraEv
whi:_AnimatorTransitionInfo_IsName_m2561957738_AdjustorThunk
moa:__Z28CalculateGlobalMatrixInverse23TransformAccessReadOnly
Eqc:__ZN4PPtrI6ObjectE8TransferI9JSONWriteEEvRT_
RRd:_PointerEventData_ToString_m1218584363
J3g:_UTF7Encoding_GetCharCount_m2589913583
lZh:__Z91RuntimeInvoker_DateTime_t693205669_Il2CppObject_Il2CppObject_Il2CppObject_Int32_t2071877448PK10MethodInfoPvPS2_
pQa:_UNITY_png_write_sCAL_s
R2e:_MemoryStream_CalculateNewCapacity_m3533542025
OMj:__ZN6il2cpp6icalls8mscorlib6System6Object7GetTypeEP12Il2CppObject
t6i:__ZNK15dense_hashtableINSt3__24pairIK10KeyWrapperIPKcEP11Il2CppClassEES5_N6il2cpp5utils11StringUtils12StringHasherIS4_EEN14dense_hash_mapIS5_S8_SE_NS5_14EqualsComparerINSC_21CaseSensitiveComparerEEENS0_9allocatorIS9_EEE9SelectKeyESI_SK_E5beginEv
r7g:_TimeSpan_Equals_m4102942751_AdjustorThunk
Vgh:_ValueCollection_System_Collections_Generic_ICollectionU3CTValueU3E_Add_m1903672223_gshared
BG:__ZN4FMOD6SoundI7releaseEv
Ovb:__ZN14SpriteRenderer13AwakeFromLoadE17AwakeFromLoadMode
PKa:__ZN10MemoryFile9SetLengthEy
rah:_UInt16_ToString_m2038947049_AdjustorThunk
Smh:_DefaultComparer_Equals_m3143385420_gshared
Tob:__ZN14SafeBinaryRead21TransferSTLStyleArrayI13dynamic_arrayI7Hash128Lj8EEEEvRT_17TransferMetaFlags
KDb:__Z28scripting_class_is_interface17ScriptingClassPtr
Jh:_glTexStorage2D
DVb:__ZNK9ShaderLab10SubProgram14EnsureCompiledEv
nxg:_ObjectManager_RecordFixup_m3572285566
ZAa:__ZN18AsyncUploadManager22WaitForActiveAsyncReadEv
myd:_SortedList_InitTable_m460350503
i3:__Z18BuildScriptClassId17ScriptingClassPtr
RDh:_InternalEnumerator_1_get_Current_m4279678504_AdjustorThunk
Iq:__ZNK16LevelGameManager7GetNameEv
p1b:__ZN8Renderer28HandleParentHierarchyChangesEPK23TransformAccessReadOnlyj
NX:__ZL31DeleteLastPathNameComponentImplRKN4core12basic_stringIcNS_20StringStorageDefaultIcEEEEPKc
_Yb:__Z13RegisterClassI18DelayedCallManagerEvv
V4c:__ZN18UnityConnectClient15GetCloudServiceEv
wJb:__Z18Transfer_BlittableI24GenerateTypeTreeTransferLb0EiEvRK29SerializationCommandArgumentsR31RuntimeSerializationCommandInfo
lbj:__ZN6il2cpp2os19SocketHandleWrapperD2Ev
vzc:__ZN15b2CircleContact6CreateEP9b2FixtureiS1_iP16b2BlockAllocator
GDb:__ZL28SerializationCommandGroupForRK31TransferFunctionScriptingTraits17ScriptingClassPtr17ScriptingFieldPtrRK20CoreScriptingClasses
Bhb:__ZN10TagManager32RegisterDefaultTagsAndLayerMasksEv
Ceb:__ZN14CachingManager12ReadInfoFileERKN4core12basic_stringIcNS0_20StringStorageDefaultIcEEEEPlPNSt3__26vectorIS4_NS8_9allocatorIS4_EEEE
L2c:__Z56Register_UnityEngine_Analytics_CustomEventData_AddUInt32v
ftd:_ArrayList_InsertRange_m1478230997
Rya:__ZN4gles8InitCapsEP7ApiGLESP12GraphicsCapsR16GfxDeviceLevelGL
kja:__ZN6prcore14BlitImageFloatERK14ImageReferenceRS0_NS0_8BlitModeE
LXg:_Matrix4x4_Equals_m1321236479_AdjustorThunk
qi:_glEnable
tgb:__ZNK13Lz4Compressor29CalculateCompressedBufferSizeEj
dcj:__ZN6il2cpp2vm19SocketPollingThreadC2Ev
ATa:__ZNK25CameraStackRenderingState21GetImageEffectTextureEb
oyg:_RuntimeMethodHandle__ctor_m2437574937_AdjustorThunk
S9g:_UInt16_System_IConvertible_ToInt64_m2835280558_AdjustorThunk
k2f:__ZL53g_UnityEngine_Assembly_CustomAttributesCacheGeneratorP21CustomAttributesCache
lSi:_Predicate_1_BeginInvoke_m3926587117_gshared
zzb:__ZNSt3__26vectorI4PPtrI6ObjectE13stl_allocatorIS3_L18MemLabelIdentifier51ELi16EEE6assignINS_11__wrap_iterIPS3_EEEENS_9enable_ifIXaasr21__is_forward_iteratorIT_EE5valuesr16is_constructibleIS3_NS_15iterator_traitsISD_E9referenceEEE5valueEvE4typeESD_SD_
yte:_List_1_get_Item_m1231764300_gshared
GXd:_DefaultControls_CreateToggle_m1568873127
Okh:_Dictionary_2_InitArrays_m2270022740_gshared
D3c:__ZN11UnityEngine7Connect15DeviceInfoEvent16CollectExtraInfoEv
jZh:__Z115RuntimeInvoker_Boolean_t3825574718_Il2CppObject_Int32_t2071877448_Il2CppObject_SByte_t454417549_Int32U26_t455636984PK10MethodInfoPvPS2_
W2g:_UnicodeEncoding_GetChars_m3765282346
N_e:_IntPtr__ctor_m4104029105
jIh:_InternalEnumerator_1_System_Collections_IEnumerator_get_Current_m771161214_AdjustorThunk
C7e:_MonoType_get_attributes_m1493788675
BKj:__ZN6il2cpp6icalls8mscorlib6System10Reflection9FieldInfo25internal_from_handle_typeE12Il2CppIntPtrS5_
zJj:__ZThn8_N6il2cpp2vm13CachedCCWBaseINS0_13ManagedObjectEE6AddRefEv
nCd:_Convert_ToDouble_m4236754739
SYd:_Dropdown_CreateItem_m2702141380
yOf:__ZL48Stack_t1043988394_CustomAttributesCacheGeneratorP21CustomAttributesCache
Fo:FUNCTION_TABLE_viifi
Go:FUNCTION_TABLE_viiff
xLg:_MonoEvent_GetAddMethod_m4289563120
GMf:__ZL37Type_t_CustomAttributesCacheGeneratorP21CustomAttributesCache
LWc:_UNITY_tt_face_free_hdmx
Xgj:__ZN6il2cpp2vm14TypeNameParser5ParseEb
Jsh:_ReflectionMethodsCache__ctor_m1835220
Y6c:__ZN23UnityPurchasingSettingsC2Ev
BKd:_Double_ToString_m1864290157
zQh:__Z63RuntimeInvoker_Il2CppObject_Int16_t4041245914_Int32_t2071877448PK10MethodInfoPvPS2_
FGh:_InternalEnumerator_1_get_Current_m4154059426_AdjustorThunk
Dyj:__ZNK24NamespaceAndNamePairHashclERKNSt3__24pairIPKcS3_EE
vpa:__ZL37stbir__resample_horizontal_downsampleP11stbir__infoiPf
Nma:__ZNK5Unity9Component38MarkGameObjectAndComponentDependenciesER27GarbageCollectorThreadState
XX:__ZL16OutOfMemoryErrorjj18MemLabelIdentifieriPKc
krf:_RecordProtocol_SendRecord_m132002114
ZPb:__Z18Transfer_BlittableI18StreamedBinaryReadILb0EELb1EdEvRK29SerializationCommandArgumentsR31RuntimeSerializationCommandInfo
nKc:__ZN13sorted_vectorIN20TextRenderingPrivate8FontImpl13CharacterInfoENSt3__24lessIS2_EE13stl_allocatorIS2_L18MemLabelIdentifier1ELi16EEE10insert_oneERKS2_
JWe:_Guid__ctor_m2599802704
q1e:_FileStream_get_CanRead_m4148920720
CBa:__ZN4crnd12symbol_codec32decode_receive_static_data_modelERNS_25static_huffman_data_modelE
w_b:__ZN18ScriptingArguments8AddFloatEf
yVe:_GregorianCalendar_set_CalendarType_m2438362222
U6d:_Array_InternalArray__ICollection_Contains_TisVector2_t2243707579_m3625698589_gshared
kqc:__Z18Transfer_BlittableI9JSONWriteLb0EaEvRK29SerializationCommandArgumentsR31RuntimeSerializationCommandInfo
HQ:__ZN11UnityEngine15CloudWebService14DataDispatcher34OnSessionContainerArchivedAndReadyERNS0_16SessionContainerE
vBc:__ZN7b2World11CreateJointEPK10b2JointDef
hWe:_NumberFormatInfo_GetFormat_m3247563525
aqf:_CipherSuiteCollection__ctor_m2154226461
pLb:__Z18Transfer_BlittableI19StreamedBinaryWriteILb0EELb0E8Vector3fEvRK29SerializationCommandArgumentsR31RuntimeSerializationCommandInfo
eQg:_RectOffset__ctor_m2227510254
YRb:__ZN14SafeBinaryRead19TransferSTLStyleMapINSt3__23mapIN4core12basic_stringIcNS3_20StringStorageDefaultIcEEEEiNS1_4lessIS7_EENS1_9allocatorINS1_4pairIKS7_iEEEEEEEEvRT_17TransferMetaFlags
sOc:_gray_move_to
XAg:_DSAParameters_t1872138834_marshal_pinvoke
dzi:_ConstructionCall_InitDictionary_m4046452035
TAb:__ZN5Cache9URLToPathERKN4core12basic_stringIcNS0_20StringStorageDefaultIcEEEE7Hash128
$lj:__ZN6il2cpp2vm10Reflection14GetEventObjectEP11Il2CppClassPK9EventInfo
trf:_TlsStream_Write_m2271546135
e8b:__Z30RegisterValidateMethodCallbackiPF18ScriptingMethodPtrS_17ScriptingClassPtrP6ObjectEPKc
yNd:_CultureInfo_ConstructInternalLocaleFromCurrentLocale_m1342751405
Sld:_Latin1Encoding_GetString_m3553289597
QPc:_tt_cmap_init
TCa:__ZL25ProgramUniformMatrix4x2fvPK7ApiGLESjiihPKv
Fwj:__ZN15dense_hashtableI10KeyWrapperIP18Il2CppGenericClassES3_N6il2cpp8metadata22Il2CppGenericClassHashEN14dense_hash_setIS3_S6_NS3_14EqualsComparerINS5_25Il2CppGenericClassCompareEEENSt3__29allocatorIS3_EEE8IdentityESA_SD_E12maybe_shrinkEv
c_b:__ZN9TextAssetC2E18MemLabelIdentifier18ObjectCreationMode
Eni:_Display_RecreateDisplayList_m3412638488
A1j:_emscripten_glCheckFramebufferStatus__wrapper
Jqj:__ZNK15dense_hashtableINSt3__24pairIK10KeyWrapperIP11Il2CppClassES4_EES5_N6il2cpp8metadata16SZArrayClassHashEN14dense_hash_mapIS5_S4_SA_NS5_14EqualsComparerINS9_19SZArrayClassCompareEEENS0_9allocatorIS7_EEE9SelectKeyESE_SG_E12test_deletedEj
Fsc:__Z18Transfer_BlittableI8JSONReadLb0EdEvRK29SerializationCommandArgumentsR31RuntimeSerializationCommandInfo
H5g:_Thread_ClrState_m822263449
ubf:_SimpleCollator_LastIndexOfOrdinalIgnoreCase_m550798345
EUg:_GUIStyle_INTERNAL_CALL_Internal_GetCursorStringIndex_m3074318281
Wm:FUNCTION_TABLE_viiiiiifiii
nua:__ZNK9GfxDevice13GetViewMatrixEv
Zma:__ZN17RemapPPtrTransferC2E24TransferInstructionFlagsb
F4:__ZN8TypeTree8BlobReadERPKhS1_ib
lla:__ZN11prophecysdk4half7convertEi
rib:__ZN6CameraD0Ev
Vcf:_ModulusRing_Multiply_m386339435
d9:__ZN31CanvasBatchIntermediateRenderer16StaticInitializeEPv
l$d:_GraphicRaycaster_U3CRaycastU3Em__0_m3971200721
TNe:_ReadOnlyCollection_1_System_Collections_IList_RemoveAt_m3004588099_gshared
VBd:_Decimal_op_Implicit_m4246329390
Bkf:_ArgumentNullException__ctor_m2252076819
P4a:__ZN10GameObjectC2E18MemLabelIdentifier18ObjectCreationMode
vNc:_raccess_guess_apple_double
Jyf:_ListDictionary_GetEnumerator_m1511032609
Lwg:_SerializationInfo__ctor_m4016423422
BCa:__ZL18ProgramUniform1uivPK7ApiGLESjiihPKv
X0b:__ZN14Texture2DArray13RebuildMipMapEv
D5i:__ZN13Il2CppHashSetIPK17Il2CppGenericInstN6il2cpp8metadata21Il2CppGenericInstHashENS4_24Il2CppGenericInstCompareENSt3__29allocatorI10KeyWrapperIS2_EEEEC2EjRKS5_RKS6_
GCj:__ZN6il2cpp2gc16GarbageCollector14RemoveWeakLinkEPPv
RVb:__ZN9ShaderLab20SerializedSubProgram14AddVectorParamEPKcii15ShaderParamTypei
AQe:_ReadOnlyCollection_1_System_Collections_IEnumerable_GetEnumerator_m1734360860_gshared
Oti:_ResourceSet_ReadResources_m1669023823
Kif:_PKCS12_RemoveCertificate_m1590055870
vrj:__ZN6il2cpp2vm6Thread7SetNameEP12Il2CppThreadP12Il2CppString
Xaa:__ZN13ScreenManager18SetAllowCursorLockEb
hAb:__ZN30RuntimeInitializeOnLoadManager15ClassMethodInfo8TransferI14SafeBinaryReadEEvRT_
GCb:__ZN9TextAsset8TransferI14SafeBinaryReadEEvRT_
hpg:__ZL73CanvasScaler_t2574720772_CustomAttributesCacheGenerator_m_ScreenMatchModeP21CustomAttributesCache
yP:__ZL22InitializeModule_Audiov
ODc:__ZN16Physics2DManager13DynamicUpdateEv
X9a:__ZN16MemoryFileSystem8IsLockedERK13FileEntryData
qOi:_Vector2_get_Item_m2792130561_AdjustorThunk
eLg:_MonoCMethod_Invoke_m931478014
Vti:_SatelliteContractVersionAttribute__ctor_m2605651717
Zk:_emscripten_glBindRenderbuffer
zGg:_EnumBuilder_HasElementTypeImpl_m1414733955
mmc:__Z32GUIStyle_Set_Custom_PropClippingP12Il2CppObjecti
uIj:_GC_dirty_init
jnd:_Array_Copy_m1969461849
dwg:_MessageFormatter_ReadMethodResponse_m4134629501
cyj:__ZN6il2cpp2vm5Field14GetValueObjectEP9FieldInfoP12Il2CppObject
G_c:__ZNK2UI6Canvas16GetTargetDisplayEv
nHi:_PKCS12_GetSymmetricAlgorithm_m3196291685
JLd:_Environment_get_OSVersion_m1247315981
W7:__ZN6Object17FindObjectsOfTypeEPKN5Unity4TypeER13dynamic_arrayIPS_Lj4EEb
$pi:_AnimationOffsetPlayable_INTERNAL_CALL_GetRotation_m2705874827
cDb:__ZN13MonoBehaviour17RemoveFromManagerEv
Uib:__ZN12ImageFilters14AddImageFilterERK11ImageFilter
Arb:__ZL11DecodeValuePPKcS0_
afh:_ShimEnumerator_MoveNext_m2013866013_gshared
JU:__ZN13MemoryManagerC2Ev
xFa:__ZN12SkinMeshInfo10DeallocateEPS_
OAj:__ZNK6il2cpp5utils11StringUtils21CaseSensitiveComparerclEPKcS4_
HNi:_Transform_SetParent_m1963830867
aNa:__ZN20ArchiveStorageReader28AcquireAndPrefillUnusedBlockEjPNS_11CacheResultE
JZh:__Z78RuntimeInvoker_Il2CppObject_SByte_t454417549_SByte_t454417549_SByte_t454417549PK10MethodInfoPvPS2_
R0b:__Z12NHxRoughnessIA4_tEvP9Texture2DPT_iiii
u8:__ZN18AsyncUploadManagerD2Ev
EXb:__ZN9Transform5ResetEv
dLb:__Z22TransferField_NonArrayI24GenerateTypeTreeTransfer16Converter_StringEvRK23StaticTransferFieldInfoR31RuntimeSerializationCommandInfoRT0_
HPc:_UNITY_FT_CMap_New
ewb:__ZNK17InstancedPropInfo21RenderSpriteInstancesERK15RenderNodeQueuePK17BatchInstanceDataj17ShaderChannelMask
Oaa:__Z17MainLoopKeepalivePv
Bqi:_AnimatorControllerPlayable_INTERNAL_CALL_SetBoolString_m1232105510
JAi:_MatchCollection__ctor_m1944681790
S7c:_HMACSHA512__ctor_m1667460019
J1a:__Z24ScheduleCullingAllGroupsR8JobFenceRK22SceneCullingParameters4PPtrI6CameraERK13CullingOutputRK13dynamic_arrayIP12CullingGroupLj4EERKS_
b1a:__Z14CalcHullBoundsPK8Vector3fPKhhRK5PlaneRK10Matrix4x4fR10MinMaxAABB
_tg:_RealProxy__ctor_m2147093603
GVa:__Z19SetupLODFadeKeywordR17ShaderPassContexti
_Gj:_GC_set_fl_marks
QEa:__ZL25CheckCopyTextureArgumentsRK7ApiGLESP11GLESTextureS3_
o8:__ZN13dynamic_arrayI26EnlightenSystemInformationLj8EE6insertEPS0_PKS0_S4_
lPc:_tt_name_entry_ascii_from_utf16
G8e:_MulticastNotSupportedException__ctor_m2164514827
QEd:_DateTime_System_IConvertible_ToChar_m2489529194_AdjustorThunk
KKb:__Z29Transfer_Blittable_ArrayFieldI24GenerateTypeTreeTransferyEvRT_R9ArrayInfoRK23StaticTransferFieldInfo
GJ:__ZN4FMOD7SystemI9playSoundE17FMOD_CHANNELINDEXPNS_5SoundEbPPNS_7ChannelE
qii:_AttributeHelperEngine_GetRequiredComponents_m120894667
QY:__GLOBAL__sub_I_runtime_graphics_mesh2_lump_cpp
lhg:__ZL68PreferBinarySerialization_t2472773525_CustomAttributesCacheGeneratorP21CustomAttributesCache
Ugj:__ZN6il2cpp2os4File4ReadEPNS0_10FileHandleEPciPi
cI:__ZN12AudioManager23VirtualRedirectTransferER18StreamedBinaryReadILb0EE
Dtb:__ZN10VertexData13SwapEndianessEv
QQj:_realloc
hic:__Z57Register_UnityEngine_Transform_INTERNAL_get_localRotationv
Wvh:_ScrollRect_SetLayoutVertical_m1225848090
h8g:_Type_get_IsInterface_m3583817465
OUj:dynCall_viif
QLg:_MonoField_get_DeclaringType_m1591666235
ZIf:_Enumerator_MoveNext_m4234629003
tS:__ZN11UnityEngine15CloudWebService13WWWRestClient21ParseHTTPHeaderStringEN4core12basic_stringIcNS2_20StringStorageDefaultIcEEEERNS0_16WWWRestHeaderMapERjPKc
YTc:_cf2_hint_lock
MIb:__ZL26Transfer_SimpleNativeClassI17RemapPPtrTransfer8GradientLb0EEvRK29SerializationCommandArgumentsR31RuntimeSerializationCommandInfo
y8i:__ZNK15dense_hashtableINSt3__24pairIK10KeyWrapperI13dynamic_arrayIPK10Il2CppTypeLj4EEEPFvvEEES8_N6il2cpp8metadata19Il2CppSignatureHashEN14dense_hash_mapIS8_SB_SF_NS8_14EqualsComparerINSE_22Il2CppSignatureCompareEEENS0_9allocatorISC_EEE9SelectKeyESJ_SL_E10test_emptyEj
Dgb:__ZNSt3__26vectorIN20ArchiveStorageHeader12StorageBlockE13stl_allocatorIS2_L18MemLabelIdentifier54ELi16EEE21__push_back_slow_pathIKS2_EEvRT_
Scj:__ZN6il2cpp6icalls8mscorlib6System8MonoType14get_attributesEP20Il2CppReflectionType
beb:__Z43DestroyWithoutLoadingButDontDestroyFromFilei
D7e:_MonoType_GetDefaultConstructor_m925465120
Y8g:_Type_IsArrayImpl_m3073208555
qVj:dynCall_viifffi
hTj:dynCall_viiiiiffi
Hc:_emscripten_glBlendFuncSeparate
r_:__Z20scripting_string_newPKc
Bgc:__Z43Material_CUSTOM_Internal_CreateWithMaterialP12Il2CppObjectS0_
l0e:_Directory_GetCurrentDirectory_m44486537
zBe:_Collection_1_System_Collections_ICollection_CopyTo_m1047946700_gshared
ACf:_AsnEncodedData_Default_m4197142414
iF:__Z103Register_UnityEngine_Experimental_Director_AnimatorControllerPlayable_INTERNAL_CALL_ResolveHashInternalv
du:__ZNSt3__26__sortIRPFbPKN8Animator11AnimatorJobES4_EPS4_EEvT0_S9_T_
sH:__ZN17AudioCustomFilterD2Ev
Rkc:__ZNK8GUIStyle13GetLineHeightEv
XDa:__ZN18GfxFramebufferGLES18ReleaseFramebufferEP17RenderSurfaceBaseP14GfxContextGLES
kxi:_Context_GetDynamicPropertyCollection_m1987747444
NDf:_X509Certificate2_get_Version_m1927399907
N2b:__ZN13ProduceHelperI6CameraLb0EE7ProduceE18MemLabelIdentifier18ObjectCreationMode
T0d:_Image_RadialCut_m3229543088
KT:__ZN19CloudServiceHandler34HandleSaveFileWebRequestPlayerLoopEv
Xz:__ZN7mecanim21ValueArrayReverseCopyEPKNS_18ValueArrayConstantEPKNS_10ValueArrayES2_PS3_PKi
dH:__Z31GetParentSampleClipFromInstancePN11SoundHandle8InstanceE
C_b:__ZNK28RectTransformPropertyBinding13GetFloatValueERKN11UnityEngine9Animation10BoundCurveE
A3a:__ZN6Camera22StandaloneCustomRenderENS_10RenderFlagEP6ShaderRKN4core12basic_stringIcNS3_20StringStorageDefaultIcEEEEPNS_21PerformRenderFunctionE
hNj:__ZN6il2cpp2os16ThreadLocalValue8GetValueEPPv
Q9i:__ZN6il2cpp2vm13MetadataCache14GetGenericInstEPKPK10Il2CppTypej
Kbd:_SHA384Managed_Initialize_m712692291
Pb:invoke_iiidii
Aic:__Z52Object_CUSTOM_GetOffsetOfInstanceIDInCPlusPlusObjectv
np:setThrew
J0b:__ZL21BuildEmptyCubeTexturePKci11ColorRGBA3217TextureColorSpace
$Rb:__ZN14SafeBinaryRead21TransferSTLStyleArrayINSt3__26vectorIN9ShaderLab20SerializedSubProgramENS1_9allocatorIS4_EEEEEEvRT_17TransferMetaFlags
Src:__Z15Transfer_StringI8JSONReadLb1EEvRK29SerializationCommandArgumentsR31RuntimeSerializationCommandInfo
Cka:__ZN6prcoreL17RemapGenericFloatI17TexFormatRGBFloat15TexFormatRGHalfEEvPKNS_9InnerInfoE
jXa:__Z25DoForwardShaderRenderLoopR17RenderLoopContextR13dynamic_arrayI16RenderObjectDataLj4EERK11CullResultsbbbN6Camera10RenderFlagE
LOc:_sfnt_load_face
Thf:_PKCS12_GetSymmetricAlgorithm_m1812022677
$3g:_UTF8Encoding_GetByteCount_m2372933408
hxi:_Context_get_NeedsContextSink_m1907794755
COc:_UNITY_ft_service_list_lookup
Pmf:_ARC4Managed_GenerateKey_m716135508
rkc:__ZN5IMGUI21SelectReceivingWindowER8GUIStateb
jD:__ZNK26AnimatorControllerPlayable17ValidateGoToStateERiS0_
QHh:_InternalEnumerator_1_get_Current_m3179981210_gshared
nbb:__ZN13BaseAllocator13TryDeallocateEPv
Vmd:_Array_CreateInstance_m1054139389
dSg:_GUIStyleState_GetGUIStyleState_m2816150617
f0d:_LayoutGroup_GetAlignmentOnAxis_m1783063916
djb:__ZNSt3__26vectorIN12FlareManager10FlareEntryENS_9allocatorIS2_EEE21__push_back_slow_pathIKS2_EEvRT_
qDg:_Default_check_arguments_with_score_m1714931543
bbd:_SHA1_Create_m4086509717
zMg:_MonoMethodInfo_GetMethodInfo_m3298558752
PH:__ZN13AudioListener17RemoveFromManagerEv
Cd:_glAttachShader
WYd:_Dropdown_SetAlpha_m2769981009
NOa:__ZNK6Camera19GetProjectionMatrixEv
PRi:_Predicate_1_BeginInvoke_m1856151290_gshared
XR:__ZN11UnityEngine15CloudWebService10RestClientINS0_16WWWRestHeaderMapEE6SetUrlERKN4core12basic_stringIcNS4_20StringStorageDefaultIcEEEE
W0h:__Z139RuntimeInvoker_Il2CppObject_Il2CppObject_Int32_t2071877448_SByte_t454417549_SByte_t454417549_SByte_t454417549_SByte_t454417549_Il2CppObjectPK10MethodInfoPvPS2_
BJd:_StackTrace__ctor_m2404985356
Q2:__Z38PreallocateObjectFromPersistentManagerib
cFd:_DateTime_System_IConvertible_ToSingle_m3927769066
SY:__GLOBAL__sub_I_runtime_interfaces_lump_cpp
xnb:__ZNK9Texture2D20GetUnscaledTextureIDEv
nDd:_Convert_ToSByte_m883113940
D_j:_glFenceSync__wrapper
dMd:_Exception_get_Message_m173095527
Gmg:__ZL53InputField_t1631627530_CustomAttributesCacheGeneratorP21CustomAttributesCache
zUd:_ButtonClickedEvent__ctor_m938038541
OQb:__ZN18StreamedBinaryReadILb0EE21TransferSTLStyleArrayI13dynamic_arrayI4AABBLj4EEEEvRT_17TransferMetaFlags
M9g:_UInt16_System_IConvertible_ToDouble_m4100549304_AdjustorThunk
MUh:__Z116RuntimeInvoker_Il2CppObject_Il2CppObject_Il2CppObject_Int32_t2071877448_Int32_t2071877448_MonoIOErrorU26_t1029615899PK10MethodInfoPvPS2_
Lna:__Z29ClearRepeatingLogMessageStatev
Bjc:__ZN13TextRendering17TextMeshGenerator13GetTextOffsetERK5RectTIfE
L_i:_HashSet_1_OnDeserialization_m1222146673_gshared
ogd:_Single_System_IConvertible_ToInt16_m962677079
I7:__ZN21EnlightenSceneMappingaSERKS_
BNj:__ZNK6il2cpp8metadata21Il2CppGenericInstHashclEPK17Il2CppGenericInst
Cgd:_Single_System_IConvertible_ToUInt32_m2447833283
vPe:_ReadOnlyCollection_1_System_Collections_IList_Add_m3806843030_gshared
QIa:__ZN7ApiGLESD2Ev
f4a:__ZN9Transform47ClearTransformHierarchyAndApplyToSerializedDataEv
lGh:_InternalEnumerator_1_get_Current_m4083613828_AdjustorThunk
kji:_Bounds_op_Equality_m2161830280
C7a:__ZN17PersistentManager9AddStreamEv
eVj:dynCall_fidi
ejj:__ZN15dense_hashtableINSt3__24pairIK10KeyWrapperINS1_IPK9FieldInfoP11Il2CppClassEEEjEES9_17ReflectionMapHashIS8_EN14dense_hash_mapIS9_jSD_NS9_14EqualsComparerINS0_8equal_toIS8_EEEENS0_9allocatorISB_EEE9SelectKeyESI_SK_E12resize_deltaEjj
lnc:__Z47Register_UnityEngine_GUIStyle_set_imagePositionv
Omc:__Z49GUIStyle_CUSTOM_INTERNAL_CALL_Internal_DrawCursor13Il2Cpp_IntPtrRK5RectTIfEP12Il2CppObjectiRK10ColorRGBAf
H0g:_RectTransform_set_anchorMin_m4247668187
Vjb:__ZN22RenderingCommandBufferC2ERKS_
a9b:__ZNK13MonoBehaviour13GetScriptTypeEv
Mca:__ZN13RenderTexture12SetDimensionE16TextureDimension
aKi:_ScriptableObject_CreateInstance_m3921674852
re:_SDL_FreeRW
igf:_PKCS1_OS2IP_m1273945439
kbd:_SHA1Internal_FillBuff_m891541953
Y$c:__Z34CanvasRenderer_Get_Custom_PropCullP12Il2CppObject
tN:__ZN20SoundChannelInstance8getDelayE14FMOD_DELAYTYPEPjS1_
$eb:__ZN21AssetBundleFileSystemC2EPKc
v2h:__Z113RuntimeInvoker_Int32_t2071877448_Vector2_t2243707579_Vector2_t2243707579_ContactFilter2D_t1672660996_Il2CppObjectPK10MethodInfoPvPS2_
$Rh:__Z61RuntimeInvoker_Void_t1841601450_Il2CppObject_Int64_t909078037PK10MethodInfoPvPS2_
Y1d:_InputField_set_customCaretColor_m3534590098
Guh:_ScrollRect_set_viewport_m323693490
A1:__ZN10UnitySceneD0Ev
FUe:_NumberFormatter_FormatExponential_m3975285307
uJc:__ZNSt3__26vectorIN20TextRenderingPrivate8FontImpl13CharacterInfoE13stl_allocatorIS3_L18MemLabelIdentifier1ELi16EEE8__appendEj
v:tempBigInt
ze:_emscripten_glVertexAttrib1fv
ASb:__ZNSt3__26vectorIN9ShaderLab20SerializedSubProgram12UAVParameterENS_9allocatorIS3_EEE7reserveEj
sgi:_AnimationCurve_Init_m1486386337
imi:_Component_GetComponents_m3712441745
aYf:__ZL99Thread_t241561612_CustomAttributesCacheGenerator_Thread_t241561612____ExecutionContext_PropertyInfoP21CustomAttributesCache
xUi:_UnityAction_4_Invoke_m3312096275_gshared
m1g:_RectTransformUtility_ScreenPointToRay_m1842507230
N2a:__ZN16ReflectionProbes16UpdateSampleDataEv
JEb:__ZN14SafeBinaryRead21TransferSTLStyleArrayI10vector_setI4PPtrI10MonoScriptENSt3__24lessIS4_EE13stl_allocatorIS4_L18MemLabelIdentifier76ELi16EEEEEvRT_17TransferMetaFlags
cWh:__Z103RuntimeInvoker_Il2CppObject_Il2CppObject_StreamingContext_t1417235061_ISurrogateSelectorU26_t2635255864PK10MethodInfoPvPS2_
evi:_SafeHandle_Finalize_m1839546519
qtc:__ZN8JSONRead21TransferSTLStyleArrayINSt3__26vectorI10RectOffset13stl_allocatorIS3_L18MemLabelIdentifier1ELi16EEEEEEvRT_S5_17TransferMetaFlags
Sxi:_Context_AllocateNamedDataSlot_m3200404053
xqa:__ZN14BatchAllocator6CommitE18MemLabelIdentifier
LCf:_X509EnhancedKeyUsageExtension_Decode_m3866320499
BUe:_NumberFormatter_AppendIntegerStringWithGroupSeparator_m1401773574
We:_JS_Sound_Play
g1d:_Image_IsRaycastLocationValid_m864962354
CRb:__ZN9ShaderLab16SerializedShader8TransferI14SafeBinaryReadEEvRT_
Bt:__ZN7mecanim8skeleton13SkeletonAlignEPKNS0_8SkeletonERKN4math7_float4ES7_i
A1b:__ZN19ShaderPropertySheet16SetVectorIndexedEN9ShaderLab16FastPropertyNameEifRK8Vector4fNS_8SetFlagsE
Bq:__ZN14SafeBinaryRead21TransferSTLStyleArrayIN4core12basic_stringIcNS1_20StringStorageDefaultIcEEEEEEvRT_17TransferMetaFlags
uug:_RemotingConfiguration_RegisterWellKnownServiceType_m2491506630
PSf:__ZL55_TypeBuilder_t2783404358_CustomAttributesCacheGeneratorP21CustomAttributesCache
Fue:_List_1_System_Collections_IList_IndexOf_m4061554721_gshared
qT:__ZN11UnityEngine15CloudWebService14DataDispatcher4StopEv
CSb:__ZNSt3__26vectorIN9ShaderLab20SerializedSubProgram12UAVParameterENS_9allocatorIS3_EEE8__appendEj
sdd:_X509Certificate_ToString_m1582581274
wgh:_Enumerator_get_Current_m2986380627_gshared
lfa:__ZN17ScriptingGCHandle7AcquireE18ScriptingObjectPtr25ScriptingGCHandleWeakness
Twi:_LifetimeServices_set_LeaseTime_m1487876644
CEg:_ConstructorBuilder_not_supported_m3687319507
tgd:_Single_System_IConvertible_ToInt64_m3555853323_AdjustorThunk
XTj:dynCall_iifiii
kpa:__Z21HasAlphaTextureFormat13TextureFormat
KO:__ZN12AudioManager6UpdateEv
ipa:__ZN14ImageReference9BlitImageERKS_NS_8BlitModeE
Zr:__ZN8Animator12AddToManagerEv
aEb:__ZN23CachedSerializationDataD2Ev
n2a:__ZNK25CameraStackRenderingState31CalculateStereoCameraTargetTypeEv
vlb:__ZN14RenderSettings23VirtualRedirectTransferER14SafeBinaryRead
fwc:__ZNK13b2CircleShape5CloneEP16b2BlockAllocator
IBj:__ZN6il2cpp2os10ThreadImpl15CurrentThreadIdEv
J6d:_Array_InternalArray__ICollection_Contains_TisColor32_t874517518_m2818328910_gshared
y$g:_RaycastHit2D_get_point_m442317739
_Zh:__Z72RuntimeInvoker_Il2CppObject_Il2CppObject_Decimal_t724701077_Il2CppObjectPK10MethodInfoPvPS2_
QWc:_UNITY_tt_face_load_fpgm
Xwb:__ZN12InputManagerD0Ev
BLj:__ZN6il2cpp6icalls8mscorlib6System11Diagnostics10StackTrace9get_traceEP15Il2CppExceptionib
QVe:_NumberFormatInfo_set_NumberNegativePattern_m1050626150
QTg:_GUIStyle_get_overflow_m1125058093
Qsi:_AnimatorControllerPlayable_Play_m4092315465
Hoa:__ZNK16LightmapSettings14GetLightProbesEv
Q2g:_UnicodeEncoding_GetBytes_m1337660232
zPb:__Z18Transfer_BlittableI18StreamedBinaryReadILb0EELb1EtEvRK29SerializationCommandArgumentsR31RuntimeSerializationCommandInfo
VQj:_posix_memalign
Q1b:__ZN13ProduceHelperI12MeshRendererLb0EE7ProduceE18MemLabelIdentifier18ObjectCreationMode
zVi:_BinCollisionScript_Start_m3958157723
bLh:_InternalEnumerator_1_get_Current_m747506907_AdjustorThunk
wji:_Camera_get_eventMask_m4241372419
HRg:_GUILayoutUtility_LayoutFromEditorWindow_m1847418289
T2:__ZNK15MonoScriptCache7ReleaseEv
W$i:__ZN6il2cpp2vm5Class13HasReferencesEP11Il2CppClass
jg:_glBindTexture
iPj:_snprintf
F2d:_InputField_set_caretPosition_m888572237
THg:_ILGenerator__cctor_m3943061018
Xtd:_ArrayListWrapper_Clone_m1506311066
koi:_Event_get_character_m3740896233
zma:__Z36scripting_liveness_calculation_begin17ScriptingClassPtriPFvPP12Il2CppObjectiPvES3_PFvvES7_
LGa:__ZN16UniformCacheGLES6CreateERK20GpuProgramParameters
i4g:_UTF8Encoding_Fallback_m811555654
Ubh:_UInt64_CompareTo_m3513742483
Ald:_Encoding_GetString_m1894033578
qOe:_ReadOnlyCollection_1_System_Collections_IList_Clear_m1918003010_gshared
sRi:_Nullable_1_Equals_m3860982732_gshared
VXj:_emscripten_glGetProgramInfoLog__wrapper
m4g:_UTF8Encoding_InternalGetChars_m373801468
D5:__ZN17PersistentManager23DestroyFromFileInternalEi
BLd:_Enum_ToString_m2112979707
ULi:_TextGenerator_ValidatedSettings_m1640214759
Qrg:_MonoMethodMessage_get_MethodName_m3580519713
vv:__ZN26AnimatorControllerPlayable18PrepareForPlaybackERN7mecanim6memory9AllocatorE
d4g:_UTF8Encoding_GetBytes_m4170182058
dga:__ZN22CreateGpuProgramOutputC2Ev
vFf:_X509Chain__ctor_m2242540866
D2e:_MemoryStream_InternalConstructor_m2423667240
wOh:__Z70RuntimeInvoker_Il2CppObject_Il2CppObject_Il2CppObject_SByte_t454417549PK10MethodInfoPvPS2_
Osg:_SoapMethodAttribute_SetReflectionObject_m3431595769
gxh:_Slider_set_maxValue_m2951480075
t2b:__ZN8GUILayer12CleanupClassEv
T3d:_InputField_OnSubmit_m2856515494
V$i:__ZN6il2cpp2vm5Class4InitEP11Il2CppClass
ha:invoke_vidi
EOi:_Vector2_op_Subtraction_m1984215297
d_c:__ZN2UI14CanvasRenderer17SyncDirtyElementsER8JobFence
jWd:_ColorBlock_op_Inequality_m1517672458
LAj:__ZN6il2cpp5utils11StringUtils15StringDuplicateEPKc
F4a:__Z15CanAddComponentR10GameObjectPKN5Unity4TypeE
yfa:__ZNK9ShaderLab21ShaderRasterStateDesc16ToGfxRasterStateEPK19ShaderPropertySheetS3_R14GfxRasterState
wV:_tlsf_memalign
cAg:_CspParameters__ctor_m2480441577
qNj:__ZN6il2cpp2os9EventImplC2Ebb
txi:_DynamicPropertyCollection_NotifyMessage_m840388347
qFi:_Uri_ParseUri_m5711497
ucb:__ZNK5Unity9Component26GetTypeInfoVirtualInternalEv
J$:__Z20IsMatrixBuiltinParamPKcPi
ZEe:_Collection_1_CheckWritable_m2467777750_gshared
i1b:__ZN8Renderer19PostInitializeClassEv
iMc:__ZN20TextRenderingPrivate15DynamicFontDataD2Ev
FBh:_InternalEnumerator_1_get_Current_m1943362081_AdjustorThunk
hPi:_Vector3_get_sqrMagnitude_m1814096310_AdjustorThunk
SJj:__ZN6il2cpp6icalls8mscorlib6System8Delegate23CreateDelegate_internalEP20Il2CppReflectionTypeP12Il2CppObjectP22Il2CppReflectionMethodb
kDg:_Default_check_type_m2363631305
nDb:__ZN18DelayedCallManager18CancelCallDelayed2E4PPtrI6ObjectEPF15CallObjectStatePS1_PvES7_
pri:_AnimatorControllerPlayable_INTERNAL_CALL_GetLayerIndexInternal_m1847150746
sbb:__ZN25ThreadsafeLinearAllocator10ReallocateEPvji
lFb:__Z18Transfer_BlittableI14SafeBinaryReadLb1E11QuaternionfEvRK29SerializationCommandArgumentsR31RuntimeSerializationCommandInfo
Dbe:_Array_InternalArray__IndexOf_TisRaycastHit2D_t4063908774_m3739817942_gshared
ZMg:_MonoProperty_GetAccessors_m3704698731
oVh:__Z146RuntimeInvoker_Il2CppObject_Int32_t2071877448_Il2CppObject_ObjectU5BU5DU26_t3223402458_Il2CppObject_Il2CppObject_Il2CppObject_ObjectU26_t597476745PK10MethodInfoPvPS2_
fJj:_GC_disable
Qtb:__ZN10Matrix4x4f8TransferI14SafeBinaryReadEEvRT_
T5e:_UnmanagedMemoryStream_ReadByte_m2501145010
nwg:_ObjectRecord_UnchainFixup_m3025030310
sv:__ZN14AvatarPlayback8StopTimeEv
Y5:__Z6AppendRKN4core12basic_stringIcNS_20StringStorageDefaultIcEEEEPKc
XMb:__Z18Transfer_BlittableI18StreamedBinaryReadILb1EELb0E8Vector3fEvRK29SerializationCommandArgumentsR31RuntimeSerializationCommandInfo
reb:__ZN14CachingManager15ClearTempFolderEv
Mza:__ZN7ApiGLES18ClearBufferSubDataEjN2gl12BufferTargetEll
pbc:__Z37Camera_Get_Custom_PropAllCamerasCountv
Ysb:__ZN14Texture2DArray8TransferI18StreamedBinaryReadILb0EEEEvRT_
Frj:__ZN6il2cpp6icalls8mscorlib6System5Array9GetLengthEP11Il2CppArrayi
K$a:__Z18ApplyOcclusionMaskR19ProbeOcclusionCacheRK17LightProbeContextRK10RenderNodeb
X1e:_FileStreamAsyncResult__ctor_m1096228032
rRc:_Split_Cubic
eb:invoke_fiiii
_Gd:_DBNull_System_IConvertible_ToSByte_m1228193074
EDe:_Collection_1__ctor_m2818834331_gshared
wke:_Array_InternalArray__get_Item_TisUICharInfo_t3056636800_m3872982785_gshared
pxe:_List_1__ctor_m2168280176_gshared
KBj:__ZN6il2cpp2os10ThreadImpl22CreateForCurrentThreadEv
x1e:_FileStream_FlushBuffer_m2594140542
Gnc:__Z64Register_UnityEngine_GUIStyle_GetFontInternalDuringLoadingThreadv
rFj:__ZN6il2cpp2vm8Profiler12GCHeapResizeEx
mVj:dynCall_viiifi
CDa:__ZN18GfxFramebufferGLES20ActiveContextChangedEPP17RenderSurfaceBaseS2_
dZa:__ZN19ShaderPropertySheet17UpdateTextureInfoEiN9ShaderLab16FastPropertyNameEPK10TextureRef
yDa:__Z19PluginsRenderMarkeri
mC:__ZN10HumanTrait18InitializeBoneNameEv
EHi:_X509CertificateEnumerator_get_Current_m3129374511
wzj:__ZNSt3__214__split_bufferIN6il2cpp2vm5Image20EmbeddedResourceDataERNS_9allocatorIS4_EEEC2EjjS7_
QQa:__ZN5Image13ReformatImageERK14ImageReferenceii13TextureFormatNS0_8BlitModeE
$Rf:__ZL57DispIdAttribute_t607560947_CustomAttributesCacheGeneratorP21CustomAttributesCache
BH:__ZN12AudioManager17RemoveAudioSourceEP11AudioSource
Smi:_CullingGroup_Finalize_m3172731580
XQi:_AesManaged_get_KeySize_m2773901127
lke:_Array_InternalArray__get_Item_TisUInt64_t2909196914_m2580870875_gshared
y$b:__ZN13ProduceHelperI14SpriteRendererLb0EE7ProduceE18MemLabelIdentifier18ObjectCreationMode
IP:__ZN5physx14PxLightCpuTask12addReferenceEv
dEc:__Z10b2DistanceP16b2DistanceOutputP14b2SimplexCachePK15b2DistanceInput
ypb:__ZN21EnlightenSceneMapping8TransferI19StreamedBinaryWriteILb0EEEEvRT_
txj:__ZN6il2cpp2gc16GarbageCollector19InitializeFinalizerEv
Wjc:__ZN10GUIManager10DoGUIEventER10InputEventb
hGj:_GC_bl_init_no_interiors
w0:__Z20CalculateSqrDistanceRK8Vector3fRK4AABB
Vzj:__ZN6il2cpp2vm12GenericClass8GetClassEP18Il2CppGenericClass
xL:__Z32AudioMixerDuckingProcessCallbackP21UnityAudioEffectStatePfS1_jii
ZDg:_CustomAttributeTypedArgument_GetHashCode_m999147081_AdjustorThunk
o0b:__ZN26CustomRenderTextureManagerD2Ev
G1e:_FileStream_Read_m3880951166
hI:__ZN12AudioManager8TransferI24GenerateTypeTreeTransferEEvRT_
fja:__Z25GetBytesFromTextureFormat13TextureFormat
c3h:__Z105RuntimeInvoker_Void_t1841601450_Int32_t2071877448_Single_t2076509932_Int32_t2071877448_Single_t2076509932PK10MethodInfoPvPS2_
jTj:dynCall_iiffi
Sje:_Array_InternalArray__get_Item_TisInt16_t4041245914_m2533263979_gshared
Si:_emscripten_webgl_init_context_attributes
LB:__ZN16MecanimAnimation25RegisterIAnimationBindingEPKN5Unity4TypeEiP17IAnimationBinding
P3:__Z32scripting_class_get_assemblyname17ScriptingClassPtr
iEc:__ZN9b2Simplex9ReadCacheEPK14b2SimplexCachePK15b2DistanceProxyRK11b2TransformS5_S8_
xih:_Dictionary_2_Resize_m2532139610_gshared
iLi:_StackTraceUtility__cctor_m1132099289
n7g:_TimeSpan_Equals_m2029123271_AdjustorThunk
uaj:__ZN6il2cpp2vm13MetadataCache23GetInvokerMethodPointerEPK10MethodInfoPK20Il2CppGenericContext
SHa:__ZN9GfxDevice21RegisterNativeTextureE9TextureIDi16TextureDimension
uNd:_CultureInfo__ctor_m456863818
TKj:__ZN6il2cpp6icalls8mscorlib6System10Reflection4Emit11TypeBuilder20create_generic_classEP27Il2CppReflectionTypeBuilder
Yne:_Enumerator_MoveNext_m2504790928_gshared
TV:__ZN3WWW20GetCachedErrorStringEv
rWb:__ZN12ScriptMapperD2Ev
c8c:_KeyedHashAlgorithm_Dispose_m1864300576
xHi:_X509Certificate_PEM_m49854707
OCf:_X509BasicConstraintsExtension__ctor_m3320418592
HGi:_ExtendedKeyUsageExtension_Decode_m901297139
yhc:__Z52Register_UnityEngine_RenderTexture_Internal_GetWidthv
RHj:_GC_check_leaked
$Ub:__ZN9ShaderLab20SerializedSubProgram16TextureParameter8TransferI19StreamedBinaryWriteILb0EEEEvRT_
_ee:_Array_InternalArray__Insert_TisVector4_t2243707581_m1643342708_gshared
yT:__ZN11UnityEngine15CloudWebService16SessionContainer8AddEventEPNS0_14CloudEventInfoE
NGa:__Z4TrimRKN4core12basic_stringIcNS_20StringStorageDefaultIcEEEES5_
oyh:_Text_set_resizeTextMaxSize_m4034967714
eNf:__ZL55GuidAttribute_t222072359_CustomAttributesCacheGeneratorP21CustomAttributesCache
EPg:_GUIStyle_SetDefaultFont_m2095841351
KDg:_CustomAttributeNamedArgument_Equals_m2691468532
Trb:__ZN10VertexData8TransferI14SafeBinaryReadEEvRT_
AJ:__ZN4FMOD8ChannelI8setDelayE14FMOD_DELAYTYPEjj
$yd:_Stack__ctor_m2410583781
LIj:_GC_malloc_atomic
iDg:_Default_GetBetterMethod_m4255740863
QD:__Z93Register_UnityEngine_Experimental_Director_AnimationClipPlayable_INTERNAL_CALL_SetApplyFootIKv
Gei:__Z48RuntimeInvoker_UIVertex_t1204258818_Il2CppObjectPK10MethodInfoPvPS2_
yzj:__ZNSt3__214__split_bufferIN6il2cpp2vm5Image20EmbeddedResourceDataERNS_9allocatorIS4_EEED2Ev
Xdb:__ZN15dense_hashtableINSt3__24pairIKN4core12basic_stringIcNS2_20StringStorageDefaultIcEEEEP11AssetBundleEES6_20StringHash32FunctionIS6_EN14dense_hash_mapIS6_S9_SC_NS0_8equal_toIS6_EENS0_9allocatorISA_EEE9SelectKeyESF_SH_E4findERS7_
W1:__ZL20SortItemByInstanceIDRKN18AwakeFromLoadQueue4ItemES2_
rJg:_TypeBuilder_create_runtime_class_m2719530260
gad:_RNGCryptoServiceProvider_RngClose_m2921734810
ev:__ZNK34AnimationStateMachineMixerPlayable26GetInterruptedPosePlayableEv
R5c:__ZN20UnityConnectSettings8TransferI24GenerateTypeTreeTransferEEvRT_
bt:__ZN34BlobWriteTransferSTLStyleArrayImplI22OffsetPtrArrayTransferIbEEclERS1_17TransferMetaFlagsR9BlobWrite
Iaf:_SimpleCollator_IsHalfKana_m4255579023
CBe:_Collection_1_System_Collections_IList_Contains_m3365884450_gshared
HMa:__Z16FlaggedAsSkippedIN4core12basic_stringIcNS0_20StringStorageDefaultIcEEEEEbRK13FileEntryInfoRKT_19FileEnumerationFlag
y7:__ZL31InitializeRendererUpdateManagerPv
Nrf:_ClientSessionInfo_Dispose_m2571428025
a5d:_LayoutGroup_DelayedSetDirty_m4276695617
Zuf:_RecordProtocol_decryptRecordFragment_m2510859489
aeb:__Z28GetAbsoluteAssetBundlePrefixRKN4core12basic_stringIcNS_20StringStorageDefaultIcEEEE
Mxb:__ZN11TimeManager8TransferI19StreamedBinaryWriteILb0EEEEvRT_
m2e:_DelegatePInvokeWrapper_ReadDelegate_t3184826381
qSc:_compare_uni_maps
g4c:__ZN11UnityEngine15PlatformWrapper27GetGraphicsCapsSupportFlagsEv
pId:_Decimal_Equals_m1115043331
JMb:__ZN12NativeBufferI16Converter_StringE15SetupForWritingER9ArrayInfo
XWj:___cxa_end_catch__wrapper
whh:_ValueCollection_System_Collections_Generic_ICollectionU3CTValueU3E_Clear_m231380274_gshared
eQd:_Entry__ctor_m1176697586
z4a:__ZN13MonoBehaviour22DoScriptRebuildWarningEv
rbc:__Z38Camera_CUSTOM_INTERNAL_CALL_RaycastTryP12Il2CppObjectRK3Rayfi
xyh:_Text_get_verticalOverflow_m3134063496
Arj:__ZN6il2cpp6icalls8mscorlib6System5Array13ClearInternalEP11Il2CppArrayii
zui:_GCHandle_get_Target_m2327042781
KSj:_llvm_cttz_i32
hDf:_PublicKey_DecodeDSA_m1169363495
glc:__ZN11IMGUIModule25GetGUIStyleScriptingClassEv
oVc:_tt_get_interface
Dsj:__ZN6il2cpp5utils9PathUtils7CombineIcEENSt3__212basic_stringIT_NS3_11char_traitsIS5_EENS3_9allocatorIS5_EEEERKSA_SC_
izf:_NameObjectCollectionBase_BaseGet_m667273025
Krc:__ZN9JSONWrite8TransferI13dynamic_arrayIiLj4EEEEvRT_PKc17TransferMetaFlags
u_:__Z18ConvertUTF16toUTF8PPKtS0_PPhS2_15ConversionFlags
aDj:__ZN6il2cpp2os20PathErrnoToErrorCodeERKNSt3__212basic_stringIcNS1_11char_traitsIcEENS1_9allocatorIcEEEEi
E8g:_TypeLoadException__ctor_m1903359728
gXi:__ZL16my_g_bit_nth_msfj
d8c:_KeySizes__ctor_m3526899007
eWb:__ZNK12ShaderErrors11ShaderErrorltERKS0_
xhg:__ZL69ArgumentCache_t4810721_CustomAttributesCacheGenerator_m_FloatArgumentP21CustomAttributesCache
Xkd:_EncoderReplacementFallback__ctor_m2208438262
rUa:__Z23SetupStereoFlareElementP11FlareVertexRK8Vector2fS3_S3_RK11ColorRGBA32RK10Matrix4x4fRK8Vector3fb
ua:invoke_iiiifiiii
Kuc:__ZN9rapidjson8internal6u64toaEyPc
w0e:_Directory_GetFiles_m4036267478
ZKd:_Enum_System_IConvertible_ToType_m2669300536
dEa:__ZL19BlitFramebufferImplRN4gles23BlitFramebufferDrawQuadER9GfxDevice9TextureIDRK8Vector4f
Gjj:__ZN15dense_hashtableINSt3__24pairIK10KeyWrapperIPK10Il2CppTypeEjEES6_N6il2cpp8metadata14Il2CppTypeHashEN14dense_hash_mapIS6_jSB_NS6_14EqualsComparerINSA_26Il2CppTypeEqualityComparerEEENS0_9allocatorIS8_EEE9SelectKeyESF_SH_E4findERS7_
dMe:_ReadOnlyCollection_1_System_Collections_IList_Add_m2333231354_gshared
mLc:_UNITY_FT_List_Add
hJg:_OpCodes__cctor_m939885911
L0b:__ZN14Texture2DArray11InitTextureEiii13TextureFormatb
AGi:_UriParser_InitializeAndValidate_m251943319
Bcd:_SymmetricAlgorithm_set_Padding_m3081984460
vxb:__ZN9InputAxis8TransferI18StreamedBinaryReadILb0EEEEvRT_
itd:_ArrayList_RemoveAt_m2578928333
OFb:__Z18Transfer_BlittableI14SafeBinaryReadLb0EaEvRK29SerializationCommandArgumentsR31RuntimeSerializationCommandInfo
vqi:_AnimatorControllerPlayable_INTERNAL_CALL_GetBoolString_m538178071
jLe:_ReadOnlyCollection_1_System_Collections_IList_set_Item_m1233322304_gshared
OGi:_GeneralNames_get_DNSNames_m2721668874
PKd:_Enum_System_IConvertible_ToByte_m38374586
TKe:_ReadOnlyCollection_1_System_Collections_Generic_IListU3CTU3E_RemoveAt_m1592158292_gshared
iWj:_emscripten_glFrustum__wrapper
pvf:_ReceiveRecordAsyncResult_get_CompletedWithError_m2670396551
aId:_Decimal_Equals_m1798565377
ZFg:_TypeBuilder_check_created_m2929267877
dRa:__Z20SyncFenceCullResultsR11CullResults
EFa:__ZN15TextureTFMethod20IsBoneCountSupportedEi
lD:__ZN26AnimatorControllerPlayable9GotoStateEiifff
JSg:_GUISkin_set_horizontalScrollbarThumb_m2119687595
ulb:__ZN14RenderSettings23VirtualRedirectTransferER24GenerateTypeTreeTransfer
bFd:_DateTime_System_IConvertible_ToSByte_m2575078084_AdjustorThunk
lJb:__Z22TransferField_NonArrayI17RemapPPtrTransfer27Converter_SimpleNativeClassI8GUIStyleEEvRK23StaticTransferFieldInfoR31RuntimeSerializationCommandInfoRT0_
qhi:_AnimatorStateInfo_IsTag_m1529621725_AdjustorThunk
U_b:__ZNK17AnimationCurveTplIfE20EvaluateWithoutCacheEfRf
zDj:__ZN6il2cpp2os6Thread12QueueUserAPCEPFvPvES2_
tVg:_GUIStyleState__ctor_m3611888666
kEe:_Collection_1_IsValidItem_m1304951912_gshared
W5b:__ZN4Mesh10SetNormalsEPK8Vector3fj
SHc:__Z66Register_UnityEngine_Physics2D_INTERNAL_CALL_GetRayIntersectionAllv
oBd:_Convert_ToDateTime_m4161927553
dGg:_TypeBuilder_GetConstructors_m774120094
CAj:__ZNSt3__212basic_stringIDsNS_11char_traitsIDsEENS_9allocatorIDsEEE9__grow_byEjjjjjj
qr:__ZN17AnimationCurveTplIfE8TransferI14SafeBinaryReadEEvRT_
IVi:_CameraScroller_Update_m1863871041
tMd:_Calendar_get_EraNames_m452820602
irb:__ZNSt3__26vectorIN15QualitySettings14QualitySettingENS_9allocatorIS2_EEE6assignIPS2_EENS_9enable_ifIXaasr21__is_forward_iteratorIT_EE5valuesr16is_constructibleIS2_NS_15iterator_traitsIS9_E9referenceEEE5valueEvE4typeES9_S9_
sSa:__ZNK19ShaderPropertySheet11HasPropertyERKN9ShaderLab16FastPropertyNameE
OEd:_DateTime_System_IConvertible_ToByte_m2670443498_AdjustorThunk
$4:__Z16AsyncReadRequestP16AsyncReadCommand
Hlf:_BigInteger_op_Addition_m1734797151
_5h:__Z110RuntimeInvoker_Boolean_t3825574718_Vector2_t2243707579_Vector2_t2243707579_Single_t2076509932_SByte_t454417549PK10MethodInfoPvPS2_
fte:_List_1_CheckMatch_m1814522134_gshared
yGg:_EnumBuilder_CreateNotSupportedException_m62763134
o6e:_Math_Log_m3371716878
SPg:_GUILayoutUtility_Layout_m3812180708
mxb:__ZN9InputAxis8TransferI14SafeBinaryReadEEvRT_
j2:__ZNK21ExecutionOrderManager30GetCustomAwakeFromLoadQueueForEPKN5Unity4TypeE
$6c:__Z27RegisterModule_UnityConnectv
k6g:_Scheduler_Remove_m1930366072
bji:_Bounds_get_size_m1728027642_AdjustorThunk
Vtg:_RealProxy__ctor_m3041043303
VTe:_NumberFormatter_Init_m2654758994
H7c:_HMACSHA1__ctor_m1168389339
WK:__ZN10ObjectPoolIN4FMOD12ChannelGroupENS0_13ChannelGroupIEE7SetSizeEi
Bdf:_PrimalityTest_BeginInvoke_m966469054
KOe:_ReadOnlyCollection_1_System_Collections_Generic_ICollectionU3CTU3E_Clear_m1785953911_gshared
Ebh:_UInt64_System_IConvertible_ToInt16_m2797150165_AdjustorThunk
VOa:__ZN5Image13ReformatImageEii13TextureFormatN14ImageReference8BlitModeE
Zje:_Array_InternalArray__get_Item_TisLabelData_t3712112744_m863115768_gshared
sZe:_Int32_Parse_m753946802
UCc:__ZN19CollisionListener2D15ProcessContactsEP10Collider2Db
vYb:__ZN9Polygon2D7SetPathEiRK13dynamic_arrayI8Vector2fLj4EE
Zye:_List_1_RemoveAt_m2331128844_gshared
Doj:__ZN14dense_hash_mapI10KeyWrapperINSt3__24pairIPK9EventInfoP11Il2CppClassEEEj17ReflectionMapHashIS8_ENS9_14EqualsComparerINS1_8equal_toIS8_EEEENS1_9allocatorINS2_IKS9_jEEEEE15set_deleted_keyERSH_
PJg:_UnmanagedMarshal_ToMarshalAsAttribute_m3695569337
gHb:__Z14resize_trimmedINSt3__26vectorI17AnimationCurveTplIfE13stl_allocatorIS3_L18MemLabelIdentifier1ELi16EEEEEvRT_j
m2a:__ZN25CameraStackRenderingState19SetupLastEyeCamerasERK11CameraStack
Jgb:__Z12GUIDToStringRK9UnityGUID
aH:__ZN11SoundHandleC2ERKS_
Rqh:_Mask_OnEnable_m501850981
hki:_Canvas_get_targetDisplay_m316548313
JHg:_GenericTypeParameterBuilder_GetGenericTypeDefinition_m2936287336
gdf:_BigInteger_op_Addition_m1196561843
Zwi:_FormatterData__ctor_m3974986124
s9c:_RijndaelManagedTransform_get_CanReuseTransform_m3735256596
kwd:_Comparer__cctor_m1327316974
r0e:_MonoIO_ExistsFile_m1421941572
lGd:_DateTime_op_GreaterThanOrEqual_m3818963848
uy:__ZN17AnimationPlayable18DeallocateBindingsEv
vXd:_DefaultControls_SetDefaultTextValues_m1707718380
uTd:_TouchInputModule_UseFakeInput_m2112019004
wPd:_EventSystem_get_baseEventDataCache_m4294741599
Alb:__ZN14RenderSettings18TransferDeprecatedI14SafeBinaryReadEEvRT_
WX:__ZN12TLSAllocatorI14StackAllocatorE8AllocateEji
h3:__ZN16ScriptingManager18GetMonoScriptCacheEi
WQg:_GUIStyle_get_stretchHeight_m3396762700
i8i:__ZN13dynamic_arrayIPK10Il2CppTypeLj4EEC2ERKS3_
M5i:__ZN15dense_hashtableINSt3__24pairIK10KeyWrapperIPK11Il2CppClassEPKcEES6_N6il2cpp5utils11PointerHashIS3_EEN14dense_hash_mapIS6_S9_SE_NS6_14EqualsComparerINS0_8equal_toIS5_EEEENS0_9allocatorISA_EEE9SelectKeyESJ_SL_E15set_deleted_keyERKSA_
B$d:_GridLayoutGroup_CalculateLayoutInputHorizontal_m2355123124
TFb:__Z18Transfer_BlittableI14SafeBinaryReadLb1EyEvRK29SerializationCommandArgumentsR31RuntimeSerializationCommandInfo
yoc:__ZN8JSONRead8TransferIfEEvRT_PKc17TransferMetaFlagsb
Xzh:_U3CGetEnumeratorU3Ec__Iterator0_Reset_m2980566576_gshared
tRj:__ZNSt3__212basic_stringIcNS_11char_traitsIcEENS_9allocatorIcEEE6appendEPKcj
jQf:__ZL54TypeBuilder_t3308873219_CustomAttributesCacheGeneratorP21CustomAttributesCache
Rka:__ZN6prcoreL17RemapGenericFloatI18TexFormatARGBFloat17TexFormatRGBAHalfEEvPKNS_9InnerInfoE
KFe:_Collection_1_CheckWritable_m691269733_gshared
aHg:_GenericTypeParameterBuilder_GetAttributeFlagsImpl_m3338182267
eQ:__ZN13Simd4iFactoryIN6detail9FourTupleEEC2Eiiii
L4e:_SynchronizedReader__ctor_m1408327515
CQe:_ReadOnlyCollection_1_System_Collections_IList_Clear_m1858417639_gshared
aOa:__ZZ23InitPlayerLoopCallbacksvEN38PostLateUpdateShaderHandleErrorsstruct7ForwardEv
Yob:__ZN15SerializeTraitsI33EnlightenTerrainChunksInformationE8TransferI14SafeBinaryReadEEvRS0_RT_
lFc:__ZN6b2Body12SetTransformERK6b2Vec2f
x1b:__ZNK32RendererMaterialAnimationBinding9BindValueER6ObjectRKN11UnityEngine9Animation14GenericBindingERNS3_10BoundCurveE
LTh:__Z112RuntimeInvoker_Int32_t2071877448_Il2CppObject_Int32_t2071877448_Int32_t2071877448_Il2CppObject_Int32_t2071877448PK10MethodInfoPvPS2_
Dvb:__Z13GetIAnimationv
Bpa:__ZL18stbir__support_onef
Qre:_List_1_System_Collections_IList_Remove_m2040310137_gshared
wqc:__Z26Transfer_UnityEngineObjectI9JSONWriteLb0EEvRK29SerializationCommandArgumentsR31RuntimeSerializationCommandInfo
Lba:__ZN9ShaderLab4Pass9ApplyPassEjPK19ShaderPropertySheetR17ShaderPassContextP6ShaderiPKNS_10GrabPassesEPNS_11SubProgramsE
bld:_EncoderReplacementFallback_CreateFallbackBuffer_m3579126537
Lah:_UInt32_System_IConvertible_ToInt16_m2251335934_AdjustorThunk
rZc:__ZNSt3__27__sort5IRNS_6__lessIN2UI14DepthSortEntryES3_EEPS3_EEjT0_S7_S7_S7_S7_T_
h6i:__ZN14dense_hash_mapI10KeyWrapperIPKcEP11Il2CppClassN6il2cpp5utils11StringUtils12StringHasherIS2_EENS3_14EqualsComparerINS8_21CaseSensitiveComparerEEENSt3__29allocatorINSE_4pairIKS3_S5_EEEEE13set_empty_keyERSH_
mOh:__Z31RuntimeInvoker_Void_t1841601450PK10MethodInfoPvPS2_
Iod:_Boolean_System_IConvertible_ToType_m3990189691
Da:invoke_vdd
Bn:FUNCTION_TABLE_fiii
nKd:_Double_System_IConvertible_ToUInt32_m624993430
En:FUNCTION_TABLE_fiif
O$b:__ZNK30SpriteRendererAnimationBinding12GetPPtrValueERKN11UnityEngine9Animation10BoundCurveE
i6g:_Scheduler_Add_m376749205
btd:_ArrayList_IndexOf_m2092981366
Gyj:__ZN15dense_hashtableINSt3__24pairIK10KeyWrapperINS1_IPKcS4_EEEiEES6_24NamespaceAndNamePairHashN14dense_hash_mapIS6_iS9_NS6_14EqualsComparerI26NamespaceAndNamePairEqualsEENS0_9allocatorIS8_EEE9SelectKeyESD_SF_E12resize_deltaEjj
z0b:__Z14RandomRotationP9Texture2DPhiiii
ZXd:_OptionDataList__ctor_m613113846
Awe:_List_1_System_Collections_IList_Insert_m2036969360_gshared
b3d:_InputField_GetUnclampedCharacterLineFromPosition_m1912794077
KGd:_DateTimeOffset_ToString_m2121173678_AdjustorThunk
lj:_JS_WebRequest_SetResponseHandler
m0j:_glDeleteProgram__wrapper
ybc:__Z50Register_UnityEngine_Camera_INTERNAL_get_pixelRectv
Wpi:_AnimationOffsetPlayable_set_position_m3583285645
hka:__ZN6prcoreL18BlitFloatToIntegerERK14ImageReferenceRS0_
ajf:_X509CertificateCollection_get_Item_m410866272
bRg:_Rect_get_yMax_m2915146103
QS:__ZN11UnityEngine15CloudWebService14RestDownloader17OnCompleteContentEv
V$d:_LayoutGroup_SetChildAlongAxis_m1615929339
Ra:invoke_viffi
Is:__ZN11UnityEngine9Animation40SetFlattenedSkeletonTransformsMainThreadER9TransformRKNS0_21AvatarBindingConstantEb
q$:__ZNSt3__26vectorI20ProcessCallbackGroupNS_9allocatorIS1_EEEC2ERKS4_
mA:__ZN17AnimationPlayable28UpdateInternalStateRecursiveILi1ELb0EEEvPK35AnimationPlayableEvaluationConstant
Ua:invoke_vifff
iec:__Z53Register_UnityEngine_Input_INTERNAL_get_mousePositionv
Ve:_emscripten_request_fullscreen
aX:__ZN20LocalFileSystemWebGL6DeleteER13FileEntryDatab
OHd:_Decimal_System_IConvertible_ToUInt16_m1621568250
Xe:_emscripten_glDisableVertexAttribArray
Zm:FUNCTION_TABLE_iiiifiiii
d7g:_TimeSpan_get_TotalMinutes_m1645177229_AdjustorThunk
qc:invoke_fifffi
oAa:__ZN4gles23ClearCurrentFramebufferEP7ApiGLESbbbRK10ColorRGBAffi
fz:__ZN7mecanim12statemachine20CreateStateWorkspaceEjjjRNS_6memory9AllocatorE
p0c:__Z64Register_UnityEngine_CanvasRenderer_SplitIndiciesStreamsInternalv
gf:_emscripten_glDeleteObjectARB
bg:_IMG_Load
B5e:_UnexceptionalStreamReader_Read_m3839775235
zhc:__Z53Register_UnityEngine_RenderTexture_Internal_GetHeightv
ila:__ZN6prcoreL17RemapGenericFloatI17TexFormatRGBAHalf18TexFormatARGBFloatEEvPKNS_9InnerInfoE
VKd:_Enum_System_IConvertible_ToInt32_m2459904362
Kkc:__ZNK8GUIStyle21DrawWithTextSelectionER8GUIStateRK5RectTIfER10GUIContentbbbbbiiRK10ColorRGBAfSA_
Ykc:__Z14GetBuiltinSkini
Gof:_ContentInfo__ctor_m3871771681
tOd:_BaseInput_set_compositionCursorPos_m2632248731
d_i:_Enumerator_System_Collections_IEnumerator_Reset_m2573763156_gshared
f0e:_DirectoryInfo_Initialize_m2216118894
ffd:_WindowsIdentity_Dispose_m2649088337
bXb:__ZN2UI13RectTransform23VirtualRedirectTransferER14SafeBinaryRead
$Si:_InvokableCall_1__ctor_m54675381_gshared
S7e:_MonoType_GetMethodImpl_m593754598
PO:__ZZL31InitializeAudioManagerCallbacksvEN33FixedUpdateAudioFixedUpdatestruct7ForwardEv
ITb:__ZNSt3__26vectorIN9ShaderLab20SerializedSubProgramENS_9allocatorIS2_EEE6assignIPS2_EENS_9enable_ifIXaasr21__is_forward_iteratorIT_EE5valuesr16is_constructibleIS2_NS_15iterator_traitsIS9_E9referenceEEE5valueEvE4typeES9_S9_
psc:__Z18Transfer_BlittableI8JSONReadLb0E8BitFieldEvRK29SerializationCommandArgumentsR31RuntimeSerializationCommandInfo
gvg:_SoapServices_RegisterInteropXmlType_m2949236705
v7a:__ZN17PersistentManagerC2Eii
LNb:__ZL17Transfer_GUIStyleI18StreamedBinaryReadILb1EELb0EEvRK29SerializationCommandArgumentsR31RuntimeSerializationCommandInfo
Bjd:_String_CharCopy_m2550399897
VYb:__ZN11TypeManager20RegisterNonClassTypeEiP4RTTIPKcS3_
XRb:__ZN9ShaderLab14SerializedPass8TransferI14SafeBinaryReadEEvRT_
Qlc:__Z71Register_UnityEngine_GUILayoutUtility_INTERNAL_CALL_Internal_MoveWindowv
IO:__ZN12AudioManager16SetListenerPauseEb
PBc:__ZNSt3__26__sortIRN10ClipperLib12LocMinSorterEPNS1_12LocalMinimumEEEvT0_S6_T_
Msj:__ZN6il2cpp2vm9Exception25RaiseOutOfMemoryExceptionERKNS_5utils10StringViewIDsEE
zDe:_Collection_1_IsValidItem_m2254106115_gshared
mGg:_TypeBuilder_GetEvent_m3876348075
Exh:_Slider_OnMove_m641164662
ea:invoke_viiiiiiiiiii
VNj:___syscall_ret
l6g:_Scheduler__ctor_m3716265742
egf:_MACAlgorithm_Final_m4076939925
zYb:__ZN14qsort_internal30FindAndMovePivotToLastPositionIP8Vector2fi26PointDistanceSortPredicateEEvT_S4_T0_T1_
O2c:__Z56Register_UnityEngine_Analytics_CustomEventData_AddDoublev
tsb:__ZN11ChannelInfo8TransferI19StreamedBinaryWriteILb0EEEEvRT_
TBh:_InternalEnumerator_1_System_Collections_IEnumerator_get_Current_m3583252352_gshared
HBb:__ZN23ArchiveStorageConverter24ReadHeaderFromMemoryFileEv
PFg:_EnumBuilder_get_FullName_m2818393911
kVa:__ZN14qsort_internal13Partition3WayIP17RODataReplacementi19ROSorterReplacementEENSt3__24pairIT_S6_EES6_S6_T0_T1_
ydc:__Z34Register_UnityEngine_Gradient_Initv
WOd:_BaseInputModule_GetAxisEventData_m3903709281
mke:_Array_InternalArray__get_Item_TisUriScheme_t1876590943_m1821482697_gshared
lhe:_Array_Sort_TisIl2CppObject_m1954851512_gshared
Kkf:_BigInteger__ctor_m3239748086
xW:__ZN13ScreenManager23SetIsOrientationEnabledE18EnabledOrientationb
Ou:__ZN7mecanim5human25HumanPoseAddOverrideLayerERNS0_9HumanPoseERKS1_fRKNS_6bitsetILj70EEE
O_b:__ZN13ProduceHelperI9TransformLb0EE7ProduceE18MemLabelIdentifier18ObjectCreationMode
Hnc:__Z45Register_UnityEngine_GUIStyle_GetFontInternalv
pmi:_Component_SendMessageUpwards_m19741277
Rce:_Array_InternalArray__ICollection_Add_TisHitInfo_t1761367055_m2956071622_gshared
_4a:__ZN10GameObject23VirtualRedirectTransferER18StreamedBinaryReadILb0EE
xg:_glFrontFace
bxg:_ObjectRecord_get_IsUnsolvedObjectReference_m2202692850
UGf:_FactoryCache_Cleanup_m4130035987
WC:__ZN26AnimatorControllerPlayable14SetLayerWeightEif
QZb:__ZN13ProduceHelperI19LowerResBlitTextureLb0EE7ProduceE18MemLabelIdentifier18ObjectCreationMode
y_a:__ZNSt3__26vectorI16ShadowCasterData13stl_allocatorIS1_L18MemLabelIdentifier2ELi16EEE21__push_back_slow_pathIKS1_EEvRT_
gdj:__ZN6il2cpp6icalls8mscorlib6SystemL16GetFieldFromTypeINS_5utils10functional6FilterINSt3__212basic_stringIcNS7_11char_traitsIcEENS7_9allocatorIcEEEENS4_11StringUtils23CaseInsensitiveComparerEEEEEP21Il2CppReflectionFieldP11Il2CppClassSK_iRKT_
PTi:_UnityAction_1_Invoke_m1279802577_gshared
nbh:_UInt32_ToString_m1783596809
rNi:_Vector3_get_forward_m1201659139
RXc:__Z51Register_UnityEngine_TextGenerator_GetLinesInternalv
y_i:_HashSet_1_Init_m1258286688_gshared
cjf:_X509CertificateEnumerator_System_Collections_IEnumerator_get_Current_m1643583406
oJi:_X509ExtensionCollection_get_Item_m4212651995
jMe:_ReadOnlyCollection_1_System_Collections_IList_RemoveAt_m525136953_gshared
vli:_Collision2D_get_gameObject_m4234358314
zka:__ZN6prcoreL17RemapGenericFloatI17TexFormatRGBFloat18TexFormatRGBAFloatEEvPKNS_9InnerInfoE
sbh:_UInt64_System_IConvertible_ToBoolean_m3012279573_AdjustorThunk
g9g:_Type_get_IsGenericTypeDefinition_m2147901038
pLa:__ZN12HandlerChain10ToAbsoluteEPKc
rTe:_GregorianCalendar__ctor_m3794576475
ibh:_UInt32_TryParse_m4283512434
TG:__ZN9AudioClip11CreateSoundEv
Heh:_ShimEnumerator_MoveNext_m3313047792_gshared
lEe:_Collection_1_ConvertItem_m2185647560_gshared
K7g:_TimeSpan_op_Inequality_m257547441
X4g:_ExecutionContext_GetObjectData_m1456913356
Roj:__ZN14dense_hash_mapI10KeyWrapperINSt3__24pairIPK9FieldInfoP11Il2CppClassEEEj17ReflectionMapHashIS8_ENS9_14EqualsComparerINS1_8equal_toIS8_EEEENS1_9allocatorINS2_IKS9_jEEEEEC2EjRKSB_RKSF_
fZg:_Object_set_hideFlags_m2204253440
rkj:__ZNK15dense_hashtableINSt3__24pairIK10KeyWrapperINS1_IPK10MethodInfoP11Il2CppClassEEEjEES9_17ReflectionMapHashIS8_EN14dense_hash_mapIS9_jSD_NS9_14EqualsComparerINS0_8equal_toIS8_EEEENS0_9allocatorISB_EEE9SelectKeyESI_SK_E13find_positionERSA_
rLb:__Z18Transfer_BlittableI19StreamedBinaryWriteILb0EELb0E8Vector2fEvRK29SerializationCommandArgumentsR31RuntimeSerializationCommandInfo
kVe:_DateTimeFormatInfo_get_RoundtripPattern_m562440017
s6c:__ZN11UnityEngine7Connect16PersistentValues13RestoreValuesER8JSONRead
XMa:__ZN20ArchiveStorageReader31TryToReadDirectoryFromBlockDataEyPKvj
UJd:_Double_System_IConvertible_ToByte_m3004284950_AdjustorThunk
zvj:__ZN6il2cpp2vmL11GetIdentityEP14Il2CppIUnknown
Fff:_SmallXmlParser_ReadCDATASection_m2558307107
AHj:_GC_push_gc_structures
Rzf:_ServicePointManager_get_ServerCertificateValidationCallback_m1409951209
eej:__ZN6il2cpp6icalls8mscorlib6SystemL8IsPublicEPK9EventInfo
Vyd:_Enumerator_get_Current_m1271212567
eFj:__ZThn4_N6il2cpp2vm13ComObjectBase18ReleaseMarshalDataEP13Il2CppIStream
oWg:_Input_set_compositionCursorPos_m1615567306
FAf:_IPAddress_ParseIPV6_m2209709575
iuh:_U3CClickRepeatU3Ec__Iterator0_MoveNext_m1747924386
BSe:_Comparison_1_Invoke_m1670081898_gshared
Zyh:_Toggle_set_group_m3833595685
t5d:_LayoutRebuilder_ForceRebuildLayoutImmediate_m566681977
Yce:_Array_InternalArray__ICollection_Add_TisVector4_t2243707581_m698578249_gshared
N0:__ZN8keywords6CreateEPKc
yQh:__Z89RuntimeInvoker_Il2CppObject_Il2CppObject_Int32_t2071877448_Int32_t2071877448_Il2CppObjectPK10MethodInfoPvPS2_
PKb:__ZN24GenerateTypeTreeTransfer8TransferINSt3__26vectorI17AnimationCurveTplIfE13stl_allocatorIS4_L18MemLabelIdentifier1ELi16EEEEEEvRT_PKc17TransferMetaFlags
S:Math_imul
zTg:_GUIStyle_set_active_m2896743432
Rwb:__ZN14SpriteRenderer15SetupPropertiesEv
wrb:__ZN11PlayerPrefs6GetIntERKN4core12basic_stringIcNS0_20StringStorageDefaultIcEEEEi
zXc:__Z45TextGenerator_CUSTOM_INTERNAL_get_rectExtentsP12Il2CppObjectP5RectTIfE
$si:_PlayableHandle_Equals_m1435096530
d8d:_SetPropertyUtility_SetStruct_TisChar_t3454481338_m2333420724_gshared
CDe:_Collection_1_IsSynchronized_m2601980439_gshared
oxd:_Hashtable_ContainsKey_m2716576664
jBi:_PatternCompiler_EmitCategory_m1696942454
ZHd:_Decimal_decimalFloorAndTrunc_m3655683429
pde:_Array_InternalArray__ICollection_CopyTo_TisInt32_t2071877448_m984622488_gshared
j_:__ZN18ScriptingArguments9AddObjectE18ScriptingObjectPtr
z$c:__Z39CanvasGroup_Get_Custom_PropInteractableP12Il2CppObject
BQ:__ZN11UnityEngine15CloudWebService16SessionContainerD2Ev
iYj:_emscripten_glStencilOpSeparate__wrapper
lUc:_cf2_getLanguageGroup
BAa:__ZN17GenericDynamicVBOC2ER9GfxDevice13GfxBufferModejj
xxi:_Context_get_HasDynamicSinks_m1998518649
eFc:__Z28GetPhysics2DScriptingClassesv
B9i:__ZN15dense_hashtableINSt3__24pairIK10KeyWrapperIPKcEP11Il2CppClassEES5_N6il2cpp5utils11StringUtils12StringHasherIS4_EEN14dense_hash_mapIS5_S8_SE_NS5_14EqualsComparerINSC_21CaseSensitiveComparerEEENS0_9allocatorIS9_EEE9SelectKeyESI_SK_E6insertERKS9_
UR:__ZN11UnityEngine15CloudWebService17SessionEventQueue10PurgeItemsEj
z3a:__ZN6Camera16StandaloneRenderENS_10RenderFlagEP6ShaderRKN4core12basic_stringIcNS3_20StringStorageDefaultIcEEEE
Yld:_Array_System_Collections_IList_get_Item_m2088124007
qmd:_Array_GetLength_m2083296647
Zud:_SynchronizedArrayListWrapper_ToArray_m1522185111
kNb:__Z18Transfer_BlittableI18StreamedBinaryReadILb1EELb1EtEvRK29SerializationCommandArgumentsR31RuntimeSerializationCommandInfo
lWi:_GarbageScoring_RestoreCollider_m2249235179
yva:__ZN9GfxDevice20DeallocRenderSurfaceEP17RenderSurfaceBase
gdh:_ValueType_ToString_m3796301715
Ewj:__ZNK15dense_hashtableI10KeyWrapperIP18Il2CppGenericClassES3_N6il2cpp8metadata22Il2CppGenericClassHashEN14dense_hash_setIS3_S6_NS3_14EqualsComparerINS5_25Il2CppGenericClassCompareEEENSt3__29allocatorIS3_EEE8IdentityESA_SD_E12test_deletedEj
Bec:__Z53Register_UnityEngine_Quaternion_INTERNAL_CALL_Inversev
dQg:_GUILayoutGroup__ctor_m992523271
fib:__ZN12BaseRenderer23RendererBecameInvisibleEv
DJc:__ZN20TextRenderingPrivate8FontImpl13CharacterInfo8TransferI18StreamedBinaryReadILb0EEEEvRT_
eLb:__Z29Transfer_Blittable_ArrayFieldI24GenerateTypeTreeTransferfEvRT_R9ArrayInfoRK23StaticTransferFieldInfo
DYh:__Z51RuntimeInvoker_Single_t2076509932_Int16_t4041245914PK10MethodInfoPvPS2_
r6a:__ZN19CustomRenderTexture9AddParentE4PPtrIS_E
Kqb:__ZN8Gradient8TransferI14SafeBinaryReadEEvRT_
nVi:_UnityEvent_1_Invoke_m1533100983_gshared
yha:__ZNSt3__26vectorIN4core12basic_stringIcNS1_20StringStorageDefaultIcEEEE13stl_allocatorIS5_L18MemLabelIdentifier1ELi16EEE7reserveEj
Vzf:_FileWebRequest__ctor_m4003648606
Nog:__ZL71SpriteState_t1353336012_CustomAttributesCacheGenerator_m_DisabledSpriteP21CustomAttributesCache
XKd:_Enum_System_IConvertible_ToSByte_m3488526280
VYg:_MonoBehaviour_StopAllCoroutines_m1675795839
VW:__ZNK20LocalFileSystemPosix9IsSymLinkERK13FileEntryData
uGj:_GC_new_free_list_inner
ilh:_DefaultComparer_Equals_m85211180_gshared
K7e:_MonoType_InternalGetEvent_m532443236
iGe:_Collection_1_IndexOf_m2700825189_gshared
$sc:__ZN8JSONRead8TransferI10RectOffsetEEvRT_PKc17TransferMetaFlagsb
CR:__ZN9JSONWrite8TransferIN11UnityEngine15CloudWebService14DataErrorEvent15FileErrorDetailEEEvRT_PKc17TransferMetaFlags
fkd:_Decoder__ctor_m2623573910
dNe:_ReadOnlyCollection_1_System_Collections_Generic_IListU3CTU3E_RemoveAt_m1731148677_gshared
PJ:__ZN12SoundManager20RegisterModifiedClipEP10SampleClip
hSh:__Z108RuntimeInvoker_Void_t1841601450_Il2CppObject_Int64_t909078037_Il2CppObject_Int64_t909078037_Int64_t909078037PK10MethodInfoPvPS2_
nM:__ZN11AudioSource4PlayEd
Kzj:__ZN6il2cpp2vm6Object16GetVirtualMethodEP12Il2CppObjectPK10MethodInfo
qy:__ZN22AnimationMixerPlayable11DerivesFromE17ScriptingClassPtr
e7i:__ZN15dense_hashtableI10KeyWrapperIPK17Il2CppGenericInstES4_N6il2cpp8metadata21Il2CppGenericInstHashEN14dense_hash_setIS4_S7_NS4_14EqualsComparerINS6_24Il2CppGenericInstCompareEEENSt3__29allocatorIS4_EEE8IdentityESB_SE_E13set_empty_keyERKS4_
Znh:_EqualityComparer_1_System_Collections_IEqualityComparer_Equals_m3589836321_gshared
Rff:_SmallXmlParser_IsNameChar_m1561000202
gIi:_X501__cctor_m2610532554
Ndh:_Enumerator_VerifyState_m3173176371_gshared
Wye:_List_1_CheckCollection_m2220107869_gshared
snb:__ZN7Cubemap23VirtualRedirectTransferER18StreamedBinaryReadILb0EE
rrf:_RecordProtocol_EncodeRecord_m3884270352
xbd:_SHA256_Create_m896954069
UVc:_Read_CVT
aEd:_Convert_ToUInt32_m776714429
RJa:__ZN12FileAccessor4SeekEx10FileOrigin
eKb:__ZL26Transfer_SimpleNativeClassI24GenerateTypeTreeTransfer17AnimationCurveTplIfELb0EEvRK29SerializationCommandArgumentsR31RuntimeSerializationCommandInfo
C8i:__ZN15dense_hashtableINSt3__24pairIK10KeyWrapperI13dynamic_arrayIPK10Il2CppTypeLj4EEEPFvvEEES8_N6il2cpp8metadata19Il2CppSignatureHashEN14dense_hash_mapIS8_SB_SF_NS8_14EqualsComparerINSE_22Il2CppSignatureCompareEEENS0_9allocatorISC_EEE9SelectKeyESJ_SL_E4swapERSO_
G7:__ZN16LightmapSettings20DidChangeActiveSceneEP10UnitySceneS1_
gDg:_Default_ReorderParameters_m1877749093
_qg:__ZL59g_AssemblyU2DCSharp_Assembly_CustomAttributesCacheGeneratorP21CustomAttributesCache
Kkb:__ZNK17InstancedPropInfo15RenderInstancesERK15RenderNodeQueuePK17BatchInstanceDataj17ShaderChannelMask
qcj:__ZN6il2cpp5utils9PathUtils8BasenameIcEENSt3__212basic_stringIT_NS3_11char_traitsIS5_EENS3_9allocatorIS5_EEEERKSA_
gL:__ZN10AudioMixer11SetupGroupsEv
Clc:__Z35Register_UnityEngine_Event_get_typev
Egf:_PrivateKeyInfo_DecodeRSA_m1427048948
Ysj:__ZN6il2cpp2vm9Exception23GetInvalidCastExceptionERKNS_5utils10StringViewIDsEE
kCg:_Assembly_FillName_m1934025015
vPa:_UNITY_png_free
kWj:_emscripten_glDepthRange__wrapper
did:_String_IndexOf_m2126171214
H_e:_Int64_ToString_m1544341651_AdjustorThunk
lA:__ZN8Animator28BuildControllerPlayableCacheEv
GWe:_Guid_CheckNull_m2903986431
Sii:_Bounds__ctor_m1202659404
_1:__Z63ThreadAndSerializationSafeCheckGetMonoBehaviourBeingTransferredv
eJj:_GC_enable
mtf:_TlsClientCertificateVerify_ProcessAsSsl3_m3377063356
zSh:__Z97RuntimeInvoker_Il2CppObject_Il2CppObject_Int32_t2071877448_Il2CppObject_Il2CppObject_Il2CppObjectPK10MethodInfoPvPS2_
OSd:_StandaloneInputModule_set_repeatDelay_m2820945738
sah:_UInt16_ToString_m4213290405
dec:__Z37Register_UnityEngine_Input_GetAxisRawv
Tvi:_ChannelServices_RegisterChannel_m3832858065
cLd:_Enum_GetName_m1226611481
nTe:_Func_2_Invoke_m4121137703_gshared
aM:__ZN11AudioSource5ResetEv
Hsb:__ZN14Texture2DArray23VirtualRedirectTransferER18StreamedBinaryReadILb0EE
ODi:_Literal_CompileLiteral_m276843152
UWb:__ZN2UI13RectTransform13AwakeFromLoadE17AwakeFromLoadMode
WZa:__ZN14qsort_internal30FindAndMovePivotToLastPositionIP20ShadowCasterSortDatai26ShadowCasterSortDataSorterEEvT_S4_T0_T1_
$Eb:__Z18Transfer_BlittableI14SafeBinaryReadLb1EiEvRK29SerializationCommandArgumentsR31RuntimeSerializationCommandInfo
mra:__ZN17PersistentManager13GetAllFileIDsERKN4core12basic_stringIcNS0_20StringStorageDefaultIcEEEER13dynamic_arrayIxLj8EE
OXh:__Z72RuntimeInvoker_Il2CppObject_IntPtr_t_Int32_t2071877448_Int32_t2071877448PK10MethodInfoPvPS2_
qnd:_Array_LastIndexOf_m4096535198
_sd:_ArrayList_Add_m1719188324
iKd:_Double_System_IConvertible_ToSByte_m1653690240_AdjustorThunk
Fk:_glGetStringi
ixg:_ObjectManager_AddFixup_m4148241867
NNd:_CultureInfo_set_NumberFormat_m1618950525
ctb:__ZN18StreamedBinaryReadILb0EE21TransferSTLStyleArrayI13dynamic_arrayI8Vector4fLj4EEEEvRT_17TransferMetaFlags
CEf:_X509Store__ctor_m1573680316
REf:_X509Chain_get_CertificateCollection_m324631835
poh:_EqualityComparer_1__cctor_m1011898363_gshared
MTd:_AnimationTriggers__ctor_m2623627182
Mae:_Array_InternalArray__IndexOf_TisClientCertificateType_t4001384466_m1168139450_gshared
STa:__ZN9Coroutine16SetCurrentMethodE18ScriptingMethodPtr
As:__ZN8Animator9WriteStepEv
yrb:__ZNSt3__23mapIN4core12basic_stringIcNS1_20StringStorageDefaultIcEEEE9PrefValueNS_4lessIS5_EENS_9allocatorINS_4pairIKS5_S6_EEEEEixERSB_
gjc:__ZN15DirectorManager22ConstructPlayableGraphEv
ucd:_SymmetricAlgorithm_set_IV_m4262655606
Zxh:_StencilMaterial__cctor_m2963056855
TDg:_CustomAttributeNamedArgument_GetHashCode_m3715408876_AdjustorThunk
GXc:__Z38Register_UnityEngine_Font_HasCharacterv
WDf:_X509Certificate2_AppendBuffer_m3517242299
T1a:__Z35IntersectSpherePlaneBoundsOptimizedRKN4math7_float4EPS1_i
JNd:_CultureInfo_get_IsNeutralCulture_m3874876470
NId:_Delegate_CreateDelegate_m3813023227
ZFi:_Uri_get_AbsoluteUri_m2120317928
pAj:__ZN6il2cpp2os5posix15PosixWaitObject13InterruptWaitEv
OWd:_ColorTween_TweenValue_m3279916815
j7:__Z22CleanupLODGroupManagerPv
Sce:_Array_InternalArray__ICollection_Add_TisContentType_t1028629049_m2984242302_gshared
ylc:__Z21Event_CUSTOM_PopEventP12Il2CppObject
Lwj:__ZN6il2cpp8metadata15GenericMetadata20RegisterGenericClassEP18Il2CppGenericClass
nl:_glUniform3fv
tzb:__ZNSt3__218__insertion_sort_3IRN15ResourceManager10Dependency6SorterEPS2_EEvT0_S6_T_
yoe:_Enumerator_System_Collections_IEnumerator_Reset_m3796537546_AdjustorThunk
dXc:_UNITY_FT_Init_Class_tt_service_gx_multi_masters
t7e:_IntComparer_Compare_m3057931085
DYa:__ZNK16LightmapSettings31GetRealtimeLightmapDecodeValuesEv
DL:__ZN5audio5mixer12SetSuspendedERNS0_16AudioMixerMemoryEb
cna:__ZN17PersistentManager21UnloadNonDirtyStreamsEv
Otj:__ZN6il2cpp2vm13LivenessStateC2EP11Il2CppClassjPFvPP12Il2CppObjectiPvES7_PFvvESB_
fSa:__ZN12ImageFilters4BlitER17ShaderPassContextP7TextureP13RenderTextureiPK18SharedMaterialDataPKcP6ShaderiNS_9BlitFlagsE11CubemapFaceRK8Vector2fSH_
kCf:_Oid__ctor_m1936781897
yZg:_Object_INTERNAL_CALL_Internal_InstantiateSingleWithParent_m1401308849
Gti:_ResourceSet__ctor_m1222864106
LBe:_Collection_1_System_Collections_IList_get_Item_m3376056117_gshared
Kl:_emscripten_glDepthMask
xoe:_Enumerator_VerifyState_m3639069574_gshared
GBa:__ZN4crnd25static_huffman_data_model22prepare_decoder_tablesEv
jBe:_Enumerator_MoveNext_m689054299_gshared
ehe:_Array_Sort_TisIl2CppObject_TisIl2CppObject_m1915706600_gshared
olf:_ModulusRing_Difference_m662924064
qVd:_CanvasUpdateRegistry_ObjectValidForUpdate_m855695984
e2d:_InputField_set_onValueChanged_m2406388125
iZ:__ZL22CleanupUnityWebStreamsPv
HAi:_Regex_get_RightToLeft_m529734879
qPb:__Z18Transfer_BlittableI18StreamedBinaryReadILb0EELb0E10ColorRGBAfEvRK29SerializationCommandArgumentsR31RuntimeSerializationCommandInfo
Myf:_ListDictionary_Add_m4276262662
L7:__Znaj
U9c:_RIPEMD160Managed_GGG_m1639995340
M0j:_emscripten_glEnableClientState__wrapper
vZ:__ZN17MessageIdentifierC2EPKcNS_7OptionsEPKN5Unity4TypeES1_
AE:__Z76AnimatorControllerPlayable_CUSTOM_INTERNAL_CALL_CrossFadeInFixedTimeInternalR9HPlayableifif
cgh:_Enumerator_System_Collections_IEnumerator_get_Current_m1648049763_gshared
PLj:__ZN6il2cpp6icalls8mscorlib4Mono8Security12Cryptography18KeyPairPersistence15_ProtectMachineEP12Il2CppString
Z7d:_Enumerable_Any_TisIl2CppObject_m2208185096_gshared
jmd:_Array_System_Collections_IList_Remove_m2438892375
m4e:_TextWriter__ctor_m2225796097
adb:__ZN14SafeBinaryRead8TransferI14ConstantStringEEvRT_PKc17TransferMetaFlags
$Ji:_ScriptableObject_Internal_CreateScriptableObject_m1778903390
Fea:__ZNK6Camera16GetStereoEnabledEv
$0b:__ZN12LightManager15InitializeClassEv
Ffa:__ZN9ShaderLab11shaderprops16GetComputeBufferEPK19ShaderPropertySheetS3_NS_16FastPropertyNameE
E3:__ZN23ManagedAttributeManager35CallManagedGetDefaultExecutionOrderE17ScriptingClassPtr
c9b:__ZN18ScriptingArgumentsC2Ev
S7g:_TimeZone_IsDaylightSavingTime_m875882154
gYj:_emscripten_glBlendFuncSeparate__wrapper
dqf:_CipherSuiteCollection_System_Collections_IList_set_Item_m750275607
zTa:__ZNK25CameraStackRenderingState27GetStereoImageEffectTextureEb
cbd:_SHA1CryptoServiceProvider__ctor_m3127563759
Vp:__ZN8Vector3f8TransferI14SafeBinaryReadEEvRT_
Cqg:__ZL103BaseVertexEffect_t2504093552_CustomAttributesCacheGenerator_BaseVertexEffect_ModifyVertices_m3446986347P21CustomAttributesCache
Do:FUNCTION_TABLE_ii
Rgh:_Enumerator_MoveNext_m335649778_AdjustorThunk
oT:__ZNSt3__26__treeINS_12__value_typeIN4core12basic_stringIcNS2_20StringStorageDefaultIcEEEES6_EENS_19__map_value_compareIS6_S7_NS_4lessIS6_EELb1EEENS_9allocatorIS7_EEE16__construct_nodeERKNS_4pairIKS6_S6_EE
aqc:__Z18Transfer_BlittableI9JSONWriteLb0E8BitFieldEvRK29SerializationCommandArgumentsR31RuntimeSerializationCommandInfo
mbh:_UInt32_ToString_m3894907091_AdjustorThunk
BWj:b44
DNd:_CultureInfo_get_TextInfo_m1582311326
$Ug:_GUIStyle_get_contentOffset_m1904924583
Qeh:_ShimEnumerator_get_Key_m616785465_gshared
vff:_SmallXmlParser_Error_m1832158746
Ek:_glDeleteVertexArrays
r9a:__Z24CreateDirectoryRecursiveRKN4core12basic_stringIcNS_20StringStorageDefaultIcEEEE
yWj:b41
DUb:__ZN9ShaderLab20SerializedSubProgram8TransferI18StreamedBinaryReadILb0EEEEvRT_
O3e:_StreamAsyncResult_get_AsyncWaitHandle_m4218169359
Njc:__Z22MonoGUIContentToNative18ScriptingObjectPtrR10GUIContent
pke:_Array_InternalArray__get_Item_TisContactPoint2D_t3659330976_m825151777_gshared
iYc:__ZN2UI13CanvasManager9AddCanvasEPNS_6CanvasE
$pa:__ZN9Texture3D8TransferI19StreamedBinaryWriteILb0EEEEvRT_
NUa:__ZNK6Camera22CalculateRenderingPathEv
qrc:__ZN9JSONWrite8TransferI5RectTIfEEEvRT_PKc17TransferMetaFlags
lu:__ZN11UnityEngine9Animation37SetGenericRootTransformPropertyValuesERKNS0_30AnimatorGenericBindingConstantERKN7mecanim10ValueArrayER9Transformbb
Hri:_AnimatorControllerPlayable_INTERNAL_CALL_GetCurrentAnimatorClipInfoInternal_m3542665271
_Ib:__ZL12InvokeMethodI17RemapPPtrTransferEvRK29SerializationCommandArgumentsR31RuntimeSerializationCommandInfo
Tif:_X509Certificate_get_PublicKey_m714501701
wPc:_tt_sbit_decoder_load_image
sid:_String_LastIndexOf_m290475879
dkc:__ZNSt3__24listIN10GUIManager12SortedScriptE11memory_poolIS2_EE6__sortI13OldSortScriptEENS_15__list_iteratorIS2_PvEESA_SA_jRT_
wbh:_UInt64_System_IConvertible_ToChar_m1930853313_AdjustorThunk
htf:_TlsClientCertificate_SendCertificates_m1096074091
ayd:_SyncHashtable_get_Item_m408601391
iNe:_ReadOnlyCollection_1_System_Collections_IEnumerable_GetEnumerator_m1401363518_gshared
Gcb:__ZNK9Behaviour26GetTypeInfoVirtualInternalEv
pBe:_Stack_1_System_Collections_ICollection_CopyTo_m2104527616_gshared
G2g:_StringBuilder_AppendFormat_m1666670800
V_a:__ZN18DeferredRenderLoop13RenderGBufferEP13RenderTexturePS1_b8JobFencePK25DeferredRenderLoopScratchRi
Xrj:__ZN6il2cpp6icalls8mscorlib6System9ThreadingL11ThreadStartEPv
D$:__ZN15DirectorManager12OnSampleTimeEv
APe:_ReadOnlyCollection_1_System_Collections_IList_Remove_m3878418841_gshared
j2d:_InputField_EnforceContentType_m1902926812
kA:__ZN8Animator13ClearBindingsEv
cea:__ZN12CachedReader10Align4ReadEv
wDc:__ZN15b2WorldManifold10InitializeEPK10b2ManifoldRK11b2TransformfS5_f
u2h:__Z154RuntimeInvoker_RaycastHit2D_t4063908774_Vector2_t2243707579_Vector2_t2243707579_Single_t2076509932_Int32_t2071877448_Single_t2076509932_Single_t2076509932PK10MethodInfoPvPS2_
qtj:__ZN6il2cpp2vm9Exception28GetMarshalDirectiveExceptionEPKc
y8e:_MulticastDelegate_GetObjectData_m3187757658
iQe:_ReadOnlyCollection_1_System_Collections_IList_get_Item_m887129009_gshared
aWa:__Z21GetScriptingArraySize17ScriptingArrayPtr
WIc:__ZN20TextRenderingPrivate8FontImpl8TransferI14SafeBinaryReadEEvRT_
fia:__Z35UnityPropertySheet_MakeSortedColorsRKNSt3__23mapIN9ShaderLab16FastPropertyNameE10ColorRGBAfNS_4lessIS2_EENS_9allocatorINS_4pairIKS2_S3_EEEEEER10vector_mapIS2_S3_S5_NS6_INS7_IS2_S3_EEEEE
eUg:_GUIStyle_Draw_m4006459684
qwa:__ZN9GfxDevice17ImmediateTexCoordEifff
gCi:_Parser_ParseRegularExpression_m2390577313
sCc:__ZN10ClipperLib7Clipper13AppendPolygonEPNS_5TEdgeES2_
Pnd:_Array_double_swapper_m1175307080
rFf:_X509CertificateEnumerator_System_Collections_IEnumerator_Reset_m327358896
Ced:_Hash__ctor_m2554411450
qUe:_NumberFormatter_AppendDigits_m1308372770
jgd:_Single_System_IConvertible_ToDateTime_m2510003459_AdjustorThunk
eJd:_Delegate_RemoveImpl_m3666700529
aWj:_emscripten_glUniform4f__wrapper
ezf:_NameObjectCollectionBase_OnDeserialization_m3478980442
X1d:_InputField_set_caretColor_m2252440840
cB:__ZN8Animator8TransferI19StreamedBinaryWriteILb0EEEEvRT_
wXa:__ZNK6Camera16GetProjectionFarEv
I3a:__Z24InverseTransformRotationRK23TransformAccessReadOnlyRKN4math7_float4E
HWf:__ZL68SecurityCriticalAttribute_t2312050089_CustomAttributesCacheGeneratorP21CustomAttributesCache
w6e:_MissingFieldException__ctor_m1161042282
Yae:_Array_InternalArray__IndexOf_TisSlot_t2267560602_m1912863273_gshared
e7c:__Z31GetPerformanceReportingSettingsv
eqa:__ZN7Texture34CreateFileTextureUploadInstructionE18TextureUploadFlagsj
WRa:__ZN13ComputeShader14SetBufferParamEjRKN9ShaderLab16FastPropertyNameE15ComputeBufferID
nPe:_ReadOnlyCollection_1_System_Collections_Generic_IListU3CTU3E_Insert_m3054305464_gshared
VA:__ZN8Animator8TransferI14SafeBinaryReadEEvRT_
nbe:_Array_InternalArray__IndexOf_TisTypeTag_t141209596_m2882894956_gshared
jxh:_Slider_get_value_m4182660424
Pvc:__ZNK14b2CapsuleShape5CloneEP16b2BlockAllocator
ix:__ZN17AnimationPlayable34CollectAnimatorControllerPlayablesER13dynamic_arrayIP26AnimatorControllerPlayableLj4EE
oP:__ZN16BaseVideoTexture19UpdateVideoTexturesEv
Nkb:__Z28BuildSingleStreamChannelInfo17ShaderChannelMaskRK20VertexChannelsLayoutS_S2_P11ChannelInfo
t2h:__Z79RuntimeInvoker_RaycastHit2D_t4063908774_Vector2_t2243707579_Vector2_t2243707579PK10MethodInfoPvPS2_
Joa:__ZNK16LightmapSettings23HasLightProbeTetrahedraEv
usf:_Context_get_WriteSequenceNumber_m243492531
Grb:__ZN6Sprite23VirtualRedirectTransferER19StreamedBinaryWriteILb0EE
vQf:__ZL51Assembly_t4268412390_CustomAttributesCacheGeneratorP21CustomAttributesCache
kid:_String_LastIndexOfAny_m1473637802
Jhc:__Z38Transform_CUSTOM_INTERNAL_set_positionP12Il2CppObjectRK8Vector3f
VHc:__Z45Register_UnityEngine_Collider2D_get_isTriggerv
ujj:__ZNK15dense_hashtableINSt3__24pairIK10KeyWrapperINS1_IPK9FieldInfoP11Il2CppClassEEEjEES9_17ReflectionMapHashIS8_EN14dense_hash_mapIS9_jSD_NS9_14EqualsComparerINS0_8equal_toIS8_EEEENS0_9allocatorISB_EEE9SelectKeyESI_SK_E5beginEv
Xfa:__ZNK9ShaderLab7Program19HasMatchingVariantsERK13dynamic_arrayI16ShaderKeywordSetLj4EE
st:__ZN15SerializeTraitsIN4math4trsXEE8TransferI8BlobSizeEEvRS1_RT_
Fza:__ZN14DataBufferGLES11CopySubDataEPKS_jjj
ne:_emscripten_glVertexPointer
VIa:__ZNSt3__26__treeI20DeviceDepthStateGLES11memcmp_lessIS1_S1_ENS_9allocatorIS1_EEE7destroyEPNS_11__tree_nodeIS1_PvEE
YZc:__ZN2UI13PrepareOutputERNS_7BatchesEjjNS_30AdditionalCanvasShaderChannelsE
Dcj:__ZN6il2cpp2vm7Runtime47RaiseExecutionEngineExceptionIfMethodIsNotFoundEPK10MethodInfo
C_a:__Z17GetFrustumPortionPK8Vector3fffPS_
Xuj:__ZN15dense_hashtableINSt3__24pairIK10KeyWrapperIP14Il2CppIUnknownEjEES5_N6il2cpp5utils11PointerHashIS3_EEN14dense_hash_mapIS5_jSB_NS5_14EqualsComparerINS0_8equal_toIS4_EEEENS0_9allocatorIS7_EEE9SelectKeyESG_SI_E14squash_deletedEv
qF:__Z96Register_UnityEngine_Experimental_Director_AnimatorControllerPlayable_INTERNAL_CALL_PlayInternalv
LXd:_DefaultControls_CreateDropdown_m1384069408
GRd:_PointerEventData_get_clickCount_m4064532478
TLd:_EventArgs__cctor_m1350395667
xMd:_CCGregorianCalendar_is_leap_year_m567513478
ood:_Attribute_IsDefined_m2118467641
mSa:__ZN14GraphicsHelper8DrawQuadER9GfxDevice17ShaderChannelMaskbRK5RectTIfE
Dgf:_PrivateKeyInfo_Normalize_m3959595934
bCh:_InternalEnumerator_1_System_Collections_IEnumerator_get_Current_m3125080595_gshared
YHe:_Collection_1_System_Collections_IList_Add_m2091889616_gshared
D4b:__ZN16StreamedResource8TransferI24GenerateTypeTreeTransferEEvRT_
Dxc:__ZN11b2GearJoint4DumpEv
fZd:_DropdownItem_OnPointerEnter_m761897861
_Fa:__ZN10Matrix3x3f15InvertTransposeEv
d7d:_Array_InternalArray__ICollection_Remove_TisKeyValuePair_2_t1174980068_m2768765894_gshared
GFe:_Collection_1_set_Item_m2199807215_gshared
SHb:__Z29Transfer_Blittable_ArrayFieldI14SafeBinaryRead8Vector3fEvRT_R9ArrayInfoRK23StaticTransferFieldInfo
yah:_UInt32_System_IConvertible_ToBoolean_m91295134
d5g:_Monitor_Monitor_test_synchronised_m1542589500
Rgg:__ZL68RuntimePlatform_t1869584967_CustomAttributesCacheGenerator_WP8PlayerP21CustomAttributesCache
QJc:__ZN20TextRenderingPrivate8FontImpl18ResetCachedTextureEv
qhf:_SymmetricTransform_TransformFinalBlock_m4192185386
tWe:_TextInfo__ctor_m1263401274
RMi:_TouchScreenKeyboard_Open_m913506328
cHj:_GC_print_finalization_stats
uhh:_ValueCollection__ctor_m927733289_gshared
Yyc:__ZNK12b2WheelJoint10GetAnchorBEv
abc:__Z53Register_UnityEngine_Behaviour_get_isActiveAndEnabledv
NCb:__ZNK13MonoBehaviour26GetTypeInfoVirtualInternalEv
zq:__ZNSt3__26vectorIN4core12basic_stringIcNS1_20StringStorageDefaultIcEEEENS_9allocatorIS5_EEE8__appendEj
Qfj:_il2cpp_gc_collect
Syb:__ZN26PlayerSettingsSplashScreen8TransferI17RemapPPtrTransferEEvRT_
AJc:__ZN20TextRenderingPrivate8FontImpl8TransferI17RemapPPtrTransferEEvRT_
EFh:_InternalEnumerator_1_get_Current_m3922357178_gshared
odj:__ZN6il2cpp6icalls8mscorlib6SystemL17CollectTypeFieldsINS_5utils10functional10TrueFilterEEEvP11Il2CppClassPKS7_iRNSt3__26vectorIP9FieldInfoNSB_9allocatorISE_EEEERKT_
qlg:__ZL72ColorBlock_t2652774230_CustomAttributesCacheGenerator_m_HighlightedColorP21CustomAttributesCache
i8g:_Type_get_IsValueType_m1733572463
nYb:__Z13GetTagManagerv
EUh:__Z127RuntimeInvoker_Void_t1841601450_IntPtr_t_Int32_t2071877448_SByte_t454417549_Int32_t2071877448_SByte_t454417549_SByte_t454417549PK10MethodInfoPvPS2_
F7d:_Array_InternalArray__ICollection_Remove_TisUInt16_t986882611_m65494986_gshared
bOe:_ReadOnlyCollection_1_IndexOf_m3054637117_gshared
ku:__ZN11UnityEngine9Animation37HasGenericRootTransformPropertyValuesERKNS0_30AnimatorGenericBindingConstantEb
lQ:__ZN11UnityEngine15CloudWebService17CloudJobSchedulerD0Ev
fhd:_String_System_IConvertible_ToBoolean_m2696751322
lna:__ZN18LoadSceneOperation7PerformEv
BQg:_GUILayer_INTERNAL_CALL_HitTest_m693512502
nid:_String_LastIndexOfAny_m4281325295
qCc:__ZN10ClipperLib7Clipper14IntersectEdgesEPNS_5TEdgeES2_RNS_8IntPointE
XE:__Z113Register_UnityEngine_Experimental_Director_AnimatorControllerPlayable_INTERNAL_CALL_GetAnimatorControllerInternalv
xkc:__Z21CleanupGlobalGUIStatev
M6g:_TimeSpan__ctor_m1888018443_AdjustorThunk
Xxd:_SyncHashtable_get_Count_m3694444082
Ihj:__ZNSt3__26vectorINS_12basic_stringIcNS_11char_traitsIcEENS_9allocatorIcEEEENS4_IS6_EEE8allocateEj
tHa:__ZN22VertexDeclarationCache5ClearEv
F$j:_emscripten_glUniform2i__wrapper
p7a:__ZN17PersistentManager12SetPathRemapERKN4core12basic_stringIcNS0_20StringStorageDefaultIcEEEES6_
g0a:__ZN6Camera24PrepareCullingParametersERK23CameraCullingParameters13RenderingPathR11CullResults
xna:__ZN19RuntimeSceneManager22EndIntegrateMainThreadEP10UnitySceneNS_11LoadingModeE
aJb:__Z26Transfer_UnityEngineObjectI17RemapPPtrTransferLb0EEvRK29SerializationCommandArgumentsR31RuntimeSerializationCommandInfo
uid:_String_IsNullOrEmpty_m2802126737
$qd:_Byte_Parse_m1442736478
p_e:_Int64_Parse_m3258022240
eid:_String_IndexOfOrdinal_m3591623977
yMi:_Texture2D_get_whiteTexture_m1979591766
Xzg:_CryptoConfig_EncodeLongNumber_m2352037787
P8g:_Type_GetMethod_m475234662
pvi:_ActivationServices_get_ConstructionActivator_m1726426854
ZKb:__Z29Transfer_Blittable_ArrayFieldI24GenerateTypeTreeTransfer4AABBEvRT_R9ArrayInfoRK23StaticTransferFieldInfo
lYf:__ZL52Activator_t1850728717_CustomAttributesCacheGeneratorP21CustomAttributesCache
eIj:_GC_adj_bytes_allocd
Oce:_Array_InternalArray__ICollection_Add_TisKeyframe_t1449471340_m887263954_gshared
fOi:_UIVertex__cctor_m803910084
mee:_Array_InternalArray__Insert_TisDateTime_t693205669_m1484996356_gshared
Kte:_List_1_System_Collections_IList_Remove_m3933652540_gshared
$2e:_MonoIO_get_ConsoleInput_m2976499023
dJg:_OpCode_get_Size_m481593949_AdjustorThunk
rvd:_BitArrayEnumerator_checkVersion_m3839504595
Emd:_Array_GetUpperBound_m1352329707
gOa:__ZZ23InitPlayerLoopCallbacksvEN36UpdateScriptRunBehaviourUpdatestruct7ForwardEv
Rhd:_String_TrimEnd_m3153143011
BGd:_DateTimeOffset_Equals_m3728302791_AdjustorThunk
n_a:__ZN20SphericalHarmonicsL219AddDirectionalLightERKN4math7_float3ERKNS0_7_float4E
J7g:_TimeSpan_op_GreaterThanOrEqual_m3997050520
s$:__Z26ScheduleJobForEachInternalR8JobFencePFvPvjES1_iPFvS1_E11JobPriority
aDf:_OidEnumerator_MoveNext_m1889267785
B7b:__ZN9Scripting18RaiseMonoExceptionEPKcz
hob:__ZN9Texture2D8TransferI19StreamedBinaryWriteILb0EEEEvRT_
lSg:_GUISkin_set_box_m877476512
vYi:_TweenRunner_1_StartTween_m3792842064_gshared
y1b:__ZN9ShaderLab16FastPropertyName15InitBy28BitHashEj
rgd:_Single_System_IConvertible_ToInt32_m3269519527_AdjustorThunk
ibd:_SHA1Internal_ProcessBlock_m4070037334
OJj:__ZN6il2cpp6icalls8mscorlib6System10Reflection14MonoMethodInfo15get_method_infoE12Il2CppIntPtrP16Il2CppMethodInfo
pfe:_Array_InternalArray__set_Item_TisDouble_t4078015681_m24756265_gshared
xtg:_ObjRef_GetObjectData_m3081609242
y_b:__ZN13ProduceHelperIN2UI13RectTransformELb0EE7ProduceE18MemLabelIdentifier18ObjectCreationMode
Ltb:__ZN17PackedFloatVector12UnpackFloatsEPfiiii
qLe:_ReadOnlyCollection_1__ctor_m3671019970_gshared
Kv:__ZN17AnimationPlayable28UpdateInternalStateRecursiveILi3ELb0EEEvPK35AnimationPlayableEvaluationConstant
jxa:__ZN13GfxDeviceGLES21DestroyComputeProgramER12ObjectHandleI18ComputeProgram_TagPvE
HBd:_Convert_ToDecimal_m2007036836
m7:__ZN17UniqueIDGenerator16DestroyPureIndexEj
Q3:__ZL21AppendNestedClassName17ScriptingClassPtrRN4core17string_with_labelILi1EEE
xSb:__ZN14SafeBinaryRead21TransferSTLStyleArrayINSt3__26vectorIN9ShaderLab20SerializedSubProgram12UAVParameterENS1_9allocatorIS5_EEEEEEvRT_17TransferMetaFlags
wxi:_Context_NotifyDynamicSinks_m1367144344
uR:__ZN24TextDOMTransferWriteBaseI9JSONWriteE12PushMetaFlagEi
Xqf:_TlsClientCertificateVerify__ctor_m110646389
Cla:__ZN6prcoreL26RemapGenericIntegerToFloatI17TexFormatARGB888815TexFormatRFloatEEvPKNS_9InnerInfoE
Fxi:_Context_GetServerContextSinkChain_m390126977
vhj:__ZN6il2cpp2vm17TypeNameParseInfoD2Ev
khe:_Array_Sort_TisIl2CppObject_m143182644_gshared
H4e:_StringReader_Read_m513112775
Rpb:__ZNK8Renderer8GetLayerEv
Ljb:__ZN12FlareManager11DeleteFlareEi
JWa:__ZNK6Camera20GetReplacementShaderEv
JXj:_glProgramBinary__wrapper
lHd:_Decimal__ctor_m569480123_AdjustorThunk
GLa:__ZN12HandlerChain11MoveToTrashER13FileEntryData
nAf:_HttpWebRequest__cctor_m3013631978
kLj:__ZNSt3__26__treeINS_12__value_typeINS_12basic_stringIcNS_11char_traitsIcEENS_9allocatorIcEEEEPFvvEEENS_19__map_value_compareIS7_SA_NS_4lessIS7_EELb1EEENS5_ISA_EEE4findIS7_EENS_15__tree_iteratorISA_PNS_11__tree_nodeISA_PvEEiEERKT_
FSb:__ZNSt3__26vectorIN9ShaderLab20SerializedSubProgram14ConstantBufferENS_9allocatorIS3_EEE7reserveEj
rpa:__ZL23stbir__calculate_memoryP11stbir__info
R$h:__Z90RuntimeInvoker_Boolean_t3825574718_Int32_t2071877448_Int32U26_t455636984_Int32_t2071877448PK10MethodInfoPvPS2_
$th:_Scrollbar_FindSelectableOnRight_m3219495255
Tzb:__ZNK30RuntimeInitializeOnLoadManager26GetTypeInfoVirtualInternalEv
uuc:__ZNK9rapidjson12GenericValueINS_4UTF8IcEE13JSONAllocatorE6AcceptINS_12PrettyWriterI16TempBufferWriterS2_S2_S3_EEEEbRT_
Yde:_Array_InternalArray__ICollection_CopyTo_TisVector3_t2243707580_m509487340_gshared
loc:__Z59Register_UnityEngine_GUIUtility_Internal_GetKeyboardControlv
VE:__Z82AnimatorControllerPlayable_CUSTOM_INTERNAL_CALL_IsParameterControlledByCurveStringR9HPlayableP12Il2CppString
ysc:__ZL26Transfer_SimpleNativeClassI8JSONRead10RectOffsetLb1EEvRK29SerializationCommandArgumentsR31RuntimeSerializationCommandInfo
H$c:__Z44CanvasRenderer_CUSTOM_INTERNAL_CALL_SetColorP12Il2CppObjectRK10ColorRGBAf
U6b:__ZN12InputManager9GetAnyKeyEv
FGj:_GC_should_collect
Dvi:_UrlAttribute_Equals_m1587451932
Ppc:__Z18Transfer_BlittableI9JSONWriteLb1EsEvRK29SerializationCommandArgumentsR31RuntimeSerializationCommandInfo
iCc:__ZN10ClipperLib8JoinHorzEPNS_5OutPtES1_S1_S1_NS_8IntPointEb
R2c:__Z48UnityAnalyticsHandler_CUSTOM_SendCustomEventNameP12Il2CppObjectP12Il2CppString
ZAg:_DSAParameters_t1872138834_marshal_pinvoke_cleanup
T9b:__ZN9Transform16SetLocalRotationERK11Quaternionf
AAd:_DateTime_Parse_m1628430317
RQa:__ZN13RenderManager37RenderCamerasWithScriptableRenderLoopEi
Tdf:_ASN1_Element_m2600236165
MY:__GLOBAL__sub_I_runtime_graphics5_lump_cpp
A8:__ZN23InstancedPropInfoStaticL16RegisterCallbackEPv
Ct:__ZN7mecanim8skeleton25SkeletonPoseComputeLocalQEPKNS0_8SkeletonEPKNS0_13SkeletonPoseTIN4math4trsXEEEPS7_ii
Qxj:__ZN6il2cpp2os19ReleaseSocketHandleEj
wJg:_TypeBuilder_GetPropertyImpl_m1854119335
YEg:_TypeBuilder_get_next_table_index_m1415870184
wSj:___cxa_can_catch
$lf:_SequentialSearchPrimeGeneratorBase_GenerateNewPrime_m296245934
esd:_Char_GetUnicodeCategory_m4273361321
k6e:_Math_Round_m565516458
nxi:_Identity_get_ClientDynamicProperties_m767245959
iAj:__ZN6il2cpp2os5posix15PosixWaitObjectC2ENS2_4TypeE
uBb:__Z23AppendPathNameExtensionRKN4core12basic_stringIcNS_20StringStorageDefaultIcEEEES5_
nJg:_TypeBuilder_create_generic_class_m986834171
ZXj:_emscripten_glVertexPointer__wrapper
wsa:__ZN23ShaderVariantCollection13WarmupShadersEv
hsf:_Context_set_ProtocolNegotiated_m1177527245
Eri:_AnimatorControllerPlayable_INTERNAL_CALL_GetAnimatorTransitionInfoInternal_m2259454958
Cah:_UInt32_System_IConvertible_ToChar_m1056040486
x3:__Z25GetCommonScriptingClassesv
Qxf:_TlsStream_get_Length_m1562309511
Nna:__Z27scripting_gc_collect_unsafei
ZO:__ZN11AudioModule20SuspendVideoTexturesEv
W0b:__ZN12CubemapArrayC2E18MemLabelIdentifier18ObjectCreationMode
fAd:_Convert_ToByte_m395020137
wKb:__Z26Transfer_UnityEngineObjectI24GenerateTypeTreeTransferLb0EEvRK29SerializationCommandArgumentsR31RuntimeSerializationCommandInfo
qUc:_UNITY_FT_GlyphLoader_CheckPoints
u5e:_TextWriter_WriteLine_m1754475888
Hjb:__ZN15SharedLightData7PrecalcEv
woa:__ZN10Matrix4x4fmLERKS_
TSi:_InvokableCall_1_Invoke_m769918017_gshared
Rje:_Array_InternalArray__get_Item_TisDouble_t4078015681_m2215331088_gshared
xdb:__ZN19StreamedBinaryWriteILb0EE19TransferSTLStyleMapINSt3__28multimapIN4core12basic_stringIcNS4_20StringStorageDefaultIcEEEEN11AssetBundle9AssetInfoENS2_4lessIS8_EENS2_9allocatorINS2_4pairIKS8_SA_EEEEEEEEvRT_17TransferMetaFlags
rih:_Dictionary_2_Init_m3666073812_gshared
JMa:__ZN15ArchiveReadFileD0Ev
jhf:_SymmetricTransform_TransformBlock_m1524716432
v8:__ZN18ConcurrentFreeListI28FileTextureUploadInstructionE7CleanUpEv
U9d:_Array_compare_TisColor32_t874517518_m3842009370_gshared
m4c:__ZN11UnityEngine15PlatformWrapper18GetOperatingSystemEv
uQe:_ReadOnlyCollection_1_System_Collections_Generic_ICollectionU3CTU3E_Remove_m974176789_gshared
KId:_Delegate_return_type_match_m4278947849
L3d:_InputField_GenerateHightlight_m1346735465
yFi:_Uri_ParseNoExceptions_m1151989845
yzd:_GC_SuppressFinalize_m953228702
mUc:_FT_MSB
ZUg:_GUIStyle_get_clipping_m2754700641
Bqj:__ZN15dense_hashtableINSt3__24pairIK10KeyWrapperINS1_IP11Il2CppClassjEEES4_EES6_N6il2cpp8metadata14ArrayClassHashEN14dense_hash_mapIS6_S4_SB_NS6_14EqualsComparerINSA_17ArrayClassCompareEEENS0_9allocatorIS8_EEE9SelectKeyESF_SH_E3endEv
NLj:__ZN6il2cpp6icalls8mscorlib4Mono8Security12Cryptography18KeyPairPersistence10_CanSecureEP12Il2CppString
Pzh:_Action_1_Invoke_m4180501989_gshared
Twh:_Slider__ctor_m3124136916
Yta:__ZN13GfxDeviceGLES14SetRasterStateEPK17DeviceRasterState
Oya:__ZNK13TranslateGLES11BlendFactorE9BlendMode
B2d:_InputField_set_caretPositionInternal_m231166704
WNi:_Transform_InverseTransformPoint_m2648491174
Drf:_TlsServerHello__ctor_m3032108168
vda:__ZN14SafeBinaryRead11EndTransferEv
_Pf:__ZL98ILGenerator_t99948092_CustomAttributesCacheGenerator_ILGenerator_Mono_GetCurrentOffset_m3553856682P21CustomAttributesCache
mGb:__ZN14SafeBinaryRead8TransferI8MonoPPtrEEvRT_PKc17TransferMetaFlags
HJh:_InternalEnumerator_1_System_Collections_IEnumerator_get_Current_m1533037706_gshared
IFa:__ZN21UniformBufferTFMethod13MapBoneBufferEj
tvf:_RecordProtocol_SendChangeCipherSpec_m3542001341
_fe:_Array_InternalArray__set_Item_TisVector3_t2243707580_m1390667454_gshared
Jjc:__ZN12GUIClipState10BeginOnGUIER10InputEvent
tsj:__ZNSt3__26vectorIcNS_9allocatorIcEEEC2Ej
gff:_KeyPairPersistence_CanSecure_m2251009700
rsg:_ReturnMessage_get_Properties_m531965085
ZGg:_GenericTypeParameterBuilder_IsSubclassOf_m563999142
iMd:_Exception_ToString_m627574695
vKc:__ZNSt3__26vectorIN20TextRenderingPrivate8FontImpl7IntRectE13stl_allocatorIS3_L18MemLabelIdentifier34ELi16EEE21__push_back_slow_pathIKS3_EEvRT_
slc:__Z30Event_Get_Custom_PropModifiersP12Il2CppObject
wx:__ZN7mecanim9animation16CreateClipOutputEPKNS0_4ClipERNS_6memory9AllocatorE
tu:__ZN7mecanim9animation23ClearAnimationNodeStateEPNS0_18AnimationNodeStateEb
nee:_Array_InternalArray__Insert_TisDecimal_t724701077_m1429254816_gshared
KBa:__ZN18AsyncUploadManager17DoScaledPaddedJobEP28FileTextureUploadInstruction
$ra:__ZNSt3__218__stable_sort_moveIRN10vector_mapI17ScriptingClassPtrPKN5Unity4TypeENS_4lessIS2_EENS_9allocatorINS_4pairIS2_S6_EEEEE13value_compareENS_11__wrap_iterIPSB_EEEEvT0_SJ_T_NS_15iterator_traitsISJ_E15difference_typeEPNSM_10value_typeE
rRb:__ZN6Shader21AwakeFromLoadThreadedEv
Dka:__ZN6prcoreL17RemapGenericFloatI17TexFormatRGBFloat17TexFormatRGBAHalfEEvPKNS_9InnerInfoE
Qmg:__ZL70InputField_t1631627530_CustomAttributesCacheGenerator_m_CharacterLimitP21CustomAttributesCache
fuc:__ZN8JSONRead21TransferSTLStyleArrayI13dynamic_arrayI8Vector2fLj4EEEEvRT_18MemLabelIdentifier17TransferMetaFlags
RMj:__ZN6il2cpp2os9SemaphoreC2Eii
ZBh:_InternalEnumerator_1_get_Current_m2960188445_AdjustorThunk
oGb:__ZNSt3__26vectorI8MonoPPtr13stl_allocatorIS1_L18MemLabelIdentifier1ELi16EEE8__appendEj
syh:_Text_set_alignByGeometry_m1514652028
mVa:__ZN14qsort_internal30FindAndMovePivotToLastPositionIP17RODataReplacementi19ROSorterReplacementEEvT_S4_T0_T1_
TFa:__ZN15UniformTFMethod20IsBoneCountSupportedEi
vZg:_Object_Internal_InstantiateSingle_m2776302597
ldd:_X509Certificate_GetExpirationDateString_m2351894475
z1e:_FileStream_get_Position_m465478322
y7i:__ZN14dense_hash_setI10KeyWrapperIPK19Il2CppGenericMethodEN6il2cpp8metadata23Il2CppGenericMethodHashENS4_14EqualsComparerINS6_26Il2CppGenericMethodCompareEEENSt3__29allocatorIS4_EEEC2EjRKS7_RKSA_
pUj:dynCall_viidi
ree:_Array_InternalArray__Insert_TisInt64_t909078037_m3039874636_gshared
czh:_ToggleGroup_NotifyToggleOn_m997426227
Dvf:_RSASslSignatureDeformatter_SetKey_m1150106904
F_:__ZN24ScriptingMethodFiltering17FilterOnSignatureENS_18MethodSearchFilterE
Lth:_Scrollbar_ClickRepeat_m3403943364
pO:__ZN13ProduceHelperI9AudioClipLb0EE7ProduceE18MemLabelIdentifier18ObjectCreationMode
eW:__ZN18ScreenManagerWebGL13SetLockCursorE14CursorLockMode
KTc:_cf2_arrstack_finalize
Q7e:_MonoType_GetMethodsByName_m1854415088
fFg:_DerivedType_GetMethods_m165266904
Qgf:_RSAManaged_EncryptValue_m4089823119
j_b:__ZN13MonoBehaviour19HandleNotificationsEPviR11MessageData
sNj:__ZN6il2cpp2os9EventImpl5ResetEv
HTg:_GUIStyle_set_focused_m1547304893
Tea:__ZNK11NamedObject26GetTypeInfoVirtualInternalEv
n2e:_ReadDelegate_Invoke_m2091885836
oGg:_TypeBuilder_GetField_m2112455315
hXj:b58
iXj:b59
RWj:b52
SWj:b53
PWj:b50
fXj:b56
gXj:b57
bXj:b54
eXj:b55
xQh:__Z67RuntimeInvoker_Void_t1841601450_Int32_t2071877448_Int16_t4041245914PK10MethodInfoPvPS2_
IEd:_DateTime__ctor_m3604679583_AdjustorThunk
dgf:_MACAlgorithm_Core_m2390605245
LIh:_InternalEnumerator_1_System_Collections_IEnumerator_get_Current_m30488070_gshared
dZb:__ZN10GameObject12CleanupClassEv
sui:_DllImportAttribute__ctor_m1165454237
Bua:__ZN9GfxDevice25SetShaderPropertiesSharedERK19ShaderPropertySheet
PXi:_IndexedSet_1_GetEnumerator_m3646001838_gshared
YAa:__ZN18AsyncUploadManager19AsyncResourceUploadER9GfxDeviceii9TextureID
fsh:_VertexHelper_AddUIVertexTriangleStream_m4009409241
g2b:__ZL25InitializeDefaultMaterialv
mgb:__ZN21ArchiveStorageCreatorD2Ev
D6g:_WaitHandle_Dispose_m441403862
Gzh:_VertexHelper_AddVert_m3290455716
jra:__ZN17PersistentManager12UnloadStreamERKN4core12basic_stringIcNS0_20StringStorageDefaultIcEEEEb
XV:__ZN13ScreenManager17RequestResolutionEiibi
sAg:_DESTransform__ctor_m4096028381
$fj:_il2cpp_unity_liveness_calculation_from_statics
d6g:_Scheduler_get_Instance_m1989471839
eCf:_WebRequest_System_Runtime_Serialization_ISerializable_GetObjectData_m3377822910
sqb:__ZN8Renderer8TransferI17RemapPPtrTransferEEvRT_
fGe:_Collection_1_Contains_m1299140035_gshared
dXj:_glBlitFramebuffer__wrapper
rle:_ExecuteEvents_ExecuteHierarchy_TisIl2CppObject_m2541874163_gshared
Tce:_Array_InternalArray__ICollection_Add_TisUICharInfo_t3056636800_m968274080_gshared
ZYi:_ObjectPool_1__ctor_m1532275833_gshared
Kdc:__Z22Input_CUSTOM_GetKeyInti
s2i:__ZL24UnresolvedVirtualCall_71P12Il2CppObjectS0_S0_iS0_S0_S0_PK10MethodInfo
Txe:_List_1_GetIndex_m3262928832_gshared
n3a:__Z24LookRotationToQuaternionRK8Vector3fS1_P11Quaternionf
l3a:__ZN16ReflectionProbes9GetCameraEv
GVb:__ZL18IsGpuProgramUsable20ShaderGpuProgramTypePK6Shader
skf:_ArgumentException__ctor_m2105824819
I_c:__ZN2UI6Canvas17SetSortingLayerIDEi
sUd:_BaseMeshEffect_get_graphic_m3358796463
fAj:__ZN6il2cpp2vm11MethodStack23CleanupForCurrentThreadEv
CRi:_Predicate_1_Invoke_m695569038_gshared
zme:_Enumerator_VerifyState_m825848279_AdjustorThunk
okb:__ZN20TierGraphicsSettings8TransferI24GenerateTypeTreeTransferEEvRT_
KHb:__ZN14SafeBinaryRead21TransferSTLStyleArrayI13dynamic_arrayI4AABBLj4EEEEvRT_17TransferMetaFlags
aia:__ZN18UnityPropertySheet8TransferI19StreamedBinaryWriteILb0EEEEvRT_
Rtf:_TlsServerCertificate_checkServerIdentity_m3836435780
n9:__ZNSt3__26__treeINS_12__value_typeIiN11TypeManager18TypeCallbackStructEEENS_19__map_value_compareIiS4_NS_4lessIiEELb1EEENS_9allocatorIS4_EEE7destroyEPNS_11__tree_nodeIS4_PvEE
Shf:_PKCS12_Decrypt_m2353135969
_oi:_PersistentCallGroup_Initialize_m3908067069
BLg:_MonoEvent_ToString_m386956596
Ngg:__ZL70RuntimePlatform_t1869584967_CustomAttributesCacheGenerator_FlashPlayerP21CustomAttributesCache
aCb:__ZN39AssetBundleLoadFromStreamAsyncOperationC2ERKN4core12basic_stringIcNS0_20StringStorageDefaultIcEEEE
Gea:__ZL19GetCameraTargetRectRK6Camerabb
mfh:_Transform_1_BeginInvoke_m1786442111_gshared
jYe:_Int32_GetFormatException_m1729046182
Fbb:__ZN21UnityDefaultAllocatorI17LowLevelAllocatorE10DeallocateEPv
BY:__GLOBAL__sub_I_runtime_camera2_lump_cpp
wr:__ZN15PackedIntVector8TransferI14SafeBinaryReadEEvRT_
_Jg:_FieldInfo_get_IsLiteral_m267898096
jCa:__ZN17SharedTextureDataD0Ev
Rwf:_SslStreamBase_EndNegotiateHandshake_m1732321201
yfh:_Transform_1_BeginInvoke_m1167293475_gshared
RH:__ZN13AudioListener8DoUpdateEv
aAd:__Z13bankers_roundd
Jyb:__ZN14SafeBinaryRead8TransferI5RectTIfEEEvRT_PKc17TransferMetaFlags
wi:_emscripten_glGenFramebuffers
gxd:_Hashtable_CopyTo_m2778915805
i9:__ZN17BaseObjectManager16StaticInitializeEPv
vEg:_ConstructorBuilder_get_IsCompilerContext_m2796899803
Hae:_Array_IndexOf_TisUIVertex_t1204258818_m613887160_gshared
Mzb:__ZN18StreamedBinaryReadILb0EE19TransferSTLStyleMapINSt3__28multimapIN4core12basic_stringIcNS4_20StringStorageDefaultIcEEEE4PPtrI6ObjectENS2_4lessIS8_EE13stl_allocatorINS2_4pairIKS8_SB_EEL18MemLabelIdentifier51ELi16EEEEEEvRT_17TransferMetaFlags
BAd:_DateTime_CoreParse_m2014268103
vve:_List_1__ctor_m3698273726_gshared
qEc:__ZN24ParticleIntersectQuery2D18ReportFixtureProxyEPK14b2FixtureProxy
oqc:__Z18Transfer_BlittableI9JSONWriteLb0EyEvRK29SerializationCommandArgumentsR31RuntimeSerializationCommandInfo
Mea:__ZN13RenderTexture15ThreadedCleanupEv
R6:__ZN15dense_hashtableINSt3__24pairIKiiEEi21InstanceIDHashFunctorN14dense_hash_mapIiiS4_NS0_8equal_toIiEE13stl_allocatorIS3_L18MemLabelIdentifier130ELi16EEE9SelectKeyES7_SA_E9copy_fromERKSD_j
Nmb:__ZN12CubemapArray23VirtualRedirectTransferER14SafeBinaryRead
jFb:__Z18Transfer_BlittableI14SafeBinaryReadLb1E8Vector2fEvRK29SerializationCommandArgumentsR31RuntimeSerializationCommandInfo
Zzg:_CryptographicException__ctor_m1012314467
BQe:_ReadOnlyCollection_1_System_Collections_IList_Add_m616574295_gshared
kYe:_Int32_ProcessTrailingWhitespace_m2812079777
fgc:__Z43RectTransform_CUSTOM_INTERNAL_set_sizeDeltaP12Il2CppObjectRK13Vector2fIcall
UBf:_WebProxy__ctor_m3679722173
uyj:__ZN15dense_hashtableINSt3__24pairIK10KeyWrapperINS1_IPKcS4_EEEiEES6_24NamespaceAndNamePairHashN14dense_hash_mapIS6_iS9_NS6_14EqualsComparerI26NamespaceAndNamePairEqualsEENS0_9allocatorIS8_EEE9SelectKeyESD_SF_E6insertERKS8_
Rda:__ZN24GenerateTypeTreeTransfer18BeginArrayTransferEPKcS1_Ri17TransferMetaFlags
dBa:__Z16DecompressCrunchPKhRjR13TextureFormatiiii18MemLabelIdentifier
om:___syscall51
sm:___syscall54
MOh:__Z107RuntimeInvoker_Boolean_t3825574718_SByte_t454417549_Il2CppObject_Int32_t2071877448_ExceptionU26_t1467204777PK10MethodInfoPvPS2_
hUi:_UnityAction_2_Invoke_m1994351568_gshared
ngi:_UnityAnalyticsHandler_Dispose_m1048126775
is:__ZNK8Animator20IsAnyRendererVisibleEv
rUc:_cff_builder_add_point1
zzj:__ZN6il2cpp2vm5Image21GetCachedResourceDataEPK11Il2CppImageRKNSt3__212basic_stringIcNS5_11char_traitsIcEENS5_9allocatorIcEEEE
c0d:_HorizontalOrVerticalLayoutGroup_set_childControlWidth_m4209477792
Hce:_Array_InternalArray__ICollection_Add_TisUInt32_t2149682021_m2629016323_gshared
mFb:__Z18Transfer_BlittableI14SafeBinaryReadLb0E10ColorRGBAfEvRK29SerializationCommandArgumentsR31RuntimeSerializationCommandInfo
Ba:invoke_iiiiiiiiii
mna:__ZN18LoadSceneOperation19IntegrateTimeSlicedEi
o6g:_Scheduler_SchedulerThread_m2209572785
Xaf:_SortKeyBuffer_GetResultAndReset_m2516956577
o9a:__ZN10FileSystem19SetCurrentDirectoryERKN4core12basic_stringIcNS0_20StringStorageDefaultIcEEEE
S3:__ZN16ScriptingManager24NotifyScriptCacheReleaseEi
Tac:__Z47Register_UnityEngine_Coroutine_ReleaseCoroutinev
DI:__ZN15AudioReverbZone13SetFMODValuesEv
$li:_Component_GetComponentInChildren_m3925629424
c1:__ZL19StaticDestroyShaderPv
ie:_glRenderbufferStorageMultisample
hA:__ZN23AnimationPlayableOutput17SetTargetAnimatorEP8Animator
YIi:_X509Chain__ctor_m1113875360
XHb:__Z35Transfer_Blittable_SingleValueFieldI14SafeBinaryReadfEvRT_R17GeneralMonoObjectRK23StaticTransferFieldInfo
kuf:_TlsServerHello_processProtocol_m1241336522
byi:_ContextAttribute_IsContextOK_m3281216012
y3e:_PathTooLongException__ctor_m3212099251
fxg:_ObjectManager_RaiseDeserializationEvent_m1611173032
Fr:__ZN17PackedFloatVector8TransferI18StreamedBinaryReadILb0EEEEvRT_
tnb:__ZN7Cubemap23VirtualRedirectTransferER17RemapPPtrTransfer
MPa:_longest_match_fast
u5b:__ZN22BlockMemoryCacheWriter11GetPathNameEv
u_d:_Graphic_Rebuild_m2617722358
gGd:_DateTime_ToString_m3108726445_AdjustorThunk
yQ:__ZN19CloudServiceHandlerD2Ev
G5a:__ZN13dynamic_arrayIN23ReflectionProbesContext23ReflectionProbeCubeInfoELj4EE18resize_initializedEjRKS1_12ResizePolicy
Bje:_Array_InternalArray__get_Item_TisTableRange_t2011406615_m602485977_gshared
E3d:_InputField_Append_m2623574152
cF:__Z116Register_UnityEngine_Experimental_Director_AnimatorControllerPlayable_INTERNAL_CALL_GetNextAnimatorStateInfoInternalv
lkf:_ApplicationException__ctor_m1120437222
jp:stackAlloc
mbc:__Z44Camera_CUSTOM_INTERNAL_CALL_ScreenPointToRayP12Il2CppObjectRK8Vector3fR3Ray
UKa:__ZN25SingleBlockMemoryFileData4LockEPPv
vIg:_MethodBuilder_GetHashCode_m1713271764
Mui:_Marshal__cctor_m802981325
fCe:_Collection_1_IsSynchronized_m1319022347_gshared
faf:_MSCompatUnicodeTable_GetResource_m3816716847
ycc:__Z32RectOffset_Get_Custom_PropBottomP12Il2CppObject
Tmd:_Array_CreateInstance_m15016505
iHb:__ZNSt3__26vectorI17AnimationCurveTplIfE13stl_allocatorIS2_L18MemLabelIdentifier1ELi16EEE6assignINS_11__wrap_iterIPS2_EEEENS_9enable_ifIXaasr21__is_forward_iteratorIT_EE5valuesr16is_constructibleIS2_NS_15iterator_traitsISC_E9referenceEEE5valueEvE4typeESC_SC_
yPj:_stat
A9c:_RijndaelTransform_Decrypt128_m1282993908
Hde:_Array_InternalArray__ICollection_CopyTo_TisUInt16_t986882611_m3228377237_gshared
zng:__ZL68Navigation_t1571958496_CustomAttributesCacheGenerator_m_SelectOnDownP21CustomAttributesCache
lji:_Bounds_op_Inequality_m2315096783
mxc:__ZN15b2DistanceJoint23InitVelocityConstraintsERK12b2SolverData
Msa:__ZNSt3__218__insertion_sort_3IRNS_4lessIN22BuiltinResourceManager8ResourceEEEPS3_EEvT0_S7_T_
vmi:_Component_BroadcastMessage_m1308086896
U8c:_RC2_set_KeySize_m2015782960
ma:invoke_iiiiiiiiiiii
Ghf:_StrongName_get_PublicKey_m3777577320
tdc:__Z43Register_UnityEngine_GameObject_SendMessagev
I6:__ZNSt3__26__treeINS_12__value_typeIN4core12basic_stringIcNS2_20StringStorageDefaultIcEEEES6_EENS_19__map_value_compareIS6_S7_NS_4lessIS6_EELb1EEE13stl_allocatorIS7_L18MemLabelIdentifier12ELi16EEE7destroyEPNS_11__tree_nodeIS7_PvEE
O$i:__ZN6il2cpp2vm17SetupFieldsLockedEP11Il2CppClassRKNS_2os12FastAutoLockE
YL:__ZN11AudioSourceD0Ev
Jki:_CanvasRenderer_set_hasPopInstruction_m1388844875
Q9a:__ZN16MemoryFileSystem4NameEv
hPd:_BaseRaycaster_OnEnable_m3641767070
Wlf:_PrimeGeneratorBase_get_PrimalityTest_m308005118
IUg:_GUIStyle_Internal_CalcSize_m1309259680
Vkc:__ZNK8GUIStyle8CalcSizeER10GUIContent
qre:_List_1_CheckIndex_m2328469916_gshared
oLc:_UNITY_FT_New_Size
u8b:__Z42ScriptingGetComponentsOfTypeFromGameObjectRK26ScriptingGetComponentsArgs
aBe:_List_1_get_Item_m3157283227_gshared
ETi:_InvokableCall_4_Invoke_m1555001411_gshared
GDd:_Convert_ToString_m2915777777
Dia:__ZNSt3__27__sort4IRPFbRKNS_4pairIN9ShaderLab16FastPropertyNameEN18UnityPropertySheet11UnityTexEnvEEES8_EPS6_EEjT0_SD_SD_SD_T_
GTc:_cf2_hintmap_build
T2h:__Z92RuntimeInvoker_AnimatorStateInfo_t2577870592_PlayableHandleU26_t3483893774_Int32_t2071877448PK10MethodInfoPvPS2_
uRc:_Line_Up
x8e:_MonoType_GetGenericTypeDefinition_m2363776160
rsf:_Context_set_SentConnectionEnd_m2641458842
pe:_emscripten_glBufferSubData
cqd:_Buffer_BlockCopyInternal_m2627156229
n_d:_Graphic_set_material_m329335629
SOd:_ExecuteEvents_get_pointerExitHandler_m3250605428
Jja:__ZN6prcoreL12RemapGenericI15TexFormatRGB88817TexFormatARGB8888EEvPKNS_9InnerInfoE
xD:__Z17CalculateGlobalRS23TransformAccessReadOnly
Gji:_Camera_ScreenPointToRay_m614889538
Gcf:_Kernel_multiByteDivide_m735279869
nkh:_Dictionary_2_ToTValue_m542772656_gshared
O5g:_Thread_GetNewManagedId_internal_m3211695465
VPa:_unity_z_deflateReset
FPg:_SkinChangedDelegate_Invoke_m2801964040
LAa:__ZN17GenericDynamicVBO17DrawChunkInternalERK21DynamicVBOChunkHandle17ShaderChannelMaskS3_P17VertexDeclarationP16DrawBuffersRangeij
eRb:__ZN22MemoryCacherReadBlocks14LockCacheBlockEjPPhS1_
dpd:_Boolean_System_IConvertible_ToChar_m2637404801_AdjustorThunk
jfd:_SecurityContext_Capture_m2535194991
U9g:_UInt16_System_IConvertible_ToSByte_m3044765342_AdjustorThunk
KAj:__ZN4utf88internal15increase_safelyIPKcEENS0_9utf_errorERT_S5_
mKc:__ZN20TextRenderingPrivate8FontImpl16CacheFontForTextEPtiifjPK13dynamic_arrayINS_16TextFormatChangeELj4EE
tge:_Array_qsort_TisUIVertex_t1204258818_TisUIVertex_t1204258818_m512606409_gshared
O8c:__Z21ArrayElementTypeCheckP11Il2CppArrayPv
x_j:_emscripten_glTexSubImage2D__wrapper
zzf:_NameValueCollection_AsSingleString_m10599052
rRj:__ZNSt3__212basic_stringIcNS_11char_traitsIcEENS_9allocatorIcEEE6appendEjc
y9e:_Object_InternalGetHashCode_m1371384246
Yrh:_Navigation_get_defaultNavigation_m2185194207
ZYe:_Int32_System_IConvertible_ToSByte_m1449623243_AdjustorThunk
Fjf:_AccessViolationException__ctor_m1270251537
i1c:__Z42Register_UnityEngine_Canvas_get_rootCanvasv
pJi:_X509ExtensionCollection_IndexOf_m3972100651
lGb:__Z14resize_trimmedINSt3__26vectorI8MonoPPtr13stl_allocatorIS2_L18MemLabelIdentifier1ELi16EEEEEvRT_j
$fb:__ZN39AssetBundleLoadFromStreamAsyncOperation11GetProgressEv
Ye:_TTF_RenderText_Solid
cEb:__ZN13MonoBehaviour25TransferEngineAndInstanceI24GenerateTypeTreeTransferEEvRT_
Oah:_UInt32_System_IConvertible_ToInt64_m3091851828
G6e:_MissingMethodException__ctor_m3898429715
Bug:_RemotingConfiguration_RegisterClientProviderTemplate_m514821425
Pdh:_Enumerator_System_Collections_IEnumerator_Reset_m3085583937_gshared
Rgf:_RSAManaged_ExportParameters_m2873993187
cBe:_Enumerator__ctor_m2816143215_AdjustorThunk
Q6c:__ZN11UnityEngine7Connect16PersistentValuesC2Ev
MEf:_X509Chain_FindParent_m404663796
E6e:_MissingMemberException__ctor_m2164043278
uXi:__ZL7log2_32j
hBb:__ZN13EmscriptenWWW10OnProgressEPvjj
rHf:_Interpreter_GetGroupInfo_m312421921
fJb:__Z19TransferField_ArrayI17RemapPPtrTransfer27Converter_UnityEngineObjectEvRK23StaticTransferFieldInfoR31RuntimeSerializationCommandInfoRT0_
i4h:__Z120RuntimeInvoker_Void_t1841601450_Single_t2076509932_Single_t2076509932_Single_t2076509932_Single_t2076509932_Il2CppObjectPK10MethodInfoPvPS2_
Dlb:__ZN14RenderSettings8TransferI18StreamedBinaryReadILb0EEEEvRT_
T_e:_IntPtr_System_Runtime_Serialization_ISerializable_GetObjectData_m21554269_AdjustorThunk
Vpa:__ZN29SerializeTraitsForStringTypesIN4core12basic_stringIcNS0_20StringStorageDefaultIcEEEEE8TransferI24GenerateTypeTreeTransferEEvRS4_RT_
uK:__ZN4FMOD6System9createDSPEP20FMOD_DSP_DESCRIPTIONPPNS_3DSPE
_z:__ZN7mecanim9animation26DestroyControllerWorkspaceEPNS0_19ControllerWorkspaceERNS_6memory9AllocatorE
CG:__ZN4FMOD8ChannelI11EndCallbackEv
Lcd:_ToBase64Transform_TransformBlock_m2201454137
Jkc:__ZN8GUIStyle14SetDefaultFontEPN13TextRendering4FontE
eJg:_OpCode_get_StackBehaviourPop_m3787015663_AdjustorThunk
gBi:_PatternCompiler_EmitCount_m3609178511
crb:__ZN15QualitySettings23VirtualRedirectTransferER24GenerateTypeTreeTransfer
iRi:_U3CCreateWhereIteratorU3Ec__Iterator1D_1_System_Collections_Generic_IEnumerableU3CTSourceU3E_GetEnumerator_m2682676065_gshared
DUg:_GUIStyle_Internal_GetCursorStringIndex_m1491806746
Fgj:__ZN6il2cpp2os10FileHandleC2Ev
Dfc:__Z59Register_UnityEngine_MonoBehaviour_Internal_CancelInvokeAllv
W6i:__ZN30dense_hashtable_const_iteratorINSt3__24pairIK10KeyWrapperIPK19Il2CppGenericMethodEPK26Il2CppGenericMethodIndicesEES6_N6il2cpp8metadata23Il2CppGenericMethodHashEN14dense_hash_mapIS6_SA_SE_NS6_14EqualsComparerINSD_26Il2CppGenericMethodCompareEEENS0_9allocatorISB_EEE9SelectKeyESI_SK_EppEv
syf:_HybridDictionary_Add_m1037587952
lXg:_Mathf_Cos_m238853451
SKc:_UNITY_FT_Request_Metrics
Eoa:__Z37GetBarycentricCoordinatesForOuterCellPPK8Vector3fRK13dynamic_arrayIS_Lj4EERS0_RK11TetrahedronR8Vector4fRf
Nuj:__ZN6il2cpp6icalls8mscorlib6System10Reflection10MonoMethod29get_IsGenericMethodDefinitionEP22Il2CppReflectionMethod
trj:__ZN6il2cpp2vm6Thread21AllocThreadStaticDataEi
DAd:_DateTime_YearMonthDayFormats_m4204607055
ZVd:_ColorBlock_set_disabledColor_m3502887543_AdjustorThunk
cEj:__ZN30dense_hashtable_const_iteratorINSt3__24pairIK10KeyWrapperIPK19Il2CppGenericMethodEP10MethodInfoEES6_N6il2cpp8metadata23Il2CppGenericMethodHashEN14dense_hash_mapIS6_S9_SD_NS6_14EqualsComparerINSC_26Il2CppGenericMethodCompareEEENS0_9allocatorISA_EEE9SelectKeyESH_SJ_EppEv
yO:__Z13RegisterClassI13AudioListenerEvv
LQi:_Aes__ctor_m4020215067
zD:__ZN23AnimationOffsetPlayable11GetPositionEv
Epc:__Z18Transfer_BlittableI9JSONWriteLb0E8Vector3fEvRK29SerializationCommandArgumentsR31RuntimeSerializationCommandInfo
Xf:_emscripten_glUniform4i
s_d:_Graphic_OnDisable_m2360886868
dZi:_ObjectPool_1_Release_m1615270002_gshared
hf:_emscripten_glUniform4f
Aj:___unlock
svh:_ScrollRect_InternalCalculateOffset_m3083065267
yvd:_Comparer_Compare_m4132969818
EM:__ZN20SoundChannelInstance19setReverbPropertiesEP29FMOD_REVERB_CHANNELPROPERTIES
$C:__ZNK26AnimatorControllerPlayable14IsInTransitionEi
cmh:_DefaultComparer_Equals_m2171836276_gshared
ktj:__ZN6il2cpp2vm9Exception18GetFormatExceptionEPKc
uic:__Z40Register_UnityEngine_Transform_IsChildOfv
jUg:_GUIStyle_Draw_m1435796321
qtd:_ArrayList_Sort_m923359189
ncc:__Z45Register_UnityEngine_Display_GetSystemExtImplv
hDh:_InternalEnumerator_1_System_Collections_IEnumerator_get_Current_m3088751576_gshared
EWh:__Z78RuntimeInvoker_Void_t1841601450_Int64_t909078037_Il2CppObject_Int64_t909078037PK10MethodInfoPvPS2_
$ii:_Bounds_set_center_m2069004927_AdjustorThunk
Pmc:__Z46GUIStyle_CUSTOM_Internal_DrawWithTextSelectionP12Il2CppObjectR43MonoInternal_DrawWithTextSelectionArguments
rXi:__ZL17log2withScale_128yyi
sZc:__ZNSt3__218__insertion_sort_3IRNS_6__lessIN2UI14DepthSortEntryES3_EEPS3_EEvT0_S7_T_
ZLg:_MonoField_CheckGeneric_m1527550038
xZ:__ZN13RuntimeStaticI15DirectorManagerLb0EE16StaticInitializeEPv
Qsc:__ZN8JSONRead8TransferI23ManagedObjectTransfererEEvRT_PKc17TransferMetaFlagsb
P5g:_Thread_get_ManagedThreadId_m1995754972
BOd:_BaseInput_get_touchCount_m998724785
Jxb:__ZN11TimeManager6UpdateEv
Y3d:_InputField_get_preferredWidth_m3185355225
UPg:_GUIUtility_get_pixelsPerPoint_m2667928361
G5g:_Thread_SetState_m3198426726
Ktd:_ArrayListWrapper_Contains_m1158465965
FPj:_fflush
toa:__ZN17LightProbeContext4InitERK16LightmapSettingsRK14RenderSettings
g$d:_GraphicRaycaster_Raycast_m1206612976
LNj:__GLOBAL__sub_I_Error_cpp
tDi:_Alternation_GetWidth_m4218808325
hRe:_ReadOnlyCollection_1_System_Collections_IList_Insert_m2651065875_gshared
KNc:_ft_bitmap_glyph_bbox
Gzf:_TypeConverterAttribute__ctor_m4061167050
$zj:__ZN6il2cpp2vm11MethodStack17GetStackFramesRawEv
IOg:_Font_add_textureRebuilt_m1282639736
PHj:_GC_reclaim_uninit
p1a:__Z34ProcessIndexListIsNodeVisibleStep2RK22SceneCullingParametersPK9SceneNodePK4AABBR9IndexList
bCb:__ZN10MonoScriptD2Ev
zxh:_Slider_OnRectTransformDimensionsChange_m4109401172
QBf:_WebHeaderCollection_Get_m3391944907
dZ:__GLOBAL__sub_I_half_cpp
Rdc:__Z39Input_CUSTOM_INTERNAL_get_mousePositionP8Vector3f
vQc:_tt_cmap13_char_next
yOa:__ZN9ShaderLab4Pass16SetupPassOptionsEv
Wqi:_AnimatorControllerPlayable_INTERNAL_CALL_SetTriggerID_m508896534
EXi:_UnityEvent_4__ctor_m3102731553_gshared
kh:_JS_Sound_ReleaseInstance
Egg:__ZL72IL2CPPStructAlignmentAttribute_t130316838_CustomAttributesCacheGeneratorP21CustomAttributesCache
Pua:__ZN13GfxDeviceGLES19DrawBuffersIndirectEP9GfxBufferPK18VertexStreamSourceiP17VertexDeclaration17ShaderChannelMask16GfxPrimitiveType15ComputeBufferIDj
E1g:_Renderer_get_sortingLayerID_m2403577271
iZj:_emscripten_glPixelStorei__wrapper
sQb:__Z29Transfer_Blittable_ArrayFieldI18StreamedBinaryReadILb0EEaEvRT_R9ArrayInfoRK23StaticTransferFieldInfo
tgc:__Z21Resources_CUSTOM_LoadP12Il2CppStringP12Il2CppObject
Gm:FUNCTION_TABLE_diddi
ygc:__Z26Material_CUSTOM_SetIntImplP12Il2CppObjectii
UXe:_Int16_System_IConvertible_ToSingle_m3277935657_AdjustorThunk
rii:_AttributeHelperEngine_CheckIsEditorScript_m2980171478
Dyi:_InternalRemotingServices__cctor_m3821625125
Lcc:__Z42Register_UnityEngine_RectOffset_get_bottomv
H2g:_StringBuilder_Insert_m3322917127
llh:_DefaultComparer_Equals_m724229128_gshared
Eeh:_Enumerator_VerifyCurrent_m1702320752_AdjustorThunk
gCd:_Convert_ToDouble_m3520060872
BYj:_emscripten_glUniform1f__wrapper
rTj:dynCall_di
Jvf:_SslCipherSuite_ComputeServerRecordMAC_m1876572367
YLc:__ZN20TextRenderingPrivate19NativeTextGeneratorC2ERK11UTF16StringPNS_8FontImplE11ColorRGBA32ifRK8Vector2fbifiibffbbbP13dynamic_arrayIN2UI8UIVertexELj4EE
opc:__Z28RegisterModule_JSONSerializev
fF:__Z111Register_UnityEngine_Experimental_Director_AnimatorControllerPlayable_INTERNAL_CALL_GetAnimatorClipInfoInternalv
_4g:_Interlocked_CompareExchange_m3227034792
oBg:_HashAlgorithm_get_Hash_m931854461
RLh:_DefaultComparer_Compare_m3564013922_gshared
hXb:__ZN2UI13RectTransform8TransferI14SafeBinaryReadEEvRT_
Y6b:__Z20IsHumanControllingUsv
sRa:__ZNK19RenderEventsContext21ExecuteCommandBuffersEijR17ShaderPassContextR15RenderNodeQueueP19ProfilerInformationi
_U:__ZNK20DynamicHeapAllocatorI17LowLevelAllocatorE10GetPtrSizeEPKv
zsi:_AnimatorControllerPlayable_PlayInFixedTime_m172593751
ueb:__ZN10systeminfo21GetPersistentDataPathEv
mYd:_Dropdown_set_value_m2945561009
Gua:__ZN13GfxDeviceGLES17DestroyGpuProgramEPK10GpuProgram
CVe:_GregorianCalendar_GetMonth_m523739832
TEb:__Z44InitializeTransferFunctionScriptingTraitsForI18StreamedBinaryReadILb0EEEvR31TransferFunctionScriptingTraits
qZa:__ZNSt3__218__insertion_sort_3IR23CompareReflectionProbesP31RuntimeReflectionProbeBlendInfoEEvT0_S5_T_
pJb:__ZN12NativeBufferI27Converter_SimpleNativeClassI8GradientEE15SetupForWritingER9ArrayInfo
XOg:_GameObject_AddComponent_m3757565614
baa:__ZN12_GLOBAL__N_113StaticDestroyEPv
rXe:_Guid_ToString_m51661589
qjc:__ZNK8GUIStyle4DrawER8GUIStateRK5RectTIfER10GUIContentbbbb
eyh:_Text_set_font_m1095513810
l1j:_glUnmapBuffer__wrapper
pFd:_DateTime_System_IConvertible_ToUInt32_m1363211018_AdjustorThunk
p1d:_InputField_get_cachedInputTextGenerator_m881618486
kki:_Canvas_get_rootCanvas_m1790974328
Pec:__Z32Mesh_CUSTOM_ExtractArrayFromListP12Il2CppObject
$Cg:_Binder_get_DefaultBinder_m965620943
ttc:__ZN8JSONRead21TransferSTLStyleArrayINSt3__26vectorI8Gradient13stl_allocatorIS3_L18MemLabelIdentifier1ELi16EEEEEEvRT_17TransferMetaFlags
fyb:__ZNSt3__218__insertion_sort_3IRNS_6__lessINS_4pairIPKN5Unity4TypeE7Hash128EES8_EEPS8_EEvT0_SC_T_
HKb:__ZN10RectOffset8TransferI24GenerateTypeTreeTransferEEvRT_
Tnd:_SimpleEnumerator_get_Current_m482975946
M7b:__Z18GetResourceManagerv
jQj:_srand
eZc:__ZN2UI13CanvasManager19RemoveDirtyRendererEPNS_6CanvasEPNS_14CanvasRendererE
xii:_AudioClip_InvokePCMSetPositionCallback_Internal_m2304858844
_3c:__ZN11UnityEngine15PlatformWrapper25GetGraphicsRendererStringEv
k3d:_InputField_KeyPressed_m3066588581
DMi:_Time_get_unscaledTime_m862335845
t8i:__ZNK15dense_hashtableINSt3__24pairIK10KeyWrapperI13dynamic_arrayIPK10Il2CppTypeLj4EEEPFvvEEES8_N6il2cpp8metadata19Il2CppSignatureHashEN14dense_hash_mapIS8_SB_SF_NS8_14EqualsComparerINSE_22Il2CppSignatureCompareEEENS0_9allocatorISC_EEE9SelectKeyESJ_SL_E13find_positionERS9_
Ewh:_Selectable_DoStateTransition_m539253088
Ubd:_SHA512_Create_m439875055
Vb:invoke_vi
Mbd:_SHA384Managed_update_m2629600295
JCc:__ZNSt3__26vectorINS0_IN10ClipperLib8IntPointENS_9allocatorIS2_EEEENS3_IS5_EEE7reserveEj
IJa:__ZN15dense_hashtableINSt3__24pairIKN4core12basic_stringIcNS2_20StringStorageDefaultIcEEEEP20ArchiveStorageReaderEES6_20StringHash32FunctionIS6_EN14dense_hash_mapIS6_S9_SC_NS0_8equal_toIS6_EE13stl_allocatorISA_L18MemLabelIdentifier54ELi16EEE9SelectKeyESF_SI_ED2Ev
Tb:invoke_vd
tb:invoke_vf
KUg:_GUIStyle_Internal_CalcSizeWithConstraints_m3375255978
q5:__ZNK10GameObject8IsActiveEv
mW:__ZN18ScreenManagerWebGL21SetCursorInsideWindowEb
bzg:_SByte_System_IConvertible_ToUInt32_m4256495110
cRd:_PointerEventData_set_eligibleForClick_m2036057844
DDa:__ZN18GfxFramebufferGLES23SetupDefaultFramebufferEPP17RenderSurfaceBaseS2_N2gl6HandleILNS3_10ObjectTypeE9EEE
NPj:_mbsinit
TTg:_GUIStyle_get_Internal_clipOffset_m4237737448
Pig:__ZL70EventSystem_t3466835263_CustomAttributesCacheGenerator_m_FirstSelectedP21CustomAttributesCache
l0i:__ZN6il2cpp2vm5Class12SetupMethodsEP11Il2CppClass
sS:__ZN11UnityEngine15CloudWebService13WWWRestClient18GetResponseHeadersEv
cac:__Z39DeleteLastPathNameComponentWithAnySlashRKN4core12basic_stringIcNS_20StringStorageDefaultIcEEEE
vU:__ZN13EmscriptenWWW14BlockUntilDoneEv
Mmg:__ZL68InputField_t1631627530_CustomAttributesCacheGenerator_m_KeyboardTypeP21CustomAttributesCache
Kzh:_VerticalLayoutGroup_CalculateLayoutInputHorizontal_m497637066
Mva:__ZN13GfxDeviceGLES17UploadTextureCubeE9TextureIDPKhiii13TextureFormati18TextureUploadFlags17TextureColorSpace
t1g:_RectTransformUtility_PixelAdjustPoint_m560908615
czi:_MethodCall__ctor_m4106494862
dnc:__Z37Register_UnityEngine_GUIStyle_Cleanupv
Oa:invoke_iiifii
_dj:__ZN6il2cpp6icalls8mscorlib6System8MonoType13IsPointerImplEP20Il2CppReflectionType
SBd:_Convert_ToDecimal_m2284596541
Qsb:__ZN14Texture2DArray34UpdateFileTextureUploadInstructionEP28FileTextureUploadInstructionj
Ti:_emscripten_glFramebufferRenderbuffer
l_e:_Int64_GetHashCode_m4047499913
d4a:__ZN9Transform30EnsureTransformHierarchyExistsEv
iP:__ZN11AudioModule26SetDefaultMicrophoneDriverEPv
pod:_Attribute_IsDefined_m216577166
tsd:_Char_ToUpper_m109978609
kFh:_InternalEnumerator_1_get_Current_m1089848479_gshared
fKd:_Double_System_IConvertible_ToInt64_m3798425616
NSd:_StandaloneInputModule_get_repeatDelay_m3025279
Ig:___cxa_find_matching_catch_4
tfc:__ZN13MonoBehaviour13StopCoroutineEPKc
h7a:__ZNSt3__26vectorINS_4pairIN4core12basic_stringIcNS2_20StringStorageDefaultIcEEEEPK17MessageIdentifierEENS_9allocatorISA_EEE12__move_rangeEPSA_SE_SE_
nVa:__ZN14qsort_internal17MedianOfThreeSwapIP17RODataReplacement19ROSorterReplacementEEvT_S4_S4_T0_
c$i:__ZNK15dense_hashtableINSt3__24pairIK10KeyWrapperIPK22Il2CppGenericParameterEP11Il2CppClassEES6_N6il2cpp5utils11PointerHashIS4_EEN14dense_hash_mapIS6_S9_SE_NS6_14EqualsComparerINS0_8equal_toIS5_EEEENS0_9allocatorISA_EEE9SelectKeyESJ_SL_E3endEv
_9b:__ZN17TransformInternal36OnScaleChangedCalculateTransformTypeE15TransformAccess
Oud:_SynchronizedArrayListWrapper_InsertRange_m709359548
eMa:__ZN17ArchiveFileSystem10ToAbsoluteEPKc
Klf:_BigInteger_op_Modulus_m13450242
Fai:__Z56RuntimeInvoker_Int32_t2071877448_RaycastResult_t21186376PK10MethodInfoPvPS2_
ICd:_Convert_ToInt32_m2988544165
Mge:_Array_Resize_TisColor32_t874517518_m2219502085_gshared
yw:__ZN7mecanim6CRCKeyENS_7eStringE
Bxf:_SslStreamBase_get_CanWrite_m2069502593
WXb:__ZL12SetPrefValueRKN4core12basic_stringIcNS_20StringStorageDefaultIcEEEERK9PrefValue
c0:__ZN19ShaderPropertySheet20ReservePropertyCountEj
qAj:__ZN6il2cpp5utils11StringUtils6PrintfEPKcz
Qia:__ZN15NameToObjectMapI6ShaderNSt3__23mapI4PPtrIS0_EN4core12basic_stringIcNS5_20StringStorageDefaultIcEEEENS1_4lessIS4_EENS1_9allocatorINS1_4pairIKS4_S9_EEEEEENS1_8multimapIS9_S4_NSA_IS9_EENSC_INSD_IKS9_S4_EEEEEEE4FindERSK_
Meh:_ShimEnumerator_Reset_m98005789_gshared
Upa:__ZN24GenerateTypeTreeTransfer21TransferResourceImageE19ActiveResourceImagePKcR13StreamingInfoPvjiPKN5Unity4TypeE
wZg:_Object_INTERNAL_CALL_Internal_InstantiateSingle_m3932420250
dPe:_ReadOnlyCollection_1_System_Collections_IList_set_Item_m1377990618_gshared
CPa:_UNITY_png_zstream_error
VHg:_ILGenerator_make_room_m373147874
Nkh:_Dictionary_2_Init_m1045257495_gshared
I0j:_emscripten_glLinkProgram__wrapper
qgf:_PKCS1_Verify_v15_m2571212635
klb:__ZNSt3__212__deque_baseI18ReflectionProbeJobNS_9allocatorIS1_EEED2Ev
Mv:__ZN11UnityEngine9Animation27DestroyAnimationSetBindingsEPNS0_20AnimationSetBindingsERN7mecanim6memory9AllocatorE
oSb:__ZN15dense_hashtableINSt3__24pairIKiN4core17string_with_labelILi1EEEEEi18SInt32HashFunctionN14dense_hash_mapIiS5_S7_NS0_8equal_toIiEE13stl_allocatorIS6_L18MemLabelIdentifier1ELi16EEE9SelectKeyESA_SD_E13set_empty_keyERKS6_
VB:__ZN8Animator12CleanupClassEv
Ckd:_DecoderReplacementFallbackBuffer__ctor_m1305504326
rtc:__Z13TransferFieldI8JSONReadLb0E27Converter_SimpleNativeClassI10RectOffsetEEvRK23StaticTransferFieldInfoR31RuntimeSerializationCommandInfoRT1_
cid:_String_IndexOf_m570401060
RKd:_Enum_System_IConvertible_ToDateTime_m2924690746
$cb:__ZN11AssetBundle9AssetInfo8TransferI14SafeBinaryReadEEvRT_
OYd:_Dropdown_CreateBlocker_m4109366440
jBg:_HashAlgorithm_System_IDisposable_Dispose_m2106335965
Yvj:__GLOBAL__sub_I_GenericMetadata_cpp
__g:_RangeAttribute__ctor_m1657271662
pjc:__ZNK8GUIStyle4DrawER8GUIStateRK5RectTIfER10GUIContentib
mdj:__ZN6il2cpp6icalls8mscorlib6System8MonoType18GetFields_internalEP20Il2CppReflectionTypeiS5_
S0a:__Z24CalculateSpotLightBoundsffRK10Matrix4x4fR15SpotLightBounds
haf:_TailoringInfo__ctor_m2248501932
tQ:__ZN23CloudWebServicesManager23VirtualRedirectTransferER14SafeBinaryRead
kud:_FixedSizeArrayListWrapper_InsertRange_m2690348965
ADb:__Z19ShouldTransferFieldR32SerializationCommandQueueBuilder17ScriptingClassPtriR18TransferField_InfoRK20CoreScriptingClasses
sJg:_FieldInfo_get_IsStatic_m1411173225
O2e:_MemoryStream_Read_m2289595005
zL:__ZN5audio5mixer22UpdateAudioMixerMemoryERKNS0_18AudioMixerConstantERNS0_16AudioMixerMemoryEfPN4FMOD6SystemEf
JIc:__ZL21InitializeCachedStripPv
Zfi:_CustomEventData_Add_m4139356558
_rj:__ZN6il2cpp6icalls8mscorlib6System9Threading6Thread23GetCachedCurrentCultureEP12Il2CppThread
Zvh:_Selectable_get_allSelectables_m3045831006
oVa:__ZNK6Camera22GetWorldToCameraMatrixEv
Xzj:__ZN6il2cpp2vm12GenericClass11IsValueTypeEP18Il2CppGenericClass
PCb:__ZN13MonoBehaviour7SetNameEPKc
Eof:_ContentInfo__ctor_m3579805263
fvh:_ScrollRect_get_verticalNormalizedPosition_m1701804869
Bna:__ZN18AwakeFromLoadQueue5ClearEv
xgh:_Enumerator_get_Current_m2986380627_AdjustorThunk
D$a:__ZNSt3__27__sort5IR15ReflProbeSorterPP15ReflectionProbeEEjT0_S6_S6_S6_S6_T_
TZ:__ZN8Playable10DisconnectEPS_i
vk:_glGenTransformFeedbacks
Pra:__ZN13LoadOperationD2Ev
Yef:_KeyPairPersistence__ctor_m1817312194
C6d:_Array_InternalArray__ICollection_Contains_TisMark_t2724874473_m1640201705_gshared
Pla:__Z21PlayerStartFirstSceneb
KFg:_TypeBuilder_get_AssemblyQualifiedName_m2097258567
Eia:__ZNSt3__27__sort5IRPFbRKNS_4pairIN9ShaderLab16FastPropertyNameEN18UnityPropertySheet11UnityTexEnvEEES8_EPS6_EEjT0_SD_SD_SD_SD_T_
hza:__ZNK7ApiGLES18GetExtensionStringEv
WFa:__ZN31TransformFeedbackSkinPoseBufferD0Ev
CYj:_emscripten_glVertexAttrib1f__wrapper
nLa:__ZNK12HandlerChain4SizeERK13FileEntryData
Glh:_DefaultComparer_Equals_m1281232537_gshared
hp:FUNCTION_TABLE_iiiiiiiii
x2d:_InputField_set_asteriskChar_m619206227
nAg:_DES_IsSemiWeakKey_m3967392585
W5:__Z24GetComponentOrScriptNameRN5Unity9ComponentE
NCc:__Z22GetPhysicsGroundBody2Dv
_Xe:_Int16_System_IConvertible_ToUInt32_m883204517_AdjustorThunk
VMg:_MonoProperty_get_PropertyType_m1921201152
kXd:_FloatTween_TweenValue_m3881535116_AdjustorThunk
DGj:_GC_allochblk
h3c:__ZN22BaseUnityConnectClient19SendAppRunningEventEv
Ena:__Z15UnloadGameScenev
g1j:_glCheckFramebufferStatus__wrapper
Pkf:_BigInteger_get_Rng_m2525288368
Rvg:_BinaryCommon_IsPrimitive_m2132448955
Ax:__ZN7mecanim9animation14DeltasFromClipERKNS0_18ClipMuscleConstantERKNS0_12ClipBindingsERKNS_14ValueArrayMaskERNS_10ValueArrayESB_SB_
jGf:_X509ExtensionEnumerator_Reset_m3200687545
zvd:_CaseInsensitiveHashCodeProvider__ctor_m3775398833
gMh:_Comparer_1_System_Collections_IComparer_Compare_m674728644_gshared
Bdc:__Z36Renderer_Get_Custom_PropSortingOrderP12Il2CppObject
Mjj:__ZNK15dense_hashtableINSt3__24pairIK10KeyWrapperIPK10Il2CppTypeEjEES6_N6il2cpp8metadata14Il2CppTypeHashEN14dense_hash_mapIS6_jSB_NS6_14EqualsComparerINSA_26Il2CppTypeEqualityComparerEEENS0_9allocatorIS8_EEE9SelectKeyESF_SH_E13find_positionERS7_
Sca:__ZN7Texture5ResetEv
Lvc:__ZNK14b2CapsuleShape7RayCastEP15b2RayCastOutputRK14b2RayCastInputRK11b2Transformi
zJb:__Z18Transfer_BlittableI24GenerateTypeTreeTransferLb1EhEvRK29SerializationCommandArgumentsR31RuntimeSerializationCommandInfo
VGc:__ZN10Collider2D16TransformChangedEi
s9b:__ZNK16TypeTreeIterator10ByteOffsetEv
sae:_Array_FindLastIndex_TisIl2CppObject_m3885928623_gshared
ZZd:_Graphic_get_rectTransform_m2697395074
b8:__ZnwjRKSt9nothrow_t
es:__ZN8Animator11ClearObjectEv
fAb:__ZNSt3__26vectorIi13stl_allocatorIiL18MemLabelIdentifier12ELi16EEE8__appendEj
mDf:_X500DistinguishedName_Decode_m3070515374
Vga:__ZN14SafeBinaryRead19TransferSTLStyleMapINSt3__23mapI39DeprecatedFastPropertyNameSerializationN18UnityPropertySheet11UnityTexEnvENS1_4lessIS3_EENS1_9allocatorINS1_4pairIKS3_S5_EEEEEEEEvRT_17TransferMetaFlags
Ifc:__Z45Register_UnityEngine_MonoBehaviour_IsInvokingv
ZWh:__Z65RuntimeInvoker_Void_t1841601450_Int64_t909078037_Int64_t909078037PK10MethodInfoPvPS2_
XAf:_IPv6Address_set_ScopeId_m1442934355
gxg:_ObjectManager_RaiseOnDeserializedEvent_m512850179
g8b:__Z35UnregisterSerializationCacheBuilderPFv17ScriptingClassPtrR23CachedSerializationDataRbE
vfa:__Z30GetBuiltinVectorParamArraySize24BuiltinShaderVectorParam
V9e:_CodePointIndexer__ctor_m797342079
Gqb:__ZN21RendererUpdateManager11AddRendererER8Renderer
vZb:__Z13RegisterClassI15ResourceManagerEvv
Utb:__ZN14SafeBinaryRead21TransferSTLStyleArrayI13dynamic_arrayIfLj4EEEEvRT_17TransferMetaFlags
rAj:__ZN6il2cpp5utils11StringUtils11Utf16ToUtf8EPKDs
wLg:_MonoEventInfo_GetEventInfo_m2331957186
p4c:__ZN11UnityEngine15PlatformWrapper20IsRootedOrJailbrokenEv
ODf:_X509Certificate2_GetNameInfo_m402390219
N0a:__Z33IntersectAABBPlaneBoundsOptimizedRK4AABBPKN4math7_float4Ei
Ynd:_Swapper_BeginInvoke_m2652511022
y0g:_RectOffset_t3387826427_marshal_pinvoke_back
f4g:_UTF8Encoding_GetBytes_m2973831055
Tua:__ZN9GfxDevice19EndGeometryJobFrameEv
FSe:_Comparison_1_Invoke_m2645957248_gshared
uJb:__ZN27Converter_SimpleNativeClassI17AnimationCurveTplIfEE17ScriptingToNativeER18ScriptingObjectPtrPS1_
mZh:__Z197RuntimeInvoker_Boolean_t3825574718_Il2CppObject_Il2CppObject_Il2CppObject_Int32_t2071877448_DateTimeU26_t3448131235_SByte_t454417549_BooleanU26_t3168250738_SByte_t454417549_ExceptionU26_t1467204777PK10MethodInfoPvPS2_
uMj:__ZN6il2cpp8metadata24Il2CppGenericInstCompare7CompareERK10KeyWrapperIPK17Il2CppGenericInstES8_
T6i:__ZNK15dense_hashtableINSt3__24pairIK10KeyWrapperIPK19Il2CppGenericMethodEPK26Il2CppGenericMethodIndicesEES6_N6il2cpp8metadata23Il2CppGenericMethodHashEN14dense_hash_mapIS6_SA_SE_NS6_14EqualsComparerINSD_26Il2CppGenericMethodCompareEEENS0_9allocatorISB_EEE9SelectKeyESI_SK_E5beginEv
o_d:_Graphic_get_materialForRendering_m2600868951
Lsi:_AnimatorControllerPlayable_INTERNAL_CALL_PlayInternal_m3496633968
G5b:__ZN9Polygon2D7DefaultEv
SFe:_Collection_1_System_Collections_IList_Contains_m3210868188_gshared
VHa:__ZN9GfxDevice22UploadTextureCubeArrayE9TextureIDPKhjii13TextureFormati18TextureUploadFlags17TextureColorSpace
S_b:__ZNK17AnimationCurveTplIfE8EvaluateEfPNS0_5CacheE
oNa:__Z31ManagerContextInitializeClassesv
lUe:_NumberFormatter_AppendIntegerString_m868842252
xOf:__ZL53SortedList_t3004938869_CustomAttributesCacheGeneratorP21CustomAttributesCache
uLc:_UNITY_FT_List_Finalize
DWa:__Z20LightAttenuateApproxRKfS0_
a3:__ZN9Scripting30SetCachedPtrOnScriptingWrapperE18ScriptingObjectPtrP6Object
aI:__ZNK12AudioManager26GetTypeInfoVirtualInternalEv
bMb:__Z18Transfer_BlittableI19StreamedBinaryWriteILb0EELb0EdEvRK29SerializationCommandArgumentsR31RuntimeSerializationCommandInfo
Tjd:_ASCIIEncoding_GetBytes_m3649277167
YPg:_GUILayoutUtility_Internal_GetWindowRect_m1287880151
dyc:__ZN16b2PrismaticJoint4DumpEv
m4h:__Z49RuntimeInvoker_Il2CppObject_Il2CppObject_IntPtr_tPK10MethodInfoPvPS2_
s8e:_MonoType_GetObjectData_m2888677152
zqa:__ZN18BlockRangeInternal16PopLastNodeIndexEP10BlockRangeji
jdh:_Version__ctor_m2972638031
bne:_Enumerator_System_Collections_IEnumerator_Reset_m886102771_AdjustorThunk
ldf:_Kernel_MultiplyByDword_m155008287
jtb:__ZN4MeshD0Ev
A7c:__ZL42RequestRecreateEyeTexturesBeforeNextUpdatev
Lea:__ZNK6Camera20IsCurrentlyRenderingEv
Gqh:_LayoutUtility_U3CGetMinHeightU3Em__4_m1769295917
Q$c:__Z36CanvasRenderer_CUSTOM_SetPopMaterialP12Il2CppObjectS0_i
qqc:__Z18Transfer_BlittableI9JSONWriteLb0EdEvRK29SerializationCommandArgumentsR31RuntimeSerializationCommandInfo
Bxc:__ZNK11b2GearJoint16GetReactionForceEf
LMe:_ReadOnlyCollection_1_System_Collections_IList_Insert_m3679749778_gshared
lzh:_Toggle_OnDidApplyAnimationProperties_m325835214
COj:_wctomb
dri:_AnimatorControllerPlayable_INTERNAL_CALL_IsParameterControlledByCurveString_m1715379406
qbc:__Z27Camera_CUSTOM_GetAllCamerasP11Il2CppArray
Czd:_Convert_InternalFromBase64String_m3682756716
cd:___cxa_rethrow
Orc:__Z18Transfer_BlittableI8JSONReadLb1EhEvRK29SerializationCommandArgumentsR31RuntimeSerializationCommandInfo
ZEc:__ZN18Overlap2DQueryBase13ReportFixtureEP9b2Fixture
aDi:_Regex_System_Runtime_Serialization_ISerializable_GetObjectData_m4035555909
f7g:_TimeSpan_Add_m3228293154
Jlh:_DefaultComparer_Equals_m4098991076_gshared
y4a:__ZN13MonoBehaviour8SetClassE17ScriptingClassPtr18ScriptingObjectPtr
jof:_RC4__cctor_m523650203
gyi:_CrossContextDelegate_Invoke_m2908136830
CW:__ZN20LocalFileSystemPosix4ReadER13FileEntryDatayyPvPy
c_a:__ZNSt3__211__sift_downIRN23ForwardShaderRenderLoop18RenderObjectSorterILb0EEEP21ForwardRenderPassDataEEvT0_S7_T_NS_15iterator_traitsIS7_E15difference_typeES7_
Q5e:_UnmanagedMemoryStream_get_Position_m4093669769
bVj:dynCall_iiiiiiffiiiiiiiiiffffiiii
dDb:__ZN13MonoBehaviour5DoGUIENS_13GUILayoutTypeEii
EFg:_DerivedType_IsDefined_m555719351
sAi:_Mark_get_IsDefined_m3332701456
abb:__ZNK12TLSAllocatorI14StackAllocatorE8ContainsEPKv
Lxb:__ZN11TimeManager8TransferI18StreamedBinaryReadILb0EEEEvRT_
GWb:__ZN15SerializeTraitsINSt3__23mapI4PPtrI6ShaderEN4core12basic_stringIcNS5_20StringStorageDefaultIcEEEENS0_4lessIS4_EENS0_9allocatorINS0_4pairIKS4_S9_EEEEEEE8TransferI24GenerateTypeTreeTransferEEvRSH_RT_
yAg:_DESTransform__cctor_m1179482644
xtb:__ZN14BlendShapeData8TransferI14SafeBinaryReadEEvRT_
jMi:_TextGenerator_PopulateWithErrors_m467881283
aLd:_Enum_Format_m2294492821
Zmb:__ZN7Texture25ReloadFromStorageIfNeededEPvb
AAb:__ZN24GenerateTypeTreeTransfer8TransferINSt3__26vectorIN30RuntimeInitializeOnLoadManager15ClassMethodInfoE13stl_allocatorIS4_L18MemLabelIdentifier12ELi16EEEEEEvRT_PKc17TransferMetaFlags
Peh:_ShimEnumerator_get_Entry_m2332479818_gshared
XFd:_DateTime_CheckDateTimeKind_m329345155_AdjustorThunk
CWc:_Update_Max
bti:_PlayableHandle_Equals_m1435096530_AdjustorThunk
Nrj:__ZN6il2cpp6icalls8mscorlib6SystemL15ThrowNoWideningEv
a$b:__ZNK23TransformChangeDispatch24GetChangeMaskForInterestENS_12InterestTypeE
Xhc:__Z45Transform_CUSTOM_INTERNAL_CALL_TransformPointP12Il2CppObjectRK8Vector3fRS1_
AFe:__ZN23InterfaceActionInvoker2Ii18Color32_t874517518E6InvokeEjP11Il2CppClassP12Il2CppObjectiS0_
Fab:__ZL10KeyHandleriPK23EmscriptenKeyboardEventPv
W8i:__ZN14dense_hash_mapI10KeyWrapperI13dynamic_arrayIPK10Il2CppTypeLj4EEEPFvvEN6il2cpp8metadata19Il2CppSignatureHashENS6_14EqualsComparerINSA_22Il2CppSignatureCompareEEENSt3__29allocatorINSF_4pairIKS6_S8_EEEEEC2EjRKSB_RKSE_
sha:__ZNSt3__26__treeINS_12__value_typeI39DeprecatedFastPropertyNameSerializationfEENS_19__map_value_compareIS2_S3_NS_4lessIS2_EELb1EEENS_9allocatorIS3_EEE7destroyEPNS_11__tree_nodeIS3_PvEE
_Pc:_tt_cmap4_char_index
nii:_AsyncOperation_get_allowSceneActivation_m2825451182
G7g:_TimeSpan_op_Addition_m3421801803
xLa:__ZNK12HandlerChain8IsHiddenERK13FileEntryData
fmg:__ZL50Graphic_t2426225576_CustomAttributesCacheGeneratorP21CustomAttributesCache
OIb:__ZL26Transfer_SimpleNativeClassI17RemapPPtrTransfer10RectOffsetLb0EEvRK29SerializationCommandArgumentsR31RuntimeSerializationCommandInfo
XLc:__Z14ValidateFormatR13dynamic_arrayIN20TextRenderingPrivate16TextFormatChangeELj4EE
JOi:_Vector2_op_Implicit_m1064335535
ZEd:_DateTime_System_IConvertible_ToInt32_m2789391054_AdjustorThunk
Vdf:_ASN1Convert_FromInt32_m1541043489
fSd:_PointerInputModule_ProcessMove_m3200120346
jAd:_Convert_ToByte_m1008221737
knf:_MD2Managed_MD2Transform_m3825201358
Nng:__ZL69Scrollbar_t3248359358_CustomAttributesCacheGenerator_m_OnValueChangedP21CustomAttributesCache
fCc:__ZN10ClipperLib14PointInPolygonERKNS_8IntPointEPNS_5OutPtE
rYd:_Dropdown_AddOptions_m835420907
GPi:_Vector4_get_sqrMagnitude_m2115578799_AdjustorThunk
xfa:__ZNK9ShaderLab20ShaderBlendStateDesc15ToGfxBlendStateEPK19ShaderPropertySheetS3_R13GfxBlendState
HVd:_CanvasUpdateRegistry_IsRebuildingLayout_m1677873278
EDc:__ZN15dense_hashtableINSt3__24pairIKNS1_IPK10Collider2DS4_EE11Collision2DEES5_NS2_23ColliderPairHashFunctorEN14dense_hash_mapIS5_S7_S9_NS0_8equal_toIS5_EE13stl_allocatorIS8_L18MemLabelIdentifier65ELi16EEE9SelectKeyESC_SF_E9copy_fromERKSI_j
aw:__ZN11UnityEngine9AnimationL22GenericBindingCallbackEPvS1_i
kWc:_Compute_Point_Displacement
qWb:__ZN9ShaderLab9IntShaderC2Ev
fej:__ZN6il2cpp6icalls8mscorlib6SystemL9IsPrivateEPK9EventInfo
WKj:__ZN6il2cpp6icalls8mscorlib6System10Reflection4Emit11TypeBuilder20setup_internal_classEP27Il2CppReflectionTypeBuilderS7_
hRg:_RectOffset_set_left_m620681523
h_g:_Physics2D_Raycast_m2560154475
ZAh:_ArrayReadOnlyList_1_IndexOf_m1809425308_gshared
Tfj:_il2cpp_gc_disable
lE:__Z69AnimatorControllerPlayable_CUSTOM_INTERNAL_CALL_GetLayerIndexInternalR9HPlayableP12Il2CppString
QQd:_ExecuteEvents_U3Cs_HandlerListPoolU3Em__0_m2903690915
pxd:_Hashtable_Clone_m165405752
gyc:__ZN16b2PrismaticJoint24SolveVelocityConstraintsERK12b2SolverData
xmi:_Component_BroadcastMessage_m444672650
K3c:__ZN11UnityEngine15PlatformWrapper19GetPhysicalMemoryMBEv
GX:__Z15CreateDirectoryRKN4core12basic_stringIcNS_20StringStorageDefaultIcEEEE
Goa:__Z21CalculateGlobalMatrix23TransformAccessReadOnly
iNf:__ZL70InternalsVisibleToAttribute_t1037732567_CustomAttributesCacheGeneratorP21CustomAttributesCache
v0e:_MonoIO_GetCurrentDirectory_m1509324201
s3g:_UTF32Encoding_GetHashCode_m4205784236
tZb:__Z13RegisterClassI14RenderSettingsEvv
RLi:_TextGenerator_Finalize_m4242493229
dCe:_Collection_1_ConvertItem_m3563206219_gshared
D7g:_TimeSpan_Subtract_m3597791685_AdjustorThunk
vsi:_AnimatorControllerPlayable_CrossFade_m3146661810
cz:__ZN7mecanim12statemachine24CreateStateMachineOutputEPKNS0_20StateMachineConstantEjRNS_6memory9AllocatorE
KWg:_Logger__ctor_m3834134587
dfj:_il2cpp_assembly_get_image
qva:__ZNK9GfxDevice27GetActiveRenderSurfaceWidthEv
b8d:_SetPropertyUtility_SetClass_TisIl2CppObject_m3524554928_gshared
Ocb:__ZNK11AssetBundle26GetTypeInfoVirtualInternalEv
QHi:_PKCS12_get_Keys_m1312614820
a4c:__ZN11UnityEngine15PlatformWrapper28GetCleanGraphicsFixedVersionEv
w:tempBigIntP
Whj:__ZN6il2cpp2vm4Type7GetTypeEPK10Il2CppType
j0g:_Rect_Contains_m1334685291_AdjustorThunk
I$b:__ZN16SpriteRenderData28PrepareRenderingDataIfNeededEv
bod:_AssemblyLoadEventHandler_Invoke_m108373765
a5h:__Z64RuntimeInvoker_Boolean_t3825574718_Il2CppObject_Int64_t909078037PK10MethodInfoPvPS2_
eSd:_PointerInputModule_ShouldStartDrag_m4163638715
x2i:__ZL24UnresolvedVirtualCall_76P12Il2CppObjectPK10MethodInfo
Kka:__ZN6prcoreL17RemapGenericFloatI18TexFormatRGBAFloat17TexFormatRGBAHalfEEvPKNS_9InnerInfoE
SQa:__Z16FindCameraStacksRKNSt3__24listI4PPtrI6CameraENS_9allocatorIS3_EEEERNS_6vectorI11CameraStackNS4_ISA_EEEE
iQi:_WebRequestUtils__cctor_m893658947
Oob:__ZN10GISettings8TransferI14SafeBinaryReadEEvRT_
yn:FUNCTION_TABLE_vifff
oPe:_ReadOnlyCollection_1_System_Collections_Generic_ICollectionU3CTU3E_Remove_m2957273994_gshared
ZOd:_BaseInputModule_ShouldActivateModule_m2899747874
ada:__ZN13RenderTexture13ApplySettingsEv
af:_JS_Sound_SetListenerPosition
rn:FUNCTION_TABLE_fiffi
VIg:_ModuleBuilderTokenGenerator_GetToken_m3427457873
nCb:__ZN9TextAsset9SetScriptERKN4core12basic_stringIcNS0_20StringStorageDefaultIcEEEEb
mwh:_Selectable_get_isPointerInside_m3162215687
Upe:_List_1_System_Collections_IList_Contains_m149594880_gshared
n0g:_Rect_Overlaps_m4145874649
Kch:_UnauthorizedAccessException__ctor_m3480402128
idf:_BigInteger_op_Modulus_m3788401748
Iyi:_ArgInfo_GetInOutArgs_m3184132151
Oma:__ZNK8Material16MarkDependenciesER27GarbageCollectorThreadState
sqc:__ZL17Transfer_GUIStyleI9JSONWriteLb0EEvRK29SerializationCommandArgumentsR31RuntimeSerializationCommandInfo
CUa:__Z28GetHaloVertexPositionsStereoP8Vector3fRKS_S2_f
Ala:__ZN6prcoreL27StretchGenericFloatBilinearI15TexFormatRGHalfEEvPKNS_9InnerInfoE
Nme:_Enumerator_MoveNext_m598197344_AdjustorThunk
Gni:_DisplaysUpdatedDelegate_Invoke_m3646339243
Rid:_String_JoinUnchecked_m1880555587
Ofa:__ZNK9ShaderLab7Program21GetMatchingSubProgramEPK6ShaderPKNS_4PassERK16ShaderKeywordSetjPS7_R19ShaderSnippetResult
gee:_Array_InternalArray__Insert_TisKeyValuePair_2_t1174980068_m2464431954_gshared
wgc:__Z49Register_UnityEngine_Resources_GetBuiltinResourcev
kQc:_tt_cmap10_char_index
nYd:_Dropdown_Awake_m335654827
qkh:_Dictionary_2_U3CCopyToU3Em__0_m1479035402_gshared
gvd:_BitArray_set_Item_m3801461194
q$i:__ZN15dense_hashtableINSt3__24pairIK10KeyWrapperIPK22Il2CppGenericParameterEP11Il2CppClassEES6_N6il2cpp5utils11PointerHashIS4_EEN14dense_hash_mapIS6_S9_SE_NS6_14EqualsComparerINS0_8equal_toIS5_EEEENS0_9allocatorISA_EEE9SelectKeyESJ_SL_E3endEv
Bid:_String_Remove_m3580114465
YUb:__ZN9ShaderLab22SerializedBindChannels8TransferI19StreamedBinaryWriteILb0EEEEvRT_
_kc:__ZN5IMGUI20MoveWindowFromLayoutER8GUIStateiRK5RectTIfE
qRf:__ZL56ParameterInfo_t2249040075_CustomAttributesCacheGeneratorP21CustomAttributesCache
lch:_UIntPtr__ctor_m2737768530
ALc:_UNITY_FT_Stream_ReadUShort
K2d:_InputField_OnEnable_m3797157569
Pcc:__Z51Register_UnityEngine_GUILayer_INTERNAL_CALL_HitTestv
cjc:__Z50Register_UnityEngine_Object_FindSceneObjectsOfTypev
Tga:__ZNSt3__26__treeINS_12__value_typeIN4core12basic_stringIcNS2_20StringStorageDefaultIcEEEES6_EENS_19__map_value_compareIS6_S7_NS_4lessIS6_EELb1EEE13stl_allocatorIS7_L18MemLabelIdentifier1ELi16EEE7destroyEPNS_11__tree_nodeIS7_PvEE
mRi:_Nullable_1__ctor_m796575255_gshared
qFj:__ZN6il2cpp2vm8Profiler7GCEventE13Il2CppGCEvent
hFd:_DateTimeUtils_ToString_m3878360633
Mrj:__ZN6il2cpp6icalls8mscorlib6SystemL16ThrowInvalidCastEPK11Il2CppClassS5_
fKh:_InternalEnumerator_1_get_Current_m3732458101_AdjustorThunk
Oyb:__ZN12AspectRatios8TransferI24GenerateTypeTreeTransferEEvRT_
Kfi:_CustomEventData_AddUInt64_m1437973832
vTd:_TouchInputModule_Process_m1373751353
Sf:_emscripten_glUniform1fv
nQd:_ExecuteEvents_Execute_m898902863
lJ:__ZN4FMOD7Channel7setModeEj
pFg:_DerivedType_InvokeMember_m4149586013
Sxf:_TlsStream_SetLength_m1460039587
flc:__ZN11IMGUIModule12AddGUIScriptER8ListNodeI13MonoBehaviourE
qb:invoke_difi
A7:__ZL50StaticRegisterSceneLoadedCallback_LightmapSettingsPv
Qm:FUNCTION_TABLE_iiffi
t$d:_GridLayoutGroup_get_cellSize_m1061731753
_za:__ZN21GLESGpuProgramApplier11ApplyVectorERKN20GpuProgramParameters14ValueParameterEPK8Vector4ft
n0a:__Z17PrepareSceneNodesP11CullResults
NPi:_Vector4_ToString_m2340321043_AdjustorThunk
YEi:_Parser_IsIgnoreCase_m4155598997
zSc:_cff_size_done
URa:__ZN22RenderingCommandBuffer13GetAndCheckRTE24BuiltinRenderTextureTypeRKN9ShaderLab16FastPropertyNameEPKcPP13RenderTexture
G6a:__ZN6Camera34UpdatePreviousViewProjectionMatrixEv
Rfa:__ZN9ShaderLab11ShaderState25RemoveUnsupportedProgramsEPK6Shader
JVb:__ZL23AddGpuProgramParametersR20GpuProgramParametersRKNSt3__26vectorIN9ShaderLab20SerializedSubProgram15MatrixParameterENS1_9allocatorIS5_EEEERKNS2_INS4_15VectorParameterENS6_ISB_EEEEiP16PropertyNamesSet
Wic:__Z44Register_UnityEngine_Object_DestroyImmediatev
$bc:__Z47Register_UnityEngine_Component_BroadcastMessagev
Cr:__ZN18StreamedBinaryReadILb0EE21TransferSTLStyleArrayI13dynamic_arrayI4PPtrI6ObjectELj4EEEEvRT_17TransferMetaFlags
zSf:__ZL62_ConstructorBuilder_t1236878896_CustomAttributesCacheGeneratorP21CustomAttributesCache
x8b:__Z26scripting_class_has_parent17ScriptingClassPtrS_
SZe:_Int64_System_IConvertible_ToInt16_m2022633688_AdjustorThunk
L9e:_OrdinalComparer__ctor_m2952942058
ANj:__ZN6il2cpp8metadata25Il2CppGenericClassCompare7CompareEPK18Il2CppGenericClassS4_
Gu:__ZNK8Animator20IsInMatchTargetStateEv
Fm:FUNCTION_TABLE_viiifiii
Mlc:__Z36Register_UnityEngine_GUI_set_changedv
Ofd:_Encoding_get_Unicode_m1382741113
Uwi:_LifetimeServices_set_SponsorshipTimeout_m1403222216
ysd:_Char_ToString_m1401375624_AdjustorThunk
Ybe:_Array_InternalArray__ICollection_Add_TisTableRange_t2011406615_m147373358_gshared
pBd:_Convert_ToDateTime_m1251728572
_be:_Array_InternalArray__ICollection_Add_TisBoolean_t3825574718_m1009318882_gshared
jQe:_ReadOnlyCollection_1_System_Collections_IList_set_Item_m1149349508_gshared
Oy:__ZN27AnimationLayerMixerPlayable18SetInputConnectionEP8Playablei
onc:__Z42Register_UnityEngine_GUIStyle_get_wordWrapv
Iwg:_ObjectReader_ReadObjectContent_m3949770110
tmi:_Component_SendMessage_m4199581575
_sa:__ZZ19InitializeGfxDevice20GfxCreateDeviceFlagsEN38PreLateUpdateEndGraphicsJobsLatestruct7ForwardEv
a1i:__ZN6il2cpp2vm5Class40GetInterfaceInvokeDataFromVTableSlowPathEPK12Il2CppObjectPK11Il2CppClassj
vkb:__ZN20TierGraphicsSettings8TransferI18StreamedBinaryReadILb0EEEEvRT_
cyh:_Text_get_font_m3115501113
Wqj:__GLOBAL__sub_I_Thread_cpp
cha:__ZN14SafeBinaryRead8TransferINSt3__24pairIN9ShaderLab16FastPropertyNameE10ColorRGBAfEEEEvRT_PKc17TransferMetaFlags
hXi:__ZL9rshift128PyS_
Cwg:_ObjectReader_RecordFixup_m1893348030
jGg:_EnumBuilder_GetElementType_m1228393631
Koj:__ZN14dense_hash_mapI10KeyWrapperINSt3__24pairIPK12PropertyInfoP11Il2CppClassEEEj17ReflectionMapHashIS8_ENS9_14EqualsComparerINS1_8equal_toIS8_EEEENS1_9allocatorINS2_IKS9_jEEEEE13set_empty_keyERSH_
gk:_glRenderbufferStorage
Cyj:__ZNK15dense_hashtableINSt3__24pairIK10KeyWrapperINS1_IPKcS4_EEEiEES6_24NamespaceAndNamePairHashN14dense_hash_mapIS6_iS9_NS6_14EqualsComparerI26NamespaceAndNamePairEqualsEENS0_9allocatorIS8_EEE9SelectKeyESD_SF_E13find_positionERS7_
aJf:__ZL43Il2CppObject_CustomAttributesCacheGeneratorP21CustomAttributesCache
oec:__Z45Register_UnityEngine_Input_get_touchSupportedv
e4c:__ZN11UnityEngine15PlatformWrapper28GetTextureFormatSupportFlagsEv
aOc:_UNITY_FT_Create_Class_pshinter_module_class
_hd:_String_CompareOrdinalCaseInsensitiveUnchecked_m2002640463
Spd:_Boolean_GetHashCode_m1894638460
cTc:_cf2_setError
K3g:_UTF7Encoding_InternalGetChars_m4157428055
zoa:__Z33InterpolateLightProbeCoefficientsRK17LightProbeContextRK29LightProbeSamplingCoordinatesR20SphericalHarmonicsL2
uff:_SmallXmlParser_HandleBufferedContent_m3397096753
eh:_glDisable
S3d:_InputField_OnDeselect_m3963675647
$0c:__Z44Register_UnityEngine_Canvas_get_pixelPerfectv
MAj:__ZN6il2cpp5utils11StringUtils15StringDuplicateEPKDsj
AGf:_BaseMachine_Scan_m122450399
Nsi:_AnimatorControllerPlayable_PlayInternal_m3385259863
ktd:_ArrayList_CopyTo_m2353632788
w7:__ZNSt3__26vectorINS_4pairIyP17VertexDeclarationEENS_9allocatorIS4_EEE6assignIPS4_EENS_9enable_ifIXaasr21__is_forward_iteratorIT_EE5valuesr16is_constructibleIS4_NS_15iterator_traitsISB_E9referenceEEE5valueEvE4typeESB_SB_
_9h:__Z100RuntimeInvoker_Int32_t2071877448_Il2CppObject_Color32_t874517518_Int32_t2071877448_Int32_t2071877448PK10MethodInfoPvPS2_
ZXa:__ZNK8Material12GetPassCountEv
Qyd:_Enumerator__cctor_m3784927209
H1j:b110
I1j:b111
J1j:b112
CSj:_bitshift64Ashr
M1j:b114
N1j:b115
O1j:b116
Fga:__ZNK8Material26GetTypeInfoVirtualInternalEv
fGc:__ZN11Rigidbody2D23VirtualRedirectTransferER14SafeBinaryRead
A$b:__ZN14SpriteRenderer12CleanupClassEv
ABa:__ZN4crnd12crn_unpacker22decode_alpha_endpointsEv
n1a:__Z23CullDynamicObjectsUmbraPK4AABBPKN5Umbra15OcclusionBufferER9IndexList
$Pc:_tt_cmap4_char_next
m$:__ZN17DirectorFrameTime14ResetDSPValuesEv
QGi:_GeneralNames_ToString_m800435094
vUd:_BaseMeshEffect_OnDidApplyAnimationProperties_m2484799839
$jd:_ASCIIEncoding_GetString_m3931709239
O_a:__ZN23ForwardShaderRenderLoopD2Ev
jah:_UInt16_Parse_m3560204090
Vtc:__ZN8JSONRead21TransferSTLStyleArrayI13dynamic_arrayIsLj2EEEEvRT_18MemLabelIdentifier17TransferMetaFlags
ZI:__ZN4FMOD7Channel11setPositionEjj
Yh:_glBindSampler
z8:__Z22CreateMutexLockedQueuev
yRe:_ReadOnlyCollection_1_System_Collections_Generic_ICollectionU3CTU3E_Clear_m964488020_gshared
$h:_glGetVertexAttribiv
ace:_Array_InternalArray__ICollection_Add_TisChar_t3454481338_m422084244_gshared
KYc:__ZN2UI11CanvasGroup23VirtualRedirectTransferER18StreamedBinaryReadILb0EE
nri:_AnimatorControllerPlayable_GetLayerName_m2571001466
atc:__ZN8JSONRead8TransferIbEEvRT_PKc17TransferMetaFlagsb
tWg:_DefaultValueAttribute_Equals_m3216982933
HCf:_X509KeyUsageExtension_Decode_m3292847033
M7:__ZN26SharedLightmapSettingsDataD2Ev
YKg:_Module_filter_by_type_name_ignore_case_m3574895736
yob:__ZN26CustomRenderTextureManager19PreAllocateMaterialEP19CustomRenderTexture
iwg:_ObjectReader_ReadObject_m397855326
lGj:_GC_promote_black_lists
u0d:_Image_get_fillAmount_m3354146540
Ntc:__Z29Transfer_Blittable_ArrayFieldI8JSONRead8Vector4fEvRT_R9ArrayInfoRK23StaticTransferFieldInfo
cMc:__ZNK13TextRendering4Font9GetAscentEv
Zn:FUNCTION_TABLE_vf
yo:FUNCTION_TABLE_vd
S8g:_Type_GetMethod_m1930231379
Ao:FUNCTION_TABLE_vi
uvg:_WellKnownServiceTypeEntry_ToString_m493996021
Kaf:_SimpleCollator_GetContraction_m1391584430
Vpd:_CultureInfo_get_InvariantCulture_m398972276
vpd:_Boolean_System_IConvertible_ToInt64_m4142756949_AdjustorThunk
PC:__ZNK8Animator17HasBoundPlayablesEv
UFc:__ZN17Physics2DSettings8TransferI24GenerateTypeTreeTransferEEvRT_
_mf:_HMAC_initializePad_m3828610671
Iad:_RSAParameters_t1462703416_marshal_pinvoke_cleanup
lii:_AsyncOperation_get_priority_m966065939
va:invoke_iiifiii
Ssj:__ZN6il2cpp2vm9Exception11FromNameMsgEPK11Il2CppImagePKcS6_S6_
B8g:_Type_internal_from_name_m1506974323
hn:FUNCTION_TABLE_fiiifii
iC:__ZN10HumanTrait15InitializeClassEv
B$:__Z14GetTimeManagerv
BYb:__ZneRK20SpriteTilingPropertyS1_
g2h:__Z67RuntimeInvoker_Void_t1841601450_Scene_t1684909666_Int32_t2071877448PK10MethodInfoPvPS2_
Kgb:__Z12GUIDToStringRK9UnityGUIDPc
meb:__ZN15FileSystemEntry4LockE12FileLockModeP12FileAccessor
J5d:_Array_get_swapper_TisIl2CppObject_m1701356863_gshared
oM:__ZN11AudioSource22UnmuteActiveVideoSinksEv
JAj:__ZN4utf88internal20is_overlong_sequenceIiEEbjT_
Ui:_glReadBuffer
Aud:_SynchronizedArrayListWrapper_get_Count_m4104930530
fZa:__Z30SetupBakedOcclusionForGeometrybRK26SharedLightmapSettingsDataRK15LightmapIndicesR17ShaderPassContext
Qdd:_SecurityPermission_IsSubsetOf_m1087302418
fcc:__Z41Register_UnityEngine_Cursor_get_lockStatev
EYa:__Z14SetupLightmapsRK8Vector4fS1_R17ShaderPassContext
mIf:_Interval_get_Empty_m3170923997
R_b:__Z20DestroyObjectDelayedP6Objectf
UU:__ZN20DynamicHeapAllocatorI17LowLevelAllocatorED0Ev
f3d:_InputField_OnDrag_m726194348
OBc:__ZN10ClipperLib11ClipperBase5ResetEv
Sbf:_PreviousInfo__ctor_m1442166472_AdjustorThunk
RVa:__ZN9DepthPassD2Ev
TH:__ZN11AudioFilter6GetDSPEv
F5i:__ZN13Il2CppHashMapIPKcP11Il2CppClassN6il2cpp5utils11StringUtils12StringHasherIS1_EENS6_21CaseSensitiveComparerENSt3__29allocatorINSA_4pairIK10KeyWrapperIS1_ES3_EEEEEC2EjRKS8_RKS9_
UKc:__ZN20TextRenderingPrivate15DynamicFontData36GetFaceForCharacterIfAvailableInFontERKNS_7FontRefERKNSt3__26vectorI4PPtrIN13TextRendering4FontEE13stl_allocatorIS9_L18MemLabelIdentifier34ELi16EEEEj
G1:__ZN19RuntimeSceneManager14CanUnloadSceneEP10UnityScene
fWa:__Z22ExtractRenderNodeQueueRK11CullResults15ExtractionFlagsR15RenderNodeQueue
Vfe:_Array_InternalArray__set_Item_TisContentType_t1028629049_m703420360_gshared
bBe:_List_1_set_Item_m1431784996_gshared
fH:__ZN24AudioScriptBufferManagerC2Ev
Wuc:__ZN11UnityEngine9Analytics18SceneLoadTimeEvent12ToJsonStringER9JSONWrite
uKc:__ZNSt3__26vectorIh13stl_allocatorIhL18MemLabelIdentifier1ELi16EEE8__appendEj
xKc:__ZN20TextRenderingPrivate8FontImpl16ResetPackingDataEv
T6g:_TimeSpan_get_Hours_m3804628138_AdjustorThunk
Rae:_Array_InternalArray__IndexOf_TisLink_t865133271_m3612939760_gshared
Apc:__Z18Transfer_BlittableI9JSONWriteLb0EfEvRK29SerializationCommandArgumentsR31RuntimeSerializationCommandInfo
nda:__Z21GetAsyncUploadManagerv
Lj:_emscripten_glDetachShader
qch:_UIntPtr__cctor_m889490270
S9e:_SafeHandleZeroOrMinusOneIsInvalid_get_IsInvalid_m2033528032
ksd:_Char_IsUpper_m4083577610
MAa:__ZN17GenericDynamicVBO20ReleaseChunkInternalERK21DynamicVBOChunkHandlejj
nXc:__ZL27CleanupModule_TextRenderingv
R9e:_SafeHandleZeroOrMinusOneIsInvalid__ctor_m3340306667
cPj:_fmodl
Btg:_SerializationInfo_AddValue_m902275108
qPj:_fmodf
eNb:__Z18Transfer_BlittableI18StreamedBinaryReadILb1EELb1E4AABBEvRK29SerializationCommandArgumentsR31RuntimeSerializationCommandInfo
kea:__ZN12CachedWriter11Align4WriteEv
iXa:__Z20DoDeferredRenderLoopR17RenderLoopContextR13dynamic_arrayI16RenderObjectDataLj4EES4_RK11CullResultsRP13RenderTextureSA_Pb
Ura:__ZN19RuntimeSceneManager11CreateSceneEv
xyg:_RuntimeTypeHandle__ctor_m235560320_AdjustorThunk
pSc:_ps_get_standard_strings
XEe:_Collection_1_IsValidItem_m1908012838_gshared
eZa:__Z27SetupBakedOcclusionForLightbRK15SharedLightDataR17ShaderPassContext
XLj:__ZN6il2cpp2os5Mutex6UnlockEv
qvh:_ScrollRect_OnScroll_m3346515304
Jne:_Enumerator_System_Collections_IEnumerator_get_Current_m3461301268_gshared
ijh:_Dictionary_2_CopyToCheck_m1638253305_gshared
qRa:__Z18RenderImageFiltersR10RenderLoopb
GU:__Z19free_alloc_internalPv18MemLabelIdentifier
fgb:__ZNK23ArchiveStorageConverter16GetDirectoryInfoEv
M$c:__Z43CanvasRenderer_Get_Custom_PropMaterialCountP12Il2CppObject
Q4a:__ZN10GameObjectD2Ev
DMe:_ReadOnlyCollection_1_System_Collections_Generic_IListU3CTU3E_set_Item_m25653560_gshared
qog:__ZL68Selectable_t1490392188_CustomAttributesCacheGenerator_m_InteractableP21CustomAttributesCache
_Ab:__ZN33AssetBundleLoadFromAsyncOperation12IsCrc32ValidEv
Vli:_Color32_op_Implicit_m889975790
mpi:_UnityEventBase_RebuildPersistentCallsIfNeeded_m1583202007
_of:_CertificateSelectionCallback_Invoke_m2902629105
a7:__ZN10InputEventD2Ev
nVe:_DateTimeFormatInfo_GetAllDateTimePatternsInternal_m1587126173
vOi:_Vector2_ToString_m775491729_AdjustorThunk
DUe:_NumberFormatter_Append_m3268121457
wnj:__ZNK15dense_hashtableINSt3__24pairIK10KeyWrapperIPK14Il2CppAssemblyEPK16MonoAssemblyNameEES6_N6il2cpp5utils11PointerHashIS4_EEN14dense_hash_mapIS6_SA_SF_NS6_14EqualsComparerINS0_8equal_toIS5_EEEENS0_9allocatorISB_EEE9SelectKeyESK_SM_E3endEv
rad:_RSA_ToXmlString_m4145056574
Zaa:__Z20SetPlayerPauseDirect11PlayerPause
qKd:_Double_System_IConvertible_ToUInt64_m1318285078_AdjustorThunk
JOj:_isalpha
lgj:_il2cpp_object_unbox
Yth:_Selectable_FindSelectable_m2739582497
Lxc:__ZNK12b2MotorJoint17GetReactionTorqueEf
jFd:_DateTimeUtils_ZeroPad_m86470512
Qbj:__ZN6il2cpp2vmL17IsSocketAsyncCallEP14Il2CppDelegate
BHc:__Z13RegisterClassI11Rigidbody2DEvv
RWg:_Logger_IsLogTypeAllowed_m1750132386
GEj:__ZN6il2cpp2vm6String6NewLenEPKcj
xib:__ZN6Camera23VirtualRedirectTransferER19StreamedBinaryWriteILb0EE
_k:_time
c9c:_RC2Transform__cctor_m4079629627
zRc:_ps_hints_done
S_d:_Graphic_UnregisterDirtyLayoutCallback_m1724443555
Wmf:_CryptoConvert_ToHex_m2874017189
LTc:_cf2_stack_free
d2:__ZN15dense_hashtableINSt3__24pairIKiP6ObjectEEi21InstanceIDHashFunctorN14dense_hash_mapIiS4_S6_NS0_8equal_toIiEE13stl_allocatorIS5_L18MemLabelIdentifier65ELi16EEE9SelectKeyES9_SC_E12resize_deltaEjj
OA:__ZN8Animator31ClearInternalControllerPlayableEv
j5a:__ZN10GameObject8TransferI24GenerateTypeTreeTransferEEvRT_
moe:_Enumerator_VerifyState_m3913376581_gshared
ajj:__ZN15dense_hashtableINSt3__24pairIK10KeyWrapperINS1_IPK9FieldInfoP11Il2CppClassEEEjEES9_17ReflectionMapHashIS8_EN14dense_hash_mapIS9_jSD_NS9_14EqualsComparerINS0_8equal_toIS8_EEEENS0_9allocatorISB_EEE9SelectKeyESI_SK_E4findERSA_
E0j:_glDeleteSync__wrapper
PBd:_Decimal_op_Implicit_m623319612
Ygh:_ValueCollection_System_Collections_Generic_ICollectionU3CTValueU3E_Remove_m98888100_gshared
QPd:_EventTrigger_OnPointerExit_m2119176877
R5g:_ThreadAbortException__ctor_m1623816114
a0b:__ZN13ProduceHelperI30RuntimeInitializeOnLoadManagerLb0EE7ProduceE18MemLabelIdentifier18ObjectCreationMode
$2a:__ZN13RenderTexture19SetAutoGenerateMipsEb
hja:__Z20GetTextureFormatInfo13TextureFormat
mnc:__Z43Register_UnityEngine_GUIStyle_get_alignmentv
Hz:__ZN26AnimatorControllerPlayable8GetFloatEiRf
ash:_Shadow__ctor_m924057531
CRd:_PointerEventData_set_worldPosition_m192283671
wUj:dynCall_iiifiiii
oPi:_Vector3_get_right_m1884123822
qKj:__ZN6il2cpp5utils10MemoryPool6MallocEj
yG:__ZN11SoundHandle8InstanceD2Ev
e9:__ZN31CanvasBatchIntermediateRenderer13StaticDestroyEPv
TJi:_X509Store_BuildCrlsCollection_m52567568
Sec:__Z29Mesh_CUSTOM_RecalculateBoundsP12Il2CppObject
$Kd:_Enum_ToString_m662345249
FZj:_emscripten_glBindProgramARB__wrapper
ccc:__Z41Register_UnityEngine_CullingGroup_Disposev
rnb:__ZN7Cubemap23VirtualRedirectTransferER19StreamedBinaryWriteILb0EE
a3h:__Z100RuntimeInvoker_Void_t1841601450_Il2CppObject_Single_t2076509932_Int32_t2071877448_Single_t2076509932PK10MethodInfoPvPS2_
AKa:__ZN25MultiBlocksMemoryFileData5WriteEyyPKv
myc:__ZNK13b2PulleyJoint16GetReactionForceEf
_Rh:__Z78RuntimeInvoker_Il2CppObject_Int64_t909078037_Int64_t909078037_Int64_t909078037PK10MethodInfoPvPS2_
xwe:_List_1_System_Collections_IList_Add_m4271264217_gshared
eoj:__ZN14dense_hash_mapI10KeyWrapperIPK10Il2CppTypeEjN6il2cpp8metadata14Il2CppTypeHashENS4_14EqualsComparerINS6_26Il2CppTypeEqualityComparerEEENSt3__29allocatorINSB_4pairIKS4_jEEEEE13set_empty_keyERSE_
Qbc:__Z35Component_CUSTOM_SendMessageUpwardsP12Il2CppObjectP12Il2CppStringS0_i
KCa:__ZL17ProgramUniform2fvPK7ApiGLESjiihPKv
pKc:__ZN20TextRenderingPrivate8FontImpl21HasCharacterInTextureEjijfPj
dQj:_htonl
Yxa:__Z20GetBufferManagerGLESv
gQb:__ZN18StreamedBinaryReadILb0EE21TransferSTLStyleArrayI31ArrayOfManagedObjectsTransfererEEvRT_17TransferMetaFlags
V3g:_UTF7Decoder_GetChars_m2790530452
fsc:__Z18Transfer_BlittableI8JSONReadLb0EtEvRK29SerializationCommandArgumentsR31RuntimeSerializationCommandInfo
DNa:__ZZ23InitPlayerLoopCallbacksvEN44EarlyUpdateResetFrameStatsAfterPresentstruct7ForwardEv
uyh:_Text_set_fontSize_m2101304336
bNc:_pshinter_module_class_pic_free
Ang:__ZL68Navigation_t1571958496_CustomAttributesCacheGenerator_m_SelectOnLeftP21CustomAttributesCache
_u:__ZN34AnimationStateMachineMixerPlayable13EndTransitionEv
HCc:__ZNSt3__26vectorIxNS_9allocatorIxEEE6assignIPxEENS_9enable_ifIXaasr21__is_forward_iteratorIT_EE5valuesr16is_constructibleIxNS_15iterator_traitsIS7_E9referenceEEE5valueEvE4typeES7_S7_
CI:__ZN12AudioManager21FixMasterGroupRoutingEv
wcd:_SymmetricAlgorithm_set_Key_m2973350820
rGc:__ZN6b2Body9SetActiveEb
Tlg:__ZL58FontData_t2614388407_CustomAttributesCacheGenerator_m_FontP21CustomAttributesCache
KBf:_WebHeaderCollection_IsHeaderValue_m1723393133
Pwd:_Hashtable__ctor_m4280223555
OBj:__ZN6il2cpp2os10ThreadImpl33UnregisterCurrentThreadForCleanupEv
Qy:__ZN27AnimationLayerMixerPlayable22PrepareAnimationEventsEfR13dynamic_arrayI22AnimationClipEventInfoLj4EE
pFb:__Z18Transfer_BlittableI14SafeBinaryReadLb1E4AABBEvRK29SerializationCommandArgumentsR31RuntimeSerializationCommandInfo
XAj:__ZN6il2cpp6icalls8mscorlib6System4Enum12get_hashcodeEP12Il2CppObject
cWg:_Input_INTERNAL_get_mouseScrollDelta_m1140491498
Mqi:_AnimatorControllerPlayable_SetInteger_m1311149575
lH:__ZN9AudioClip7WWWOpenEPKciPjPPvS4_
J_h:__Z79RuntimeInvoker_Void_t1841601450_Il2CppObject_Int32_t2071877448_Int64_t909078037PK10MethodInfoPvPS2_
iFb:__Z18Transfer_BlittableI14SafeBinaryReadLb0E8Vector2fEvRK29SerializationCommandArgumentsR31RuntimeSerializationCommandInfo
Asi:_AnimatorControllerPlayable_PlayInFixedTime_m2562520484
Vc:_emscripten_glVertexAttrib2f
VSb:__ZN15SerializeTraitsIN9ShaderLab20SerializedSubProgram16TextureParameterEE8TransferI14SafeBinaryReadEEvRS2_RT_
wqd:_Byte_System_IConvertible_ToInt16_m1575115635_AdjustorThunk
Ot:__ZN11UnityEngine9Animation31SetHumanTransformPropertyValuesERKNS0_21AvatarBindingConstantERKN7mecanim8skeleton13SkeletonPoseTIN4math4trsXEEEbb
vxi:_Context_get_HasGlobalDynamicSinks_m3205328884
hbf:_SimpleCollator_CompareQuick_m619038530
nxf:_SslStreamBase_EndRead_m1072850679
od:_SDL_GetTicks
f_c:__ZN2UI14CanvasRenderer11SyncCullingENS0_8SyncFlagE
Vkj:__ZN15dense_hashtableINSt3__24pairIK10KeyWrapperINS1_IPK11Il2CppImageP11Il2CppClassEEEjEES9_17ReflectionMapHashIS8_EN14dense_hash_mapIS9_jSD_NS9_14EqualsComparerINS0_8equal_toIS8_EEEENS0_9allocatorISB_EEE9SelectKeyESI_SK_E6insertERKSB_
fw:__Z16AppendPathToHashRKN7mecanim5crc32EPKc
U0a:__Z21CreateShadowCullerJobP30CreateUmbraShadowCullerJobData
$Wg:_Material_get_mainTexture_m432794412
CCa:__ZL18ProgramUniform2uivPK7ApiGLESjiihPKv
k$j:_glUniform4iv__wrapper
UZa:__Z33GenerateShadowCasterPartsSortDataRK16ShadowCasterDatajRK15RenderNodeQueueRKNSt3__26vectorI20ShadowCasterPartData13stl_allocatorIS7_L18MemLabelIdentifier2ELi16EEEERK10Matrix4x4fRjP20ShadowCasterSortData
blh:_Dictionary_2_ToTKey_m4209561517_gshared
YSc:_cf2_computeDarkening
IY:__GLOBAL__sub_I_runtime_gfxdevice_lump_cpp
mii:_AsyncOperation_set_priority_m3581020444
HGj:_GC_expand_hp_inner
u8i:__ZNK15dense_hashtableINSt3__24pairIK10KeyWrapperI13dynamic_arrayIPK10Il2CppTypeLj4EEEPFvvEEES8_N6il2cpp8metadata19Il2CppSignatureHashEN14dense_hash_mapIS8_SB_SF_NS8_14EqualsComparerINSE_22Il2CppSignatureCompareEEENS0_9allocatorISC_EEE9SelectKeyESJ_SL_E12test_deletedEj
nc:invoke_viiiififfi
Edc:__Z25Screen_Get_Custom_PropDpiv
xSa:__ZN13ComputeShader20GetCompatibleVariantE17GfxDeviceRendereri
yAj:__ZN4utf812find_invalidIPKcEET_S3_S3_
eGf:_X509ExtensionCollection_System_Collections_ICollection_CopyTo_m3421329346
$Fj:_GC_err_printf
WGg:_FieldBuilder_SetValue_m3109503557
b_d:_Graphic_OnBeforeTransformParentChanged_m1866292273
XDf:_X509Certificate2_Verify_m1574874641
Skg:__ZL58PhysicsRaycaster_t249603239_CustomAttributesCacheGeneratorP21CustomAttributesCache
cKc:__ZN20TextRenderingPrivate19NativeTextGenerator23FixLineHorizontalOffsetEiii
Iyd:_SortedList_GetEnumerator_m1318483481
Smd:_Array_CreateInstance_m3327690220
pw:__ZN7mecanim9animation19DestroyAnimationSetEPNS0_12AnimationSetERNS_6memory9AllocatorE
ZTh:__Z64RuntimeInvoker_Double_t4078015681_Il2CppObject_Int32_t2071877448PK10MethodInfoPvPS2_
_3:__ZN14SerializedFile7ReleaseEv
B9a:__ZN16MemoryFileSystem4OpenER13FileEntryData14FilePermission16FileAutoBehavior
S8:__ZN13RuntimeStaticI13RendererSceneLb0EE13StaticDestroyEPv
dKb:__Z18Transfer_BlittableI24GenerateTypeTreeTransferLb1E12PropertyNameEvRK29SerializationCommandArgumentsR31RuntimeSerializationCommandInfo
Zxb:__ZN14SafeBinaryRead21TransferSTLStyleArrayI10vector_mapIPKN5Unity4TypeE7Hash128NSt3__24lessIS5_EENS7_9allocatorINS7_4pairIS5_S6_EEEEEEEvRT_17TransferMetaFlags
kH:__ZN9AudioClip18GetQueuedAudioDataEPPvj
z6b:__ZNK9Texture2D17CheckHasPixelDataEv
GFc:__ZN15b2ContactSolver13StoreImpulsesEv
AVa:__Z18SetShadowsKeywordsR17ShaderPassContext9LightType10ShadowType16ShadowProjectionbb
Joj:__ZN14dense_hash_mapI10KeyWrapperINSt3__24pairIPK12PropertyInfoP11Il2CppClassEEEj17ReflectionMapHashIS8_ENS9_14EqualsComparerINS1_8equal_toIS8_EEEENS1_9allocatorINS2_IKS9_jEEEEEC2EjRKSB_RKSF_
c2b:__ZN17CollisionMeshDataC2Ev
rCg:_Assembly_GetModule_m2064378601
Tuh:_ScrollRect_SetDirty_m93243192
Fob:__ZN16LightmapSettings23VirtualRedirectTransferER19StreamedBinaryWriteILb0EE
_Gc:__ZN19CollisionListener2DC2Ev
pZg:_MessageTypeSubscribers__ctor_m743474932
$_j:_glTexParameteriv__wrapper
Nqa:__ZN18IDCollectorFunctor18GenerateInstanceIDEi17TransferMetaFlags
$ee:_Array_InternalArray__set_Item_TisTableRange_t2011406615_m2386708730_gshared
FFc:__ZN15b2ContactSolver9WarmStartEv
OUe:_NumberFormatter_ToDecHex_m1474793296
Qab:__ZN14StackAllocatorD0Ev
srj:__ZN6il2cpp2vm6Thread8SetStateEP12Il2CppThreadNS0_11ThreadStateE
I9e:_OperatingSystem_Clone_m1943707477
CZd:_FontData_set_richText_m29558601
g6g:_Scheduler_Change_m4063588742
Wge:_Array_Resize_TisVector2_t2243707579_m1117258774_gshared
qS:__ZN11UnityEngine15CloudWebService13WWWRestClientD0Ev
sKi:_HitInfo_SendMessage_m3368777144_AdjustorThunk
Sfc:__Z22PlayableValidityChecksRK9HPlayableb
czb:__ZN15ResourceManagerD2Ev
fve:_List_1_Insert_m2532850849_gshared
Hbc:__Z41Register_UnityEngine_Camera_GetAllCamerasv
nYg:_Mesh_get_vertices_m626989480
yrh:_MaskableGraphic_OnCanvasHierarchyChanged_m2012659245
uBa:__ZN4crnd12crn_unpacker10unpack_dxnEPPhjjjjjj
Q5c:__ZN28PerformanceReportingSettings8TransferI14SafeBinaryReadEEvRT_
iCd:_Double_Parse_m2344589511
Isj:__ZN6il2cpp2vm22EmbeddedResourceRecordC2ERKS1_
mnb:__ZN9Texture2D13AwakeFromLoadE17AwakeFromLoadMode
Aaf:_MSCompatUnicodeTableUtil__cctor_m1479836795
WEi:_PositionAssertion__ctor_m3703837499
T4d:_LayoutGroup_get_minWidth_m4111745491
n4e:_StreamWriter_Initialize_m1707678624
Mzj:__ZN6il2cpp2vm3RCW14QueryInterfaceILb0EEEP14Il2CppIUnknownP15Il2CppComObjectRK10Il2CppGuid
Muh:_ScrollRect_set_verticalScrollbar_m2903688658
mVg:_GUIStyle_INTERNAL_CALL_SetMouseTooltip_m1802284884
mka:__ZN6prcoreL17RemapGenericFloatI15TexFormatRFloat18TexFormatARGBFloatEEvPKNS_9InnerInfoE
OSf:__ZL50_Thread_t1894135853_CustomAttributesCacheGeneratorP21CustomAttributesCache
uFh:_InternalEnumerator_1_get_Current_m1047712960_gshared
EY:__GLOBAL__sub_I_runtime_camera_renderlayers_lump_cpp
B5c:__ZN11UnityEngine15PlatformWrapper20GetPlayerPrefsUInt64ERKN4core12basic_stringIcNS1_20StringStorageDefaultIcEEEEy
tZa:__ZN20ReflectionProbeCacheC2ER13BatchRendererR15RenderLoopStats
G9:__ZN18AssetBundleManagerC2Ev
PLa:__ZNK12HandlerChain6ExistsERK13FileEntryData
V1f:__ZL61ExtensionAttribute_t1840441203_CustomAttributesCacheGeneratorP21CustomAttributesCache
jXh:__Z88RuntimeInvoker_Boolean_t3825574718_Int16_t4041245914_Int16_t4041245914_Int32_t2071877448PK10MethodInfoPvPS2_
GCd:_Convert_ToInt32_m2734833291
j_a:__Z30FindDirectAttenuationFromProbeP18ForwardLightsBlockbiRK10RenderNodeRK23FindForwardLightsParamsf
cxb:__ZN12InputManager23VirtualRedirectTransferER24GenerateTypeTreeTransfer
JXb:__ZN9Transform23VirtualRedirectTransferER24GenerateTypeTreeTransfer
XVb:__ZNSt3__26vectorIN9ShaderLab20SerializedSubProgram12UAVParameterENS_9allocatorIS3_EEE21__push_back_slow_pathIKS3_EEvRT_
$vi:_CrossAppDomainChannel_RegisterCrossAppDomainChannel_m43456045
PFf:_X509ChainElement_Count_m228862214
R7g:_TimeZone_IsDaylightSavingTime_m1840774423
EVc:_UNITY_tt_size_ready_bytecode
LIc:__ZN13TextRendering4FontD2Ev
JLc:_UNITY_FT_Stream_Open
iZc:__GLOBAL__sub_I_runtime_ui_lump_cpp
JKa:__ZN10MemoryFile4ReadEyyPvPy
kua:__ZN13GfxDeviceGLES26UpdateViewProjectionMatrixEv
OF:__ZN4FMOD3DSP12setParameterEif
maa:__ZN13MemoryManager16StaticInitializeEv
IOf:__ZL53StackFrame_t2050294881_CustomAttributesCacheGeneratorP21CustomAttributesCache
tf:___cxa_free_exception
zQe:_ReadOnlyCollection_1_System_Collections_ICollection_CopyTo_m4126742951_gshared
IJ:__ZN4FMOD22FakeModChannelCallbackEPv
zf:_emscripten_glValidateProgram
JRa:__ZN4Mesh10CreateMeshEv
bmj:__ZN6il2cpp2gc19AppendOnlyGCHashMapINSt3__24pairIPK9EventInfoP11Il2CppClassEEP21Il2CppReflectionEvent17ReflectionMapHashIS9_ENS2_8equal_toIS9_EEE3AddERKS9_SB_
GG:__ZN4FMOD7SystemI11createSoundEPKcjP22FMOD_CREATESOUNDEXINFOPPNS_5SoundE
OKi:_Sprite_get_associatedAlphaSplitTexture_m3617241169
xvg:_ArrayFixupRecord_FixupImpl_m2377725358
uTc:_cf2_stack_clear
SJd:_Double_System_IConvertible_ToBoolean_m4251806534_AdjustorThunk
Teh:_ShimEnumerator_Reset_m2247049027_gshared
NBc:__ZN10ClipperLib11ClipperBase5ClearEv
a3a:__ZN7Texture13SetAnisoLevelEi
gEf:_X509Chain_Process_m2508784250
Wze:_List_1_RemoveAt_m2929488689_gshared
dvc:__ZN27PerformanceReportingManager23VirtualRedirectTransferER24GenerateTypeTreeTransfer
ANc:_raccess_guess_vfat
T0c:__Z44Canvas_CUSTOM_GetETC1SupportedCanvasMaterialv
D8:__ZN33InstancedMeshIntermediateRenderer13StaticDestroyEPv
mYe:_Int16_Parse_m3012618547
Tuj:__ZN14dense_hash_mapI10KeyWrapperIP14Il2CppIUnknownEjN6il2cpp5utils11PointerHashIS1_EENS3_14EqualsComparerINSt3__28equal_toIS2_EEEENS9_9allocatorINS9_4pairIKS3_jEEEEE13set_empty_keyERSF_
Bzd:_Convert__cctor_m926133987
bjb:__Z21DestroyShadowMapCacheP14ShadowMapCache
bz:__ZN7mecanim9animation25CreateControllerWorkspaceEPKNS0_18ControllerConstantERNS_6memory9AllocatorE
vbe:_Array_InternalArray__IndexOf_TisUInt64_t2909196914_m3958307360_gshared
T_d:_Graphic_RegisterDirtyVerticesCallback_m4169445219
hoj:__ZN15dense_hashtableINSt3__24pairIK10KeyWrapperIPK10Il2CppTypeEjEES6_N6il2cpp8metadata14Il2CppTypeHashEN14dense_hash_mapIS6_jSB_NS6_14EqualsComparerINSA_26Il2CppTypeEqualityComparerEEENS0_9allocatorIS8_EEE9SelectKeyESF_SH_E14squash_deletedEv
Ttj:__ZN6il2cpp2vm13LivenessState5ResetEv
CNi:_Transform_get_parent_m147407266
Boc:__ZN9JSONWrite8TransferI11KeyframeTplIfEEEvRT_PKc17TransferMetaFlags
MZh:__Z71RuntimeInvoker_Double_t4078015681_Double_t4078015681_Double_t4078015681PK10MethodInfoPvPS2_
$xh:_Text_get_cachedTextGenerator_m224335893
YOg:_GameObject_GetComponent_m306258075
yvj:__ZN6il2cpp2vm3RCW23GetOrCreateFromIUnknownEP14Il2CppIUnknownP11Il2CppClass
Psj:__ZN6il2cpp2vm9Exception27RaiseNullReferenceExceptionEv
aJa:__ZN24BuiltinShaderParamValuesC2Ev
spc:__ZL41CreateJSONTransferFunctionScriptingTraitsv
r1e:_FileStream_get_CanWrite_m775322953
kOa:__Z23GetLateBehaviourManagerv
yQd:_ExecuteEvents_Execute_m2863348178
B5:__ZN10MemoryPool10DeallocateEPv
GVe:_NumberFormatInfo__ctor_m2752806684
kUd:_CanvasUpdateRegistry_get_instance_m862315367
EBi:_PatternCompiler_EmitFastRepeat_m1175707353
Kje:_Array_InternalArray__get_Item_TisKeyValuePair_2_t3716250094_m3120861630_gshared
eNc:_cff_driver_class_pic_free
tuc:__ZNK9rapidjson12GenericValueINS_4UTF8IcEE13JSONAllocatorE6AcceptINS_6WriterI16TempBufferWriterS2_S2_S3_EEEEbRT_
kUj:dynCall_vif
lUj:dynCall_vid
Qte:_List_1_System_Collections_IList_get_Item_m3989815218_gshared
nUj:dynCall_vii
YAd:_DateTime__ctor_m3604679583
YPb:__Z18Transfer_BlittableI18StreamedBinaryReadILb0EELb0EdEvRK29SerializationCommandArgumentsR31RuntimeSerializationCommandInfo
VAi:_Enumerator_System_Collections_IEnumerator_MoveNext_m3313126804
EVa:__ZNK17InstancedPropInfo14IsInstanceableERK19ShaderPropertySheet
Xbb:__ZN5Unity9Component16CheckConsistencyEv
hUd:_LayoutRebuilder_ValidController_m2595049322
sDa:__ZN7ApiGLES11CheckShaderERjb
P0g:_RectTransform_set_anchoredPosition_m2077229449
WLb:__ZL26Transfer_SimpleNativeClassI19StreamedBinaryWriteILb0EE10RectOffsetLb1EEvRK29SerializationCommandArgumentsR31RuntimeSerializationCommandInfo
Jje:_Array_InternalArray__get_Item_TisKeyValuePair_2_t1174980068_m964958642_gshared
Hjj:__ZN15dense_hashtableINSt3__24pairIK10KeyWrapperIPK10Il2CppTypeEjEES6_N6il2cpp8metadata14Il2CppTypeHashEN14dense_hash_mapIS6_jSB_NS6_14EqualsComparerINSA_26Il2CppTypeEqualityComparerEEENS0_9allocatorIS8_EEE9SelectKeyESF_SH_E3endEv
l_a:__Z28GetNonInterpolatedLightProbeRK17LightProbeContextjR20SphericalHarmonicsL2
kce:_Array_InternalArray__ICollection_Add_TisDateTime_t693205669_m3559987213_gshared
Mwa:__ZN13GfxDeviceGLES17SetGpuProgramNameEP10GpuProgramPKc
Zaj:__ZN6il2cpp2vm13MetadataCache28GetMethodDefinitionFromIndexEi
Nwb:__Z14RecalculateUVs14StrideIteratorI8Vector2fES1_S_I8Vector3fER9Texture2DRKS0_RK5RectTIfERK8Vector4fSB_S7_21SpritePackingRotation
Xga:__ZN14SafeBinaryRead19TransferSTLStyleMapINSt3__23mapI39DeprecatedFastPropertyNameSerialization10ColorRGBAfNS1_4lessIS3_EENS1_9allocatorINS1_4pairIKS3_S4_EEEEEEEEvRT_17TransferMetaFlags
rBb:__ZN14CachingManager13WriteInfoFileERKN4core12basic_stringIcNS0_20StringStorageDefaultIcEEEERKNSt3__26vectorIS4_NS7_9allocatorIS4_EEEE
Pii:_Behaviour_get_enabled_m4079055610
qEa:__ZN7ApiGLES18CreateRenderbufferEiN2gl9TexFormatEii
ROi:_Vector3_Lerp_m2935648359
cQi:_NetFxCoreExtensions_GetMethodInfo_m2715372889
hh:_atexit
svd:_BitArrayEnumerator_Reset_m3218489242
Jqd:_Byte_System_IConvertible_ToUInt16_m2275325191
Kmj:__ZN6il2cpp2vmL31GetObjectForMissingDefaultValueEj
jQa:_UNITY_png_write_info_before_PLTE
UHe:_Collection_1__ctor_m824713192_gshared
CTb:__ZN9ShaderLab14SerializedPassC2ERKS0_
jDh:_InternalEnumerator_1_System_Collections_IEnumerator_get_Current_m3088751576_AdjustorThunk
rva:__ZNK9GfxDevice28GetActiveRenderSurfaceHeightEv
l:STACKTOP
cVc:_cff_get_name_index
n6e:_Math_Cos_m43596019
Wob:__ZN21EnlightenSceneMapping16BuildRemapTablesEv
KEb:__ZNSt3__26vectorI4PPtrI10MonoScriptE13stl_allocatorIS3_L18MemLabelIdentifier76ELi16EEE8__appendEj
a5b:__ZN17TransformInternal27UpdateDeepChildCountUpwardsER18TransformHierarchyii
JJh:_InternalEnumerator_1_System_Collections_IEnumerator_get_Current_m1533037706_AdjustorThunk
NRj:__ZNK10__cxxabiv117__class_type_info16search_above_dstEPNS_19__dynamic_cast_infoEPKvS4_ib
A:tempBigIntD
Qgd:_Single_Equals_m3359827399_AdjustorThunk
VPd:_EventTrigger_OnPointerClick_m413999043
z:tempBigIntI
JSi:_CachedInvokableCall_1__ctor_m127496184_gshared
fmf:_PrimalityTests_RabinMillerTest_m2029846965
y:tempBigIntR
x:tempBigIntS
vn:FUNCTION_TABLE_viffi
gLc:_open_face_PS_from_sfnt_stream
Zug:_ServerIdentity_CreateObjRef_m1056204803
n5:__ZN6Object18RegisterInstanceIDEPS_
PJb:__Z18Transfer_BlittableI24GenerateTypeTreeTransferLb1EsEvRK29SerializationCommandArgumentsR31RuntimeSerializationCommandInfo
Mxj:__ZN15dense_hashtableINSt3__24pairIK10KeyWrapperIP12Il2CppObjectEN6il2cpp2gc9CachedCCWEEES5_NS7_5utils11PointerHashIS3_EEN14dense_hash_mapIS5_S9_SD_NS5_14EqualsComparerINS0_8equal_toIS4_EEEENS0_9allocatorISA_EEE9SelectKeyESI_SK_E11set_deletedER30dense_hashtable_const_iteratorISA_S5_SD_SM_SI_SK_E
lua:__ZNK9GfxDevice18GetWorldViewMatrixEv
$te:_List_1_Contains_m3819542652_gshared
grf:_TlsServerKeyExchange__ctor_m247733406
NNe:_ReadOnlyCollection_1_System_Collections_IList_Add_m3065652010_gshared
nFj:__ZN6il2cpp6icalls8mscorlib6System7Convert17Base64ToByteArrayEPDsib
RXi:_IndexedSet_1_Clear_m2776064367_gshared
IVg:_GUIUtility_set_systemCopyBuffer_m2040945785
p2h:__Z87RuntimeInvoker_Void_t1841601450_Int32_t2071877448_Single_t2076509932_Single_t2076509932PK10MethodInfoPvPS2_
Tgb:__ZN39AssetBundleLoadFromStreamAsyncOperationD2Ev
wYg:_Mesh_SetNormals_m3341225499
d8i:__ZNSt3__218__insertion_sort_3IRN6il2cpp5utils11collections13ArrayValueMapIPK10Il2CppType17Il2CppInteropData26InteropDataToTypeConverterNS1_8metadata14Il2CppTypeLessENSA_26Il2CppTypeEqualityComparerEE12SortComparerEPS8_EEvT0_SH_T_
BZc:__ZN2UI39SendIgnoreNextTransformChangedRecursiveEPK9TransformPKNS_6CanvasE
pua:__ZNK9GfxDevice25GetDeviceProjectionMatrixEv
mAf:_HttpWebRequest__ctor_m1248252412
na:invoke_iidiii
TJb:__Z18Transfer_BlittableI24GenerateTypeTreeTransferLb1EtEvRK29SerializationCommandArgumentsR31RuntimeSerializationCommandInfo
PBg:_RankException__ctor_m2119191472
Auc:__ZN9rapidjson12PrettyWriterI16TempBufferWriterNS_4UTF8IcEES3_13JSONAllocatorE11WriteIndentEv
P7b:__ZN10systeminfo24GetRuntimePlatformStringEv
yrc:__ZN9JSONWrite8TransferI13dynamic_arrayI4AABBLj4EEEEvRT_PKc17TransferMetaFlags
JP:__ZN5physx14PxLightCpuTask15removeReferenceEv
CBf:_SPKey_Equals_m1112627532
B6:__ZN13RuntimeStaticI13ModuleManagerLb0EE13StaticDestroyEPv
E3e:_Stream_Close_m1499612649
Hyi:_ArgInfo__ctor_m3787931268
iJi:_X509Chain_Build_m175470596
aca:__ZN9ShaderLab6TexEnvC2ERKNS_25SerializedTexturePropertyE
xYb:__Z28IntersectLineSegmentWithLineRK8Vector2fS1_S1_S1_RS_
qfa:__ZN19ShaderPropertySheet38CopyTextureWithAuxiliaryPropertiesFromERKN9ShaderLab16FastPropertyNameERKS_
Erf:_TlsServerCertificate__ctor_m3697944709
Abj:__ZN6il2cpp2vm19SocketPollingThread14DequeueRequestEv
ICj:__ZL10RevealLinkPv
X1a:__ZNK6Camera26CalculateCullingParametersER17CullingParameters
Ki:___cxa_end_catch
xIg:_MethodBuilder_MakeGenericMethod_m303913412
KCg:_AssemblyName_InternalGetPublicKeyToken_m3706025887
uUj:dynCall_viffffii
gQd:_ExecuteEvents_Execute_m4235029535
zAf:_HttpWebRequest_GetObjectData_m1200570677
Y0c:__Z43Register_UnityEngine_Canvas_set_scaleFactorv
DTg:_GUIStyle_set_onHover_m3908151335
BNc:_raccess_guess_linux_cap
wOi:_Vector2_GetHashCode_m2353429373
ovf:_ReceiveRecordAsyncResult_get_AsyncWaitHandle_m1602093076
hQb:__Z19TransferField_ArrayI18StreamedBinaryReadILb0EE27Converter_UnityEngineObjectEvRK23StaticTransferFieldInfoR31RuntimeSerializationCommandInfoRT0_
U0:__Z33InitializeBuiltinShaderParamNamesv
Hjf:_ActivationContext_System_Runtime_Serialization_ISerializable_GetObjectData_m775951299
S0g:_RectTransform_INTERNAL_get_sizeDelta_m3975625099
Fda:__ZNK16TypeTreeIterator4TypeEv
Fyi:_LeaseManager__ctor_m2166901364
lJa:__ZN10FileSystem25MountDataFolderFileSystemERKN4core12basic_stringIcNS0_20StringStorageDefaultIcEEEES6_
oog:__ZL67Selectable_t1490392188_CustomAttributesCacheGenerator_m_SpriteStateP21CustomAttributesCache
rj:_glGetUniformLocation
zva:__ZN13GfxDeviceGLES32CreateColorRenderSurfacePlatformEP17RenderSurfaceBase19RenderTextureFormat
WG:__ZN12AudioManager24CreateFMODSoundFromMovieEP9AudioClip
Cuc:__ZN9rapidjson6WriterI16TempBufferWriterNS_4UTF8IcEES3_13JSONAllocatorE8WriteIntEi
S9i:__ZN6il2cpp2vm13MetadataCache24GetGenericInstanceMethodEPK10MethodInfoPK20Il2CppGenericContext
xaf:_MSCompatUnicodeTable_get_IsReady_m562849792
Caf:_SimpleCollator_SetCJKTable_m1356471502
ZMb:__Z18Transfer_BlittableI18StreamedBinaryReadILb1EELb0E8Vector2fEvRK29SerializationCommandArgumentsR31RuntimeSerializationCommandInfo
hZe:_Int32_System_IConvertible_ToUInt64_m2888588559_AdjustorThunk
EX:__Z24ConvertSeparatorsToUnityPc
pxb:__ZNSt3__213__vector_baseI9InputAxisNS_9allocatorIS1_EEED2Ev
arj:__ZN6il2cpp2vm6Thread20FreeThreadStaticDataEP12Il2CppThread
bMd:_Exception_get_ClassName_m2189012117
a0e:_IOException__ctor_m613517077
Tui:_MarshalDirectiveException__ctor_m3894820706
UDc:__ZN16Physics2DManager12BatchOverlapER13dynamic_arrayI15BatchedOverlapsLj4EEPP10Collider2Dj
JTc:_cf2_glyphpath_finalize
_yd:_Stack__ctor_m521896492
sUa:__Z20LookRotationToMatrixRK8Vector3fS1_P10Matrix3x3f
yqi:_AnimatorControllerPlayable_INTERNAL_CALL_GetBoolID_m3610941922
KUj:dynCall_viififi
Czb:__ZNSt3__26vectorIN15ResourceManager10DependencyE13stl_allocatorIS2_L18MemLabelIdentifier51ELi16EEE6assignINS_11__wrap_iterIPS2_EEEENS_9enable_ifIXaasr21__is_forward_iteratorIT_EE5valuesr16is_constructibleIS2_NS_15iterator_traitsISC_E9referenceEEE5valueEvE4typeESC_SC_
GNc:_UNITY_FT_Stream_Free
l8g:_Type_GetTypeFromHandle_m432505302
BQh:__Z111RuntimeInvoker_Void_t1841601450_Il2CppObject_Int32_t2071877448_Il2CppObject_Int32_t2071877448_Int32_t2071877448PK10MethodInfoPvPS2_
Pqj:__ZN15dense_hashtableINSt3__24pairIK10KeyWrapperINS1_IP11Il2CppClassjEEES4_EES6_N6il2cpp8metadata14ArrayClassHashEN14dense_hash_mapIS6_S4_SB_NS6_14EqualsComparerINSA_17ArrayClassCompareEEENS0_9allocatorIS8_EEE9SelectKeyESF_SH_E12maybe_shrinkEv
Eui:_GCHandle_FreeHandle_m2466807271
e_d:_GraphicRegistry_get_instance_m2112667631
NQ:__ZN11UnityEngine15CloudWebService14DataDispatcher25OnDataBlockConsumedStaticEPv
lQd:_ExecuteEvents_Execute_m2476343313
ISf:__ZL54_MethodInfo_t3642518830_CustomAttributesCacheGeneratorP21CustomAttributesCache
QQh:__Z46RuntimeInvoker_Il2CppObject_Decimal_t724701077PK10MethodInfoPvPS2_
rVd:_CanvasUpdateRegistry_CleanInvalidItems_m1402635291
$qi:_AnimatorControllerPlayable_ResetTrigger_m2216540396
x9i:__ZNK6il2cpp5utils11collections13ArrayValueMapIPK10Il2CppType17Il2CppInteropData26InteropDataToTypeConverterNS_8metadata14Il2CppTypeLessENS8_26Il2CppTypeEqualityComparerEE10find_firstERKS5_
IZe:_Int64_System_IConvertible_ToByte_m3027162116_AdjustorThunk
GQd:_ExecuteEvents_get_endDragHandler_m56074740
t3d:_InputField_IsValidChar_m3929866302
Osd:_ArrayList__cctor_m2090802806
wRj:__ZNSt3__212basic_stringIcNS_11char_traitsIcEENS_9allocatorIcEEE6insertEjPKcj
upc:__Z44InitializeTransferFunctionScriptingTraitsForI8JSONReadEvR31TransferFunctionScriptingTraits
s7a:__ZNSt3__26vectorINS_4pairIN4core12basic_stringIcNS2_20StringStorageDefaultIcEEEES6_EE13stl_allocatorIS7_L18MemLabelIdentifier37ELi16EEE6insertENS_11__wrap_iterIPKS7_EERSD_
Ksa:__ZNSt3__27__sort4IRNS_4lessIN22BuiltinResourceManager8ResourceEEEPS3_EEjT0_S7_S7_S7_T_
pQd:_ExecuteEvents_Execute_m171612015
tca:__ZN15dense_hashtableINSt3__24pairIKPK17RenderSurfaceBaseP13RenderTextureEES4_19PointerHashFunctionIS4_EN14dense_hash_mapIS4_S7_SA_NS0_8equal_toIS4_EE13stl_allocatorIS8_L18MemLabelIdentifier65ELi16EEE9SelectKeyESD_SG_E12resize_deltaEjj
sBa:__ZN4crnd12crn_unpacker11unpack_dxt5EPPhjjjjjj
_ah:_UInt32_System_IConvertible_ToUInt64_m4083788326_AdjustorThunk
Gfg:__ZL99GUIStyle_t1799908754_CustomAttributesCacheGenerator_GUIStyle_t1799908754____clipOffset_PropertyInfoP21CustomAttributesCache
yWc:_UNITY_tt_face_get_location
AAg:_DESTransform_Permutation_m4174035780
i0e:_Path_IsDsc_m1314465747
m1e:_MonoIO_Seek_m3461199288
NQb:__Z29Transfer_Blittable_ArrayFieldI18StreamedBinaryReadILb0EE4AABBEvRT_R9ArrayInfoRK23StaticTransferFieldInfo
ecc:__Z31Cursor_Get_Custom_PropLockStatev
j1:__ZNSt3__26__treeINS_12__value_typeINS_4pairIPcS3_EENS_3setIS3_15compare_tstringIPKcENS_9allocatorIS3_EEEEEENS_19__map_value_compareIS4_SD_20smaller_tstring_pairIS8_ELb1EEENSA_ISD_EEE7destroyEPNS_11__tree_nodeISD_PvEE
ZYc:__ZNK2UI14CanvasRenderer26GetTypeInfoVirtualInternalEv
u$i:__ZN15dense_hashtableINSt3__24pairIK10KeyWrapperIPK22Il2CppGenericParameterEP11Il2CppClassEES6_N6il2cpp5utils11PointerHashIS4_EEN14dense_hash_mapIS6_S9_SE_NS6_14EqualsComparerINS0_8equal_toIS5_EEEENS0_9allocatorISA_EEE9SelectKeyESJ_SL_E15insert_noresizeERKSA_
hdc:__Z52Register_UnityEngine_GameObject_GetComponentInParentv
iyb:__ZN15SerializeTraitsINSt3__24pairIPKN5Unity4TypeE7Hash128EEE8TransferI14SafeBinaryReadEEvRS7_RT_
jpc:__ZN9rapidjson13GenericReaderINS_4UTF8IcEES2_13JSONAllocatorE10ParseArrayILj1ENS_25GenericInsituStringStreamIS2_EENS_15GenericDocumentIS2_S3_S3_EEEEvRT0_RT1_
T0a:__Z37GenerateCombinedDynamicVisibleListJobP11CullResults
NY:__GLOBAL__sub_I_runtime_graphics_billboard_lump_cpp
lW:__ZNK13ScreenManager21GetCursorInsideWindowEv
fCj:__ZN6il2cpp2vmL22RaiseOverflowExceptionEv
Bce:_Array_InternalArray__ICollection_Add_TisSByte_t454417549_m46595441_gshared
DAi:_Match_get_Empty_m3581361913
TZa:__Z20IntersectAABBFrustumRK4AABBPK5Planej
Oid:_String_Concat_m626692867
I2b:__ZN13RenderManager15InitializeClassEv
oHb:__ZN15SerializeTraitsI12PropertyNameE8TransferI14SafeBinaryReadEEvRS0_RT_
ZT:__ZNSt3__23mapIN19CloudServiceHandler11ServiceTypeEPS1_NS_4lessIS2_EE13stl_allocatorINS_4pairIKS2_S3_EEL18MemLabelIdentifier85ELi16EEEixERS8_
XVg:_Input_GetKey_m3849524999
ILi:_TextGenerationSettings_CompareVector2_m592645251_AdjustorThunk
IT:__ZN11UnityEngine15CloudWebService17WebFileDownloaderINS0_13WWWRestClientENS0_16WWWRestHeaderMapEED0Ev
lrc:__ZN9JSONWrite8TransferI11ColorRGBA32EEvRT_PKc17TransferMetaFlags
utc:__Z22TransferField_NonArrayI8JSONRead27Converter_SimpleNativeClassI8GradientEEvRK23StaticTransferFieldInfoR31RuntimeSerializationCommandInfoRT0_
BPe:_ReadOnlyCollection_1_System_Collections_IList_RemoveAt_m2372993063_gshared
$Ca:__ZNSt3__26vectorI15ComputeShaderCBNS_9allocatorIS1_EEE21__push_back_slow_pathIKS1_EEvRT_
eCb:__ZN10MonoScript13AwakeFromLoadE17AwakeFromLoadMode
d_b:__ZN13ProduceHelperI11MonoManagerLb0EE7ProduceE18MemLabelIdentifier18ObjectCreationMode
hFa:__ZNK18GfxFramebufferGLES15DiscardContentsER12ObjectHandleI17RenderSurface_TagP17RenderSurfaceBaseE
fff:_KeyPairPersistence_IsUserProtected_m37342608
rqc:__Z18Transfer_BlittableI9JSONWriteLb1EdEvRK29SerializationCommandArgumentsR31RuntimeSerializationCommandInfo
UYj:_glGetIntegerv__wrapper
NTe:_NumberFormatter_ResetCharBuf_m3823516989
H:Math_pow
RE:__Z64AnimatorControllerPlayable_CUSTOM_INTERNAL_CALL_SetTriggerStringR9HPlayableP12Il2CppString
cUg:_GUIStyle_Internal_Draw_m3610093213
fLi:_StackTraceUtility_IsSystemStacktraceType_m506502194
iob:__ZN9Texture2DD2Ev
HY:__GLOBAL__sub_I_runtime_geometry_lump_cpp
htd:_ArrayList_Remove_m3941780739
Mbj:__ZN6il2cpp2vm21ThreadPoolCompartment12DetachThreadEP12Il2CppThread
wEg:_ConstructorBuilder_not_created_m2150488017
Lli:_Color_op_Multiply_m325555950
rBg:_HashAlgorithm_TransformBlock_m4190258810
$D:__ZNSt3__26vectorIiNS_9allocatorIiEEE6insertENS_11__wrap_iterIPKiEERS5_
lGi:_Uri_AppendQueryAndFragment_m2358658590
cYg:_Mesh_GetIndicesImpl_m2398977086
Jq:__ZN13dynamic_arrayIhLj1EE18resize_initializedEjRKh12ResizePolicy
Koi:_InvokableCallList_AddListener_m786891050
_qa:__ZN17PersistentManager27GetLoadErrorMessageFromPathERKN4core12basic_stringIcNS0_20StringStorageDefaultIcEEEE
Gkd:_DecoderReplacementFallbackBuffer_Fallback_m1790184670
cm:_glGenRenderbuffers
ruj:__ZN6il2cpp6icalls8mscorlib6System2IO6MonoIO19GetCurrentDirectoryEPi
Vid:_String_GetHashCode_m931956593
xyb:__ZN14PlayerSettings23VirtualRedirectTransferER17RemapPPtrTransfer
oeb:__ZN14CachingManager7DisposeEv
_M:__ZN12AudioManager31GetCurrentSpatializerDefinitionEv
dvb:__ZN12MeshRenderer16UpdateCachedMeshEv
WGb:__Z19TransferField_ArrayI14SafeBinaryRead27Converter_SimpleNativeClassI8GradientEEvRK23StaticTransferFieldInfoR31RuntimeSerializationCommandInfoRT0_
hv:__ZNK27StateMachineBehaviourPlayer25FireStateMachineBehaviourEiiN7mecanim12statemachine19StateMachineMessageE
ouh:_ScrollRectEvent__ctor_m2283981448
roe:_Enumerator_VerifyState_m3913376581_AdjustorThunk
Zyf:_NameObjectCollectionBase_System_Collections_ICollection_CopyTo_m810189168
v3a:__ZN6Camera15SetOrthographicEb
lBc:__ZN6b2Body13ResetMassDataEv
nPc:_UNITY_FT_Stream_GetUShort
vua:__ZN13GfxDeviceGLES14DisableScissorEv
SRf:__ZL71ReliabilityContractAttribute_t1625655220_CustomAttributesCacheGeneratorP21CustomAttributesCache
JDd:_Decimal_op_Explicit_m1986696267
Gkh:_Dictionary_2_System_Collections_ICollection_CopyTo_m3578539931_gshared
mUe:_NumberFormatter_AppendDecimalString_m3532330813
Kc:_glVertexAttrib4f
PEg:_ILGenerator__ctor_m3365621387
NLd:_Environment_GetFolderPath_m1849163024
fna:__ZN13LoadOperationC2Ev
Jdf:_ASN1_Add_m2540239672
Uzc:__ZN12b2BroadPhase13QueryCallbackEi
m7d:_Array_InternalArray__ICollection_Remove_TisInt16_t4041245914_m3380378727_gshared
L1c:__ZN21UnityAnalyticsManagerD0Ev
mwi:_SinkProviderData__ctor_m1828480392
ESd:_RaycastResult_ToString_m2233441736_AdjustorThunk
kXg:_Mathf_Sin_m831310046
QHj:_GC_set_hdr_marks
HRa:__Z17SetupObjectMatrixRK10Matrix4x4fi
Vfd:_SecurityFrame_ToString_m1282306399
ybf:_SimpleCollator_MatchesBackwardCore_m1884994267
t7g:_TimeSpan_From_m1249538749
Uaf:_SimpleCollator_GetSortKey_m1317491197
Oic:__Z43Object_CUSTOM_DoesObjectWithInstanceIDExisti
g1:__ZN13RuntimeStaticINSt3__23mapINS0_4pairIPcS3_EEPFbPvR14SafeBinaryReadE20smaller_tstring_pairIPKcENS0_9allocatorINS2_IKS4_S9_EEEEEELb0EE13StaticDestroyES5_
ELg:_MonoEvent_GetCustomAttributes_m3899596098
w7c:__GLOBAL__sub_I_VRGfxHelpers_cpp
hDd:_Convert_ToSByte_m3295168715
ux:__ZN7mecanim9animation16CreateClipMemoryEPKNS0_4ClipEiRNS_6memory9AllocatorE
dLc:_open_face
r1b:__ZZL31RegisterOtherRendererPropertiesR22GenericPropertyBindingEN30Wrapper_RendererReceiveShadows13SetFloatValueEPvf
t$c:__Z17RegisterModule_UIv
e3h:__Z116RuntimeInvoker_Void_t1841601450_PlayableHandleU26_t3483893774_Int32_t2071877448_Single_t2076509932_Int32_t2071877448PK10MethodInfoPvPS2_
W5e:_UnmanagedMemoryStream_Flush_m3305300000
UHj:_GC_printf
Nji:_Camera_FireOnPreRender_m24116662
A9g:_TypeLoadException_GetObjectData_m2885802706
fva:__ZN9GfxDevice24CreateRenderDepthSurfaceE9TextureIDiiii16TextureDimension17DepthBufferFormat18SurfaceCreateFlags
_wg:_ObjectManager_DoFixups_m835924385
vug:_RemotingServices_CreateWellKnownServerIdentity_m3390048085
sM:__ZN11AudioSource16UpdateParametersE12SoundChannel
OG:__ZN4FMOD5Sound11setUserDataEPv
JRb:__ZN14SafeBinaryRead21TransferSTLStyleArrayINSt3__26vectorIN9ShaderLab19SerializedSubShaderENS1_9allocatorIS4_EEEEEEvRT_17TransferMetaFlags
Kmf:_ARC4Managed_KeySetup_m73384687
ZKa:__ZNK25SingleBlockMemoryFileData4SizeEv
Ngb:__ZNK23ArchiveStorageConverter26GetUncompressedArchiveSizeEv
VFd:_DateTime_Equals_m2562884703
lt:__ZN9BlobWrite8TransferIN7mecanim12statemachine18StateMachineMemoryEEEvRT_PKc17TransferMetaFlags
PQa:_UNITY_png_zfree
BK:__ZL50UnityAudioEffect_InternalSetFloatParameterCallbackP14FMOD_DSP_STATEif
jxj:__ZNK15dense_hashtableINSt3__24pairIK10KeyWrapperIP12Il2CppObjectEN6il2cpp2gc9CachedCCWEEES5_NS7_5utils11PointerHashIS3_EEN14dense_hash_mapIS5_S9_SD_NS5_14EqualsComparerINS0_8equal_toIS4_EEEENS0_9allocatorISA_EEE9SelectKeyESI_SK_E3endEv
Jbb:__ZN17LowLevelAllocator4FreeEPvj
Qxd:_KeyMarker__cctor_m2057880225
Z_i:__ZN15dense_hashtableINSt3__24pairIK10KeyWrapperIPK22Il2CppGenericParameterEP11Il2CppClassEES6_N6il2cpp5utils11PointerHashIS4_EEN14dense_hash_mapIS6_S9_SE_NS6_14EqualsComparerINS0_8equal_toIS5_EEEENS0_9allocatorISA_EEE9SelectKeyESJ_SL_E9copy_fromERKSO_j
wWe:_TextInfo_get_ListSeparator_m3426465394
V1e:_FileStream_BeginWrite_m3895959548
Lsf:_Context_set_RecordProtocol_m1968834768
uZ:__ZL19StaticCleanupPlayerPv
YEf:_X509Certificate2Enumerator_MoveNext_m1861665712
f4b:__ZN13PlayableGraph4StopEv
E9:__ZN15dense_hashtableINSt3__24pairIKN4core12basic_stringIcNS2_20StringStorageDefaultIcEEEEP11AssetBundleEES6_20StringHash32FunctionIS6_EN14dense_hash_mapIS6_S9_SC_NS0_8equal_toIS6_EENS0_9allocatorISA_EEE9SelectKeyESF_SH_ED2Ev
g5g:_Monitor_Monitor_wait_m3813798368
skd:_DecoderExceptionFallbackBuffer_Fallback_m3457210607
k6d:_Array_InternalArray__ICollection_Contains_TisDouble_t4078015681_m2262383923_gshared
_bb:__ZN9Behaviour10DeactivateE19DeactivateOperation
wni:_Display_get_renderingWidth_m2127568366
gIe:_Collection_1_System_Collections_IList_get_Item_m2836259259_gshared
kni:_Debug_LogWarning_m2503577968
Ppa:__ZN13StreamingInfo8TransferI14SafeBinaryReadEEvRT_
gSb:__ZN15dense_hashtableINSt3__24pairIKiN4core17string_with_labelILi1EEEEEi18SInt32HashFunctionN14dense_hash_mapIiS5_S7_NS0_8equal_toIiEE13stl_allocatorIS6_L18MemLabelIdentifier1ELi16EEE9SelectKeyESA_SD_E15insert_noresizeERKS6_
$zb:__ZN14SafeBinaryRead21TransferSTLStyleArrayINSt3__26vectorIN4core12basic_stringIcNS3_20StringStorageDefaultIcEEEE13stl_allocatorIS7_L18MemLabelIdentifier12ELi16EEEEEEvRT_17TransferMetaFlags
WUh:__Z87RuntimeInvoker_Boolean_t3825574718_IntPtr_t_Int64_t909078037_MonoIOErrorU26_t1029615899PK10MethodInfoPvPS2_
ZHc:__GLOBAL__sub_I_runtime_dynamics_lump_cpp
rD:__Z23CalculateGlobalRotation23TransformAccessReadOnly
aFf:_X509Store_Close_m2412711366
Cke:_AttributeHelperEngine_GetCustomAttributeOfType_TisIl2CppObject_m581732473_gshared
oRg:_GUILayoutGroup_ResetCursor_m3160916532
o1b:__Z43InitializeRendererAnimationBindingInterfacev
y5:__ZL26DestroyGameObjectRecursiveR10GameObjectR11BatchDelete
crh:_CullStateChangedEvent__ctor_m4025397477
fIj:_GC_allochblk_nth
l5g:_Mutex_ReleaseMutex_m2143813124
Rah:_UInt32_System_IConvertible_ToSByte_m604037412_AdjustorThunk
D0b:__Z7HaloTexP9Texture2DPhiiii
yVj:dynCall_i
ede:_Array_InternalArray__ICollection_CopyTo_TisKeyValuePair_2_t3749587448_m2750720485_gshared
rO:__ZN17AudioCustomFilter4InitEv
iIi:_X509Certificate__cctor_m2984068893
EHb:__ZN14SafeBinaryRead21TransferSTLStyleArrayI13dynamic_arrayIxLj8EEEEvRT_17TransferMetaFlags
HUj:dynCall_f
ZTj:dynCall_v
w3e:_Path__cctor_m3685888661
AHd:_Decimal_System_IConvertible_ToDateTime_m4247760250_AdjustorThunk
def:_BitConverterLE_ULongFromBytes_m2583105400
qab:__ZNSt3__26__treeINS_12__value_typeIN4core12basic_stringIcNS2_20StringStorageDefaultIcEEEEPN16MemoryFileSystem4NodeEEENS_19__map_value_compareIS6_SA_NS_4lessIS6_EELb1EEE13stl_allocatorISA_L18MemLabelIdentifier54ELi16EEE7destroyEPNS_11__tree_nodeISA_PvEE
xjh:_Dictionary_2_ToTKey_m965425080_gshared
Bib:__ZN6Camera23VirtualRedirectTransferER14SafeBinaryRead
Jte:_List_1_System_Collections_IList_Insert_m2838947798_gshared
FMj:__ZNSt3__26vectorINS_12basic_stringIDsNS_11char_traitsIDsEENS_9allocatorIDsEEEENS4_IS6_EEE8__appendEj
s7g:_TimeSpan_FromDays_m2859053398
L4c:__ZN11UnityEngine7Connect13ConnectConfig11ConfigValueD2Ev
oya:__ZNSt3__26__treeINS_12__value_typeIjP14DataBufferGLESEENS_19__map_value_compareIjS4_NS_4lessIjEELb1EEENS_9allocatorIS4_EEE7destroyEPNS_11__tree_nodeIS4_PvEE
k4b:__ZN13PlayableGraph15SetPrepareStageE13DirectorStage
Bb:invoke_viiiiiiii
A6e:_MissingMemberException__ctor_m2869542203
tZh:__Z61RuntimeInvoker_Boolean_t3825574718_DateTimeOffset_t1362988906PK10MethodInfoPvPS2_
NSi:_CachedInvokableCall_1__ctor_m3238306320_gshared
q1a:__ZNK6Camera16GetCullingMatrixEv
xae:_Array_IndexOf_TisIl2CppObject_m1815604637_gshared
Lze:_List_1_Find_m160737912_gshared
KFi:_Uri_EnsureAbsoluteUri_m1892758054
Dob:__ZN16LightmapSettings5ResetEv
WJa:__ZN12FileAccessor4ReadEyPvPy
Glc:__Z42Register_UnityEngine_Event_get_commandNamev
IOa:__Z12IsFirstFramev
Msd:_ArrayList_ThrowNewArgumentOutOfRangeException_m3795973535
cCi:_Regex_Init_m1873144192
hef:_BitConverterLE_ToDouble_m516016818
HX:__ZNK15FileSystemEntry6ExistsEv
Hvb:__ZNK9Transform21GetLocalToWorldMatrixER10Matrix4x4f
ONi:_Transform_TransformDirection_m1639585047
Nz:__ZN26AnimatorControllerPlayable12ResetTriggerEi
HH:__ZN13AudioListener23VirtualRedirectTransferER19StreamedBinaryWriteILb0EE
Sva:__ZN13GfxDeviceGLES11CopyTextureE9TextureIDS0_
wac:__Z72Register_UnityEngine_AssetBundleCreateRequest_DisableCompatibilityChecksv
cYj:_emscripten_glViewport__wrapper
WDc:__ZN16Physics2DManager20IsRigidBodyKinematicERK11Rigidbody2D
bxi:_Context__cctor_m3895126354
yVc:_tt_size_select
qDc:__ZN19CollisionListener2D10EndContactEP9b2Contact
dR:__ZN11UnityEngine15CloudWebService17SessionEventQueue15RestoreFromFileER12FileAccessorPvy
oyb:__ZN14PlayerSettingsD2Ev
t1e:_FileStream_get_Length_m2265080501
I8g:_Type_type_is_assignable_from_m1620694099
VGj:_GC_reclaim_all
jCc:__ZN10ClipperLib15FirstIsBottomPtEPKNS_5OutPtES2_
QZ:__ZN13PlayableGraph14DestroyOutputsEv
ayi:_ContextAttribute_GetPropertiesForNewContext_m4007241045
sf:___syscall122
zlf:_Kernel_Subtract_m2224959291
Dti:_ResourceSet__ctor_m2566914412
iBc:__ZN19CompositeCollider2D22AddColliderToCompositeEP10Collider2DRK13dynamic_arrayIP7b2ShapeLj4EE
Dmf:_ASN1Convert_ToDateTime_m2305963290
ocd:_SymmetricAlgorithm_Finalize_m1665128997
Jkf:_BigInteger__ctor_m2991182310
fhi:_AnimatorStateInfo_IsName_m4069203550
Ibc:__Z52Register_UnityEngine_Camera_INTERNAL_CALL_RaycastTryv
q7a:__ZN13sorted_vectorINSt3__24pairIN4core12basic_stringIcNS2_20StringStorageDefaultIcEEEES6_EEN10vector_mapIS6_S6_27compare_tstring_insensitiveIS6_E13stl_allocatorIS7_L18MemLabelIdentifier37ELi16EEE13value_compareESD_E10insert_oneERKS7_
lQj:_mkdir
mAd:_Convert_ToByte_m791636053
TKh:_InternalEnumerator_1_get_Current_m2986222582_AdjustorThunk
K7a:__ZNSt3__26__treeIN4core12basic_stringIcNS1_20StringStorageDefaultIcEEEENS_4lessIS5_EE13stl_allocatorIS5_L18MemLabelIdentifier37ELi16EEE7destroyEPNS_11__tree_nodeIS5_PvEE
$Uj:dynCall_iifi
d9b:__ZN18ScriptingArguments13CopyFromOtherERKS_
qXg:_Mathf_Ceil_m3621406599
GRc:_ps_hints_close
S2b:__Z16CreateRenderLoopR6Camera
DV:_tlsf_create
XLh:_DefaultComparer_Compare_m4039941311_gshared
Ggh:_Enumerator_MoveNext_m2534596951_AdjustorThunk
CBc:__ZN10ClipperLib7ClipperC1Ei
SCb:__ZN13MonoBehaviour23VirtualRedirectTransferER18StreamedBinaryReadILb0EE
lTb:__ZN9ShaderLab20SerializedSubProgramC2ERKS0_
G0j:_emscripten_glCompileShader__wrapper
Abd:_SHA256Managed_ProcessBlock_m1064908669
RT:__ZN11UnityEngine15CloudWebService17WebFileDownloaderINS0_13WWWRestClientENS0_16WWWRestHeaderMapEE24ExtractResponseEtagValueEv
oSj:__ZNK10__cxxabiv121__vmi_class_type_info27has_unambiguous_public_baseEPNS_19__dynamic_cast_infoEPvi
hEd:_Convert_ToUInt64_m2215781574
DIi:_X509Certificate_VerifySignature_m4020723406
x9g:_TypeInitializationException_GetObjectData_m2244451030
nNd:_CompareInfo_LastIndexOf_m2978196696
Def:_DSAManaged_Generate_m3166917081
jOh:_Enumerator_VerifyCurrent_m3330382363_AdjustorThunk
pvh:_ScrollRect_StopMovement_m1824352159
tl:_emscripten_glGetActiveUniform
zXa:__Z20RenderFullScreenQuadR9GfxDeviceRK6Camera17ShaderChannelMaskRK5RectTIfEf21MonoOrStereoscopicEye
$Ke:_ReadOnlyCollection_1_System_Collections_IList_Contains_m2320811592_gshared
Hea:__ZN16RenderTextureMap5QueryEPK17RenderSurfaceBase
I5e:_UnexceptionalStreamWriter_Write_m186237617
cvh:_ScrollRect_UpdateScrollbars_m3921404746
J$j:_emscripten_glUniform4iv__wrapper
Ppd:_Boolean_CompareTo_m1086129598_AdjustorThunk
C1b:__ZN8Material8GetFloatEN9ShaderLab16FastPropertyNameE
cNc:_psnames_module_class_pic_free
Ijc:__Z11GetGUIStatev
rg:_pthread_key_create
$sd:_ArrayList_Clear_m3834604134
yg:_emscripten_glGetObjectParameterivARB
eha:__ZN15SerializeTraitsI10ColorRGBAfE8TransferI14SafeBinaryReadEEvRS0_RT_
Taj:__ZN6il2cpp2vm13MetadataCache27GetEventDefinitionFromIndexEi
H6:__ZN22BuiltinResourceManager13StaticDestroyEPv
Ige:_Array_Resize_TisCustomAttributeTypedArgument_t1498197914_m3055365808_gshared
Tvc:__ZNK14b2CapsuleShape11ComputeMassEP10b2MassDataf
r5:__ZN10GameObject17GetComponentIndexEPN5Unity9ComponentE
Nrb:__ZN14SafeBinaryRead21TransferSTLStyleArrayI13dynamic_arrayI7SubMeshLj4EEEEvRT_17TransferMetaFlags
Igd:_Single_IsNegativeInfinity_m2615809279
EZe:_Int32_GetTypeCode_m3811463295_AdjustorThunk
Fqf:_CipherSuiteFactory_GetSsl3SupportedCiphers_m2476597368
JAf:_IPv6Address_Fill_m1824197512
kMc:__ZNK13TextRendering4Font11GetMaterialEv
kwb:__Z24ExtractSpriteMeshBuffersP19SpriteRenderingData17ShaderChannelMaskR11MeshBuffers
bXc:_UNITY_tt_face_vary_cvt
dYh:__Z52RuntimeInvoker_Double_t4078015681_Double_t4078015681PK10MethodInfoPvPS2_
Ujc:__Z28DidLoadAllAssembliesCallbackv
W6a:__ZN35RegisterRuntimeInitializeAndCleanup22ExecuteInitializationsEv
bEc:__Z14b2TimeOfImpactP11b2TOIOutputPK10b2TOIInput
jJj:_GC_set_no_dls
wF:__Z97Register_UnityEngine_Experimental_Director_AnimatorControllerPlayable_INTERNAL_CALL_SetBoolStringv
ima:__ZN23PreloadManagerOperation14SetFinalTimingEffff
i:DYNAMICTOP_PTR
xYd:_Dropdown_SetupTemplate_m1416189897
bSa:__Z11CopyTextureP7TextureiiS0_ii
kyb:__ZN13BuildSettings8TransferI18StreamedBinaryReadILb0EEEEvRT_
ish:_PositionAsUV1__ctor_m412270210
cZb:__ZN10GameObject15InitializeClassEv
Qxg:_SerializationInfo_GetInt16_m3549836657
Adc:__Z38Renderer_Get_Custom_PropSortingLayerIDP12Il2CppObject
Oog:__ZL90StencilMaterial_t1630303189_CustomAttributesCacheGenerator_StencilMaterial_Add_m1745413071P21CustomAttributesCache
xKd:_Double_Equals_m920556135_AdjustorThunk
uza:__Z29TextureIdMapGLES_QueryOrAlloc9TextureID
Apf:_CipherSuite_get_ExpandedKeyMaterialSize_m296573450
mzd:_Stack_Push_m284336154
Q1d:_InputField_set_caretBlinkRate_m3521089516
GFd:_DateTime_Add_m4237489122
pXi:__ZL11decimalLog2P19il2cpp_decimal_repr
wzb:__ZN15ResourceManager10Dependency8TransferI14SafeBinaryReadEEvRT_
HU:__ZN3WWWD2Ev
xGj:_GC_extend_size_map
aNh:_Comparer_1_System_Collections_IComparer_Compare_m637596782_gshared
TK:__ZN4FMOD6System9setDriverEi
Iwj:__ZN6il2cpp8metadataL24RecursiveGenericDepthForEPK17Il2CppGenericInst
Y2b:__ZNK9Transform11GetRotationEv
PDf:_X509Certificate2_Find_m833446211
DO:__ZN12AudioManager15DidReloadDomainEv
dSc:_pshinter_get_globals_funcs
oKb:__Z18Transfer_BlittableI24GenerateTypeTreeTransferLb0EyEvRK29SerializationCommandArgumentsR31RuntimeSerializationCommandInfo
Aba:__ZN8Material14CreateMaterialER6ShaderN6Object9HideFlagsEb
off:_KeyPairPersistence_FromXml_m2310151202
Lac:__Z60Register_UnityEngine_AsyncOperation_get_allowSceneActivationv
dHd:_DBNull_System_IConvertible_ToUInt64_m2919804476
vQj:_fread
lnj:__ZN15dense_hashtableINSt3__24pairIK10KeyWrapperIPK14Il2CppAssemblyEPK16MonoAssemblyNameEES6_N6il2cpp5utils11PointerHashIS4_EEN14dense_hash_mapIS6_SA_SF_NS6_14EqualsComparerINS0_8equal_toIS5_EEEENS0_9allocatorISB_EEE9SelectKeyESK_SM_E15set_deleted_keyERKSB_
Cmc:__Z31GUIStyle_CUSTOM_GetFontInternalP12Il2CppObject
QQc:_tt_cmap12_char_map_binary
DUd:_Button_OnPointerClick_m2524861687
Dba:__Z25GetBuiltinResourceManagerv
HHh:_InternalEnumerator_1_System_Collections_IEnumerator_get_Current_m439366097_AdjustorThunk
Twj:__ZN6il2cpp2gc8GCHandle15GetTargetHandleEP12Il2CppObjectii
Ph:_llvm_trap
Z0:__ZNSt3__27__sort5IRNS_6__lessIN12_GLOBAL__N_114ParamNameIndexES3_EEPS3_EEjT0_S7_S7_S7_S7_T_
U$e:_Directory_CreateDirectory_m3561886598
UGj:_get_index
MDc:__ZN16Physics2DManagerD0Ev
QM:__ZN11AudioSource7SetMuteEb
Rrf:_ClientSessionInfo_get_Valid_m3589823308
ngf:_PKCS1_Sign_v15_m2137018891
$5b:__ZN17CollisionMeshData20VertexDataHasChangedEv
vva:__ZN13GfxDeviceGLES30SetBackBufferColorDepthSurfaceEP17RenderSurfaceBaseS1_
Lld:_Latin1Encoding_GetBytes_m1067304501
moc:__Z52Register_UnityEngine_GUIUtility_get_systemCopyBufferv
F4b:__ZN16StreamedResource8TransferI18StreamedBinaryReadILb0EEEEvRT_
pec:__Z49Register_UnityEngine_Input_get_imeCompositionModev
fSb:__ZN15dense_hashtableINSt3__24pairIKiN4core17string_with_labelILi1EEEEEi18SInt32HashFunctionN14dense_hash_mapIiS5_S7_NS0_8equal_toIiEE13stl_allocatorIS6_L18MemLabelIdentifier1ELi16EEE9SelectKeyESA_SD_E12resize_deltaEjj
e2a:__ZNK20OcclusionCullingData22GetStaticRendererCountEv
aPc:_UNITY_tt_face_free_ps_names
SXa:__ZNK6Camera17GetSkyboxMaterialEv
S0j:_emscripten_glDisableVertexAttribArray__wrapper
tEh:_InternalEnumerator_1_get_Current_m3259181373_AdjustorThunk
rMc:__ZZ29InitializeTextRenderingModulevEN16cleanupAfterLoad7ForwardEv
gMc:__ZNSt3__26vectorIN20TextRenderingPrivate8FontImpl13CharacterInfoE13stl_allocatorIS3_L18MemLabelIdentifier34ELi16EEE6insertENS_11__wrap_iterIPKS3_EERS9_
xke:_Array_InternalArray__get_Item_TisUILineInfo_t3621277874_m1432166059_gshared
fvb:__ZN12MeshRenderer18CalculateLocalAABBER4AABBRKS_RK4Mesh
DHi:_X509CertificateCollection_GetEnumerator_m3994741635
pXe:_Guid_ToString_m3927110175
Dbb:__ZN21UnityDefaultAllocatorI17LowLevelAllocatorE8AllocateEji
kKh:_InternalEnumerator_1_get_Current_m889125315_gshared
d1d:_Image_get_preferredHeight_m1045199335
i1h:__Z88RuntimeInvoker_Void_t1841601450_Single_t2076509932_Single_t2076509932_Single_t2076509932PK10MethodInfoPvPS2_
z_c:__ZL28InitializeUIScriptingClassesv
uac:__Z43AssetBundleRequest_Get_Custom_PropAllAssetsP12Il2CppObject
Qla:__ZN10UnityScene10ClearRootsEv
KLa:__ZN12HandlerChain10AtomicMoveER13FileEntryDataS1_
c8d:_SetPropertyUtility_SetStruct_TisBoolean_t3825574718_m752301298_gshared
oIg:_MethodBuilder_GetCustomAttributes_m923430117
o0:__ZN20SpeedTreeWindManager6UpdateEf
_Ha:__ZN9GfxDevice19CreateSparseTextureE9TextureIDii13TextureFormati17TextureColorSpace
MEi:_Literal_GetWidth_m1285678191
EBd:_Decimal_ThrowAtPos_m3318712794
Pgf:_RSAManaged_GetPaddedValue_m4394397
BA:__ZN7mecanim9animation20CreateAvatarConstantEPNS_8skeleton8SkeletonEPNS1_13SkeletonPoseTIN4math4trsXEEES8_PNS_5human5HumanES3_iRKS6_RNS_6memory9AllocatorE
G5e:_UnexceptionalStreamWriter__ctor_m2209699189
Xve:_List_1_Find_m970100220_gshared
qNi:_Transform_INTERNAL_get_rotation_m2427701365
V7d:_Array_InternalArray__ICollection_Remove_TisVector2_t2243707579_m3881494282_gshared
Aub:__ZN14CompressedMesh8TransferI19StreamedBinaryWriteILb0EEEEvRT_
DCg:_AssemblyFileVersionAttribute__ctor_m2026149866
sac:__Z58AssetBundleCreateRequest_CUSTOM_DisableCompatibilityChecksP12Il2CppObject
Vde:_Array_InternalArray__ICollection_CopyTo_TisUILineInfo_t3621277874_m2142954044_gshared
LIg:_TypeBuilder_SetParent_m387557893
eVh:__Z101RuntimeInvoker_Void_t1841601450_Il2CppObject_Il2CppObject_Int32_t2071877448_Il2CppObject_Il2CppObjectPK10MethodInfoPvPS2_
qqf:_CipherSuiteCollection_cultureAwareCompare_m1825407448
FTe:_DateTimeFormatInfo_GetEraName_m1437894363
xee:_Array_InternalArray__Insert_TisLabelFixup_t4090909514_m3927736182_gshared
PVi:_GameManager_TransformColliderInTrigger_m3929525845
mGf:_X509KeyUsageExtension_Encode_m3100824560
Clh:_DefaultComparer_GetHashCode_m1728348656_gshared
g3d:_InputField_MouseDragOutsideRect_m3758282095
bsh:_Outline_ModifyMesh_m3796381413
TIc:__ZN13TextRendering4Font23VirtualRedirectTransferER24GenerateTypeTreeTransfer
E8i:__ZN15dense_hashtableINSt3__24pairIK10KeyWrapperI13dynamic_arrayIPK10Il2CppTypeLj4EEEPFvvEEES8_N6il2cpp8metadata19Il2CppSignatureHashEN14dense_hash_mapIS8_SB_SF_NS8_14EqualsComparerINSE_22Il2CppSignatureCompareEEENS0_9allocatorISC_EEE9SelectKeyESJ_SL_E15destroy_bucketsEjj
XCc:__ZN19CollisionListener2D20SendContactCallbacksER13dynamic_arrayI11Collision2DLj4EE
sHf:_Interpreter_PopulateGroup_m4098755954
hof:_PrivateKeyInfo_DecodeRSA_m919734506
yec:__ZNSt3__27__sort4IRNS_6__lessI11KeyframeTplIfES3_EEPS3_EEjT0_S7_S7_S7_T_
uab:__ZL16MouseMoveHandleriPK20EmscriptenMouseEventPv
KWe:_GuidParser_Reset_m3389485794
rP:__ZN11AudioSource15InitializeClassEv
jLi:_StateMachineBehaviour__ctor_m153194
fBe:_Enumerator_System_Collections_IEnumerator_get_Current_m1270503615_gshared
BRg:_GUILayoutGroup_CalcHeight_m1454440153
LDh:_InternalEnumerator_1_System_Collections_IEnumerator_get_Current_m3315293493_gshared
AUa:__ZN11HaloManager17RenderGeometryJobEP25DynamicVBOGeometryJobDataj
s_e:_Int64_Parse_m4214159959
zGh:_InternalEnumerator_1_System_Collections_IEnumerator_get_Current_m4023948615_gshared
BC:__ZNSt3__227__insertion_sort_incompleteIRPFbN7mecanim9animation13MuscleIndexIdES3_EPS3_EEbT0_S8_T_
uOd:_BaseInput_get_mousePresent_m3571192771
c1j:_emscripten_glBlendEquation__wrapper
iqj:__ZN15dense_hashtableINSt3__24pairIK10KeyWrapperIP11Il2CppClassES4_EES5_N6il2cpp8metadata16SZArrayClassHashEN14dense_hash_mapIS5_S4_SA_NS5_14EqualsComparerINS9_19SZArrayClassCompareEEENS0_9allocatorIS7_EEE9SelectKeyESE_SG_E13set_empty_keyERKS7_
hRj:__ZNSt3__212basic_stringIcNS_11char_traitsIcEENS_9allocatorIcEEE6__initEPKcj
Sj:_emscripten_set_fullscreenchange_callback
_ff:_KeyPairPersistence__IsUserProtected_m3417764903
PGf:_CategoryUtils_CategoryFromName_m226887453
DId:_Decimal_op_Division_m1099836590
sT:__ZN11UnityEngine15CloudWebService14DataDispatcher22ResetNetworkRetryIndexEv
EXg:_Matrix4x4_get_Item_m3317262185
Xj:_emscripten_glDrawArrays
SS:__ZN11UnityEngine15CloudWebService19SessionEventManagerC2Ev
N0e:_File_Open_m1543461971
ESa:__ZNK22RenderingCommandBuffer10FindTempRTERKN9ShaderLab16FastPropertyNameE
Kzi:_LogicalCallContext_GetObjectData_m104142736
wxd:_Hashtable_KeyEquals_m1433874944
c3g:_UnicodeEncoding_Equals_m4105324537
ZBi:_QuickSearch_GetShiftDistance_m2364008966
SMi:_TouchScreenKeyboard_get_text_m538529702
u7c:__ZN13RuntimeStaticI14dynamic_bitsetLb0EE16StaticInitializeEPv
xbc:__Z41Register_UnityEngine_Camera_get_eventMaskv
k_g:_Physics2D_Internal_RaycastNonAlloc_m1874107548
zP:__ZL19CleanupModule_Audiov
iZi:_GenericComparer_1_Compare_m2516380588_gshared
Ngj:__ZN6il2cpp2os4File10DeleteFileERKNSt3__212basic_stringIcNS2_11char_traitsIcEENS2_9allocatorIcEEEEPi
V$e:_File_Exists_m1685968367
_Hb:__Z29Transfer_Blittable_ArrayFieldI14SafeBinaryReadiEvRT_R9ArrayInfoRK23StaticTransferFieldInfo
fdj:__ZN6il2cpp6icalls8mscorlib6System8MonoType8GetFieldEP20Il2CppReflectionTypeP12Il2CppStringi
yZj:_emscripten_glVertexAttrib3fv__wrapper
mSe:_Comparison_1_BeginInvoke_m1549337842_gshared
jZj:_emscripten_glGetIntegerv__wrapper
DJi:_X509Crl_VerifySignature_m25189948
o_b:__ZNK28MonoBehaviourPropertyBinding13GetFloatValueERKN11UnityEngine9Animation10BoundCurveE
iyg:_RuntimeFieldHandle_Equals_m1202966418_AdjustorThunk
xzb:__ZN14SafeBinaryRead21TransferSTLStyleArrayINSt3__26vectorI4PPtrI6ObjectE13stl_allocatorIS5_L18MemLabelIdentifier51ELi16EEEEEEvRT_17TransferMetaFlags
KIj:_GC_generic_malloc
q0g:_Rect_op_Equality_m2793663577
jYb:__ZNSt3__26vectorI16MessageForwarder13stl_allocatorIS1_L18MemLabelIdentifier6ELi8EEE6resizeEj
Ava:__ZN13GfxDeviceGLES32CreateDepthRenderSurfacePlatformEP17RenderSurfaceBase17DepthBufferFormat
cq:__ZN14SafeBinaryRead21TransferSTLStyleArrayI13dynamic_arrayIiLj4EEEEvRT_17TransferMetaFlags
wma:__ZL30RegisterFilteredObjectCallbackPP12Il2CppObjectiPv
MAi:_MatchCollection_TryToGet_m2938913145
t1j:_emscripten_glIsTexture__wrapper
j$g:_Ray_ToString_m2019179238_AdjustorThunk
X7c:_KeyedHashAlgorithm_get_Key_m3672929432
$ua:__ZN9GfxDevice25ReleaseAsyncCommandHeaderEPN21GfxDeviceAsyncCommand3ArgE
HCb:__ZN9TextAsset8TransferI24GenerateTypeTreeTransferEEvRT_
c5h:__Z66RuntimeInvoker_Boolean_t3825574718_Il2CppObject_Double_t4078015681PK10MethodInfoPvPS2_
jnf:_MD2Managed_HashCore_m248147901
oHc:__ZN17Physics2DSettings15InitializeClassEv
MFa:__ZN21UniformBufferTFMethod20IsBoneCountSupportedEi
Xth:_Selectable_FindSelectableOnLeft_m3706572906
C2e:_MemoryStream__ctor_m4073175573
Ufa:__ZN6Shader27MarkShaderStateNotSupportedEPKS_
She:_Array_Sort_TisVector4_t2243707581_TisVector4_t2243707581_m917148421_gshared
C9g:_UInt16_System_IConvertible_ToBoolean_m887616848_AdjustorThunk
clg:__ZL81AnimationTriggers_t3244928895_CustomAttributesCacheGenerator_m_HighlightedTriggerP21CustomAttributesCache
_3a:__ZN10GameObject21EnsureUniqueTransformEbb
kFa:__ZN25TransformFeedbackSkinning8SkinMeshERK18VertexStreamSourceP9GfxBufferP17GPUSkinPoseBufferS4_ii17ShaderChannelMaskb
pvj:__ZN15dense_hashtableINSt3__24pairIK10KeyWrapperIP14Il2CppIUnknownEjEES5_N6il2cpp5utils11PointerHashIS3_EEN14dense_hash_mapIS5_jSB_NS5_14EqualsComparerINS0_8equal_toIS4_EEEENS0_9allocatorIS7_EEE9SelectKeyESG_SI_E12resize_deltaEjj
V2g:_UnicodeEncoding_GetCharCount_m3719064538
Lpd:_Boolean_CompareTo_m3691698947
Dlh:_DefaultComparer_Equals_m3262686272_gshared
rMb:__Z22TransferField_NonArrayI19StreamedBinaryWriteILb0EE27Converter_SimpleNativeClassI8GUIStyleEEvRK23StaticTransferFieldInfoR31RuntimeSerializationCommandInfoRT0_
e4e:_StreamReader_ReadToEnd_m3871366821
lwh:_Selectable_set_interactable_m63718297
NGc:__ZZN10Collider2D15InitializeClassEvEN28FunctorImpl_100kLayerChanged4CallEPviR11MessageData
Ude:_Array_InternalArray__ICollection_CopyTo_TisUICharInfo_t3056636800_m2132994790_gshared
sD:__Z17CalculateGlobalSM23TransformAccessReadOnlyRKN4math7_float4E
Vl:_emscripten_glLoadIdentity
i7a:__ZNSt3__26vectorINS_4pairIN4core12basic_stringIcNS2_20StringStorageDefaultIcEEEEPK17MessageIdentifierEENS_9allocatorISA_EEE26__swap_out_circular_bufferERNS_14__split_bufferISA_RSC_EEPSA_
Xzd:_Decimal_op_GreaterThan_m1625379433
G0a:__Z29CullShadowCastersWithoutUmbraR9IndexListRK17CullingParametersPK4AABBjj
mPi:_Vector3_get_down_m2372302126
_p:__ZN4AABB8TransferI14SafeBinaryReadEEvRT_
GQa:_UNITY_png_destroy_info_struct
jZg:_PlayerConnection_ConnectedCallbackInternal_m2685675347
IXe:_Int16_System_IConvertible_ToDecimal_m2010889121_AdjustorThunk
ovb:__ZN12MeshRenderer23VirtualRedirectTransferER19StreamedBinaryWriteILb0EE
qpb:__ZN18StreamedBinaryReadILb0EE21TransferSTLStyleArrayI13dynamic_arrayI12LightmapDataLj4EEEEvRT_17TransferMetaFlags
Kfc:__Z49Register_UnityEngine_MonoBehaviour_StartCoroutinev
q9a:__Z11MD5ToStringPh
sne:_Enumerator_MoveNext_m2625246500_AdjustorThunk
_dc:__Z38Input_Get_Custom_PropCompositionStringv
$ri:_AnimatorControllerPlayable_INTERNAL_CALL_GetParameterCountInternal_m3593070209
s4g:_UTF8Encoding_GetPreamble_m4179999478
vWh:__Z117RuntimeInvoker_Void_t1841601450_Int64_t909078037_Il2CppObject_Il2CppObject_Int64_t909078037_Il2CppObject_Il2CppObjectPK10MethodInfoPvPS2_
cZg:_ConnectionChangeEvent__ctor_m616483304
tqi:_AnimatorControllerPlayable_SetFloatID_m2632606700
M0i:__ZN6il2cpp2vm5Class19GetArrayElementSizeEPK11Il2CppClass
bdh:_ValueType_InternalEquals_m4068150072
zR:__ZN9JSONWrite8TransferIN4core12basic_stringIcNS1_20StringStorageDefaultIcEEEEEEvRT_PKc17TransferMetaFlags
F3g:_UTF7Encoding_GetByteCount_m253528135
ZRd:_PointerInputModule_CopyFromTo_m2185451090
Hzc:__ZN24b2ChainAndPolygonContact6CreateEP9b2FixtureiS1_iP16b2BlockAllocator
h1e:_FileNotFoundException_GetObjectData_m3405690481
qRj:__ZNSt3__212basic_stringIcNS_11char_traitsIcEENS_9allocatorIcEEE6resizeEjc
ryb:__ZN14PlayerSettings16CheckConsistencyEv
bP:__ZN11AudioModule30GetOrCreateDSPFromCustomFilterEP17AudioCustomFilter
CRa:__ZN19AtomicPageAllocatorD2Ev
An:FUNCTION_TABLE_viiiiiiiiiiiiii
Rvj:__ZN6il2cpp6icalls8mscorlib6System13GlobalizationL20culture_lcid_locatorEPKvS5_
oxa:__ZN13GfxDeviceGLES20DestroyComputeBufferE15ComputeBufferID
vu:__Z30AnimationPlayableEvaluateBeginP35AnimationPlayableEvaluationConstantP32AnimationPlayableEvaluationInputP33AnimationPlayableEvaluationOutput
rFe:_Collection_1_Add_m3182287887_gshared
kGb:__Z33TransferPPtrToMonoObjectUnCheckedi24TransferInstructionFlags
Xmb:__ZNK12CubemapArray16ExtractImageImplEP14ImageReferenceNS0_8BlitModeEbi
Jfc:__Z63Register_UnityEngine_MonoBehaviour_StartCoroutine_Auto_Internalv
U7b:__ZN10systeminfo24GetSystemLanguageCultureEi
x2g:_StringBuilder_Append_m3618697540
Bvh:_ScrollRect_get_normalizedPosition_m1640825682
Xdd:_SecurityElement_IsValidAttributeName_m2201790420
Dyb:__ZN10VRSettings8TransferI14SafeBinaryReadEEvRT_
K9g:_UInt16_System_IConvertible_ToDecimal_m984067306_AdjustorThunk
Aeb:__Z22GetFolderSizeRecursiveRKN4core12basic_stringIcNS_20StringStorageDefaultIcEEEE
AMi:_Texture2D_INTERNAL_CALL_GetPixelBilinear_m570286059
UNc:_UNITY_FT_Outline_Get_CBox
Gce:_Array_InternalArray__ICollection_Add_TisUInt16_t986882611_m2791161149_gshared
ka:invoke_viifiiii
TNh:_Enumerator_Reset_m3115320746_gshared
YTe:_NumberFormatter_FormatDecimal_m1435371940
Maf:_SimpleCollator_GetTailContraction_m1037943844
$8c:_RC2CryptoServiceProvider_CreateEncryptor_m252199767
cYi:_U3CStartU3Ec__Iterator0_MoveNext_m2339115502_gshared
xF:__Z93Register_UnityEngine_Experimental_Director_AnimatorControllerPlayable_INTERNAL_CALL_SetBoolIDv
KRa:__ZN22PerThreadPageAllocator14AcquireNewPageEj
EO:__ZN24AudioScriptBufferManager15DidReloadDomainEv
Fqi:_AnimatorControllerPlayable_SetBoolID_m1141253014
FYa:__ZN6Camera13ClearNoSkyboxEb
WZe:_Int64_System_IConvertible_ToInt64_m989981560_AdjustorThunk
eve:_List_1_CheckIndex_m2576265846_gshared
r0g:_Rect_GetHashCode_m559954498
Ghi:_Application_CallLowMemory_m626389230
Y7i:__ZNK15dense_hashtableI10KeyWrapperIPK17Il2CppGenericInstES4_N6il2cpp8metadata21Il2CppGenericInstHashEN14dense_hash_setIS4_S7_NS4_14EqualsComparerINS6_24Il2CppGenericInstCompareEEENSt3__29allocatorIS4_EEE8IdentityESB_SE_E12test_deletedEj
Bnd:_Array_combsort_m2486643569
Y7:__ZNSt3__27__sort5IR17CompareInstanceIDPP6ObjectEEjT0_S6_S6_S6_S6_T_
Hhb:__ZNSt3__26vectorI17SortingLayerEntryNS_9allocatorIS1_EEE12__move_rangeEPS1_S5_S5_
Slh:_DefaultComparer_Equals_m145577182_gshared
cya:__ZN18GfxFramebufferGLES10InvalidateEv
vjf:_SmallXmlParser_SkipWhitespaces_m2923234398
NHd:_Decimal_System_IConvertible_ToSingle_m1736019752_AdjustorThunk
pBa:__ZN4crnd11crnd_deleteINS_13prefix_coding14decoder_tablesEEEvPT_
PMi:_TouchScreenKeyboard_Open_m2760130151
Y$:__ZN10MemoryPoolD2Ev
xui:_GCHandle__ctor_m2952050298_AdjustorThunk
zkc:__ZNSt3__26__treeINS_12__value_typeIN4core12basic_stringIcNS2_20StringStorageDefaultIcEEEEN5IMGUI12NamedControlEEENS_19__map_value_compareIS6_S9_NS_4lessIS6_EELb1EEENS_9allocatorIS9_EEE7destroyEPNS_11__tree_nodeIS9_PvEE
Zvf:_SslClientStream_get_SelectedClientCertificate_m1580018944
QAd:_DateTime_FromTicks_m75527956
Gef:_KeyGeneratedEventHandler_Invoke_m4220935979
Jra:__ZN15dense_hashtableINSt3__24pairIKiPKN11AssetBundle9AssetInfoEEEi21InstanceIDHashFunctorN14dense_hash_mapIiS6_S8_NS0_8equal_toIiEE13stl_allocatorIS7_L18MemLabelIdentifier65ELi16EEE9SelectKeyESB_SE_E12resize_deltaEjj
pJd:_DebuggerTypeProxyAttribute__ctor_m3082078467
W7d:_Array_InternalArray__ICollection_Remove_TisVector3_t2243707580_m3881497481_gshared
_Pj:___mmap
k9b:__ZN9Scripting26RaiseArgumentNullExceptionEPKc
LV:__ZL18InternalLogConsolePKcz
UOj:_lseek
Oue:_List_1_System_Collections_IList_set_Item_m2267202349_gshared
Loe:_Enumerator_System_Collections_IEnumerator_get_Current_m3866069145_AdjustorThunk
Wie:_Component_GetComponentsInChildren_TisIl2CppObject_m1992201622_gshared
JFe:_Collection_1_ConvertItem_m2972284337_gshared
y3:__Z37scripting_method_get_nth_argumenttype18ScriptingMethodPtri
cN:__ZN11AudioSource16UpdatePauseStateEv
B7:__ZL52StaticUnregisterSceneLoadedCallback_LightmapSettingsPv
Nu:__ZN7mecanim5human25HumanPoseAddAdditiveLayerERNS0_9HumanPoseERKS1_fRKNS_6bitsetILj70EEE
Lfc:__Z48Register_UnityEngine_MonoBehaviour_StopCoroutinev
gAf:_RemoteCertificateValidationCallback_Invoke_m2237177542
_$d:_HorizontalOrVerticalLayoutGroup_set_childForceExpandWidth_m1140293254
fzf:_NameObjectCollectionBase_BaseAdd_m964300824
c6d:_Array_InternalArray__ICollection_Contains_TisKeyValuePair_2_t1174980068_m650645929_gshared
PXa:__ZN27DeviceViewProjMatricesStateD2Ev
qXh:__Z189RuntimeInvoker_Int32_t2071877448_Il2CppObject_Int32_t2071877448_Int32_t2071877448_Il2CppObject_Int32_t2071877448_SByte_t454417549_Int32U26_t455636984_BooleanU26_t3168250738_SByte_t454417549PK10MethodInfoPvPS2_
ead:_RNGCryptoServiceProvider_RngOpen_m2238023214
BDg:_CustomAttributeData_GetCustomAttributes_m4124612360
EJb:__Z18Transfer_BlittableI24GenerateTypeTreeTransferLb0E8Vector3fEvRK29SerializationCommandArgumentsR31RuntimeSerializationCommandInfo
czj:__ZN15dense_hashtableINSt3__24pairIK10KeyWrapperINS1_IPKcS4_EEEiEES6_24NamespaceAndNamePairHashN14dense_hash_mapIS6_iS9_NS6_14EqualsComparerI26NamespaceAndNamePairEqualsEENS0_9allocatorIS8_EEE9SelectKeyESD_SF_E14squash_deletedEv
nAi:_MethodDictionary_CopyTo_m1721788774
irj:__ZN6il2cpp2vm6Thread16RequestInterruptEP12Il2CppThread
Oxf:_TlsStream_get_Position_m3551173234
Xwi:_LeaseManager_SetPollTime_m3137304074
nU:__ZNK3WWW6IsDoneEv
Fwd:_Hashtable_CalcPrime_m1835281409
oJc:__ZNSt3__26vectorINS_4pairINS1_IttEEfEENS_9allocatorIS3_EEE8__appendEj
C5a:__ZN6prcoreL10inner_flipILj2EEEvPhS1_j
NIg:_TypeBuilder_has_ctor_method_m3449702467
gQa:_UNITY_png_text_compress
Nqc:__ZN9JSONWrite8TransferIbEEvRT_PKc17TransferMetaFlags
Xmd:_Array_CreateInstance_m679102425
_ab:__ZN12TLSAllocatorI14StackAllocatorED0Ev
Aui:_GCHandle_GetTarget_m2056570211
Bxb:__ZN11TimeManager16CheckConsistencyEv
i2h:__Z67RuntimeInvoker_Void_t1841601450_Scene_t1684909666_Scene_t1684909666PK10MethodInfoPvPS2_
ZUa:__ZN21GfxDeviceAsyncCommand10ArgScratch15ThreadedCleanupEv
CCc:__ZN10ClipperLib14IntersectPointERNS_5TEdgeES1_RNS_8IntPointE
waf:_MSCompatUnicodeTable_IsJapaneseSmallLetter_m2541532635
Rkf:_BigInteger_GenerateRandom_m1878468830
gJb:__ZN12NativeBufferI27Converter_UnityEngineObjectE15SetupForWritingER9ArrayInfo
y_d:_Graphic_UpdateGeometry_m2431537946
F9e:_ObsoleteAttribute__ctor_m834417715
xe:_glTexImage3D
wP:__Z20RegisterModule_Audiov
zqf:_TlsCipherSuite__ctor_m2983563913
Rga:__ZNSt3__26vectorINS_4pairI11ShaderTagIDS2_EENS_9allocatorIS3_EEE6insertENS_11__wrap_iterIPKS3_EERS8_
Pya:__ZNK13TranslateGLES13BlendEquationE7BlendOp
H9h:__Z55RuntimeInvoker_Boolean_t3825574718_UIVertex_t1204258818PK10MethodInfoPvPS2_
Pzj:__ZN6il2cpp2vm6Object13UnboxNullableEP12Il2CppObjectP11Il2CppClassPv
Ge:_JS_SystemInfo_GetCurrentCanvasWidth
oNe:_ReadOnlyCollection_1_System_Collections_IList_Remove_m2668898250_gshared
G8b:__ZL34GetComponentsImplementationRecurseILb1ELi0ELi1EEbR10GameObjectbRK17CompareParametersRK39GetComponentsImplementation_ReturnValue
yYg:_Mesh_SetColors_m3438776703
xtj:__ZN6il2cpp2vm14PlatformInvoke30MarshalCSharpStringToCppStringEP12Il2CppString
kyj:__ZN6il2cpp2vm5Field10IsInstanceEP9FieldInfo
H8g:_Type_GetTypeHandle_m2405042843
QVi:_GameManager_Update_m969954595
Wyb:__ZN10VRSettings8TransferI18StreamedBinaryReadILb0EEEEvRT_
lFh:_InternalEnumerator_1_System_Collections_IEnumerator_get_Current_m1322273508_AdjustorThunk
zkd:_DecoderFallbackException__ctor_m3081822699
v_e:_Int64_TryParse_m3093198325
gcj:__ZN6il2cpp2vm10ThreadPool5QueueEP14Il2CppDelegatePPvS3_P12Il2CppObject
xMb:__Z19TransferField_ArrayI19StreamedBinaryWriteILb0EE27Converter_SimpleNativeClassI8GradientEEvRK23StaticTransferFieldInfoR31RuntimeSerializationCommandInfoRT0_
c1e:_FileLoadException_ToString_m319701103
s3e:_NullStream_Seek_m1809916110
Zyc:__ZNK12b2WheelJoint16GetReactionForceEf
M5b:__Z13GetImagePixelI10ColorRGBAfET_PKhii13TextureFormat15TextureWrapModeii
IId:_Delegate_SetMulticastInvoke_m361277268
wOd:_BaseInput_GetMouseButtonUp_m32571233
fld:_EncoderReplacementFallbackBuffer_get_Remaining_m2777488845
osb:__ZN7SubMesh8TransferI18StreamedBinaryReadILb0EEEEvRT_
Cfb:__ZN21AssetBundleFileSystem4NameEv
k4g:_UTF8Encoding_GetCharCount_m3557355060
REh:_InternalEnumerator_1_System_Collections_IEnumerator_get_Current_m127456009_gshared
FXg:_Matrix4x4_get_Item_m312280350_AdjustorThunk
lf:_emscripten_glIsEnabled
eOb:__ZN18StreamedBinaryReadILb1EE21TransferSTLStyleArrayI13dynamic_arrayIdLj8EEEEvRT_17TransferMetaFlags
jdc:__Z45Register_UnityEngine_GameObject_get_transformv
F2:__Z29scripting_class_instance_size17ScriptingClassPtr
nzc:__ZN7b2World12DestroyJointEP7b2Joint
zwf:_SslHandshakeHash_initializePad_m4132246594
lFf:_X509CertificateCollection_get_Item_m848456018
vT:__ZN11UnityEngine15CloudWebService19SessionEventManager26ProcessEventQueueJobStaticEPv
BDi:_AnchorInfo_get_IsUnknownWidth_m3747592836
dje:_GameObject_GetComponents_TisIl2CppObject_m374334104_gshared
QT:__ZN11UnityEngine15CloudWebService19SessionEventManager37OnTimerExpiredPerformArchiveJobStaticEPv
P$h:__Z101RuntimeInvoker_OpFlags_t378191910_SByte_t454417549_SByte_t454417549_SByte_t454417549_SByte_t454417549PK10MethodInfoPvPS2_
nA:__ZN23AnimationPlayableOutputC2EjP13PlayableGraph
zMi:_Texture2D_GetPixelBilinear_m3063031185
KNj:__ZN6il2cpp6icalls8mscorlib6System10Reflection4Emit11DerivedType21create_unmanaged_typeEP20Il2CppReflectionType
kD:__ZN7mecanim12statemachine13GetStateIndexEPKNS0_20StateMachineConstantEj
Nvg:_FormatterConverter_ToInt32_m1004171952
V8:__Z29GetOcclusionPortalManagerListv
amd:_Array_System_Collections_IList_set_Item_m4290470392
rug:_RemotingConfiguration_RegisterActivatedServiceType_m4003543022
ahc:__Z39Register_UnityEngine_Sprite_get_texturev
Qwi:_ConfigHandler_GetNotNull_m2454680251
eXi:__ZL10rescale128PyS_Piiiii
oH:__ZN9AudioClip7WWWSeekEPvjS0_
F6d:_Array_InternalArray__ICollection_Contains_TisUInt32_t2149682021_m672455245_gshared
rch:_UIntPtr_System_Runtime_Serialization_ISerializable_GetObjectData_m3481735378
k6:__ZL32StaticInitializeIUnityInterfacesPv
xUa:__Z13CameraProjectRK8Vector3fRK10Matrix4x4fS4_RK5RectTIiERS_b
IAb:__ZN30RuntimeInitializeOnLoadManager15ClassMethodInfo8TransferI19StreamedBinaryWriteILb0EEEEvRT_
l$:__Z22CreateMutexLockedStackv
eFd:_DateTime_System_IConvertible_ToType_m3821835592
HIf:_IntervalCollection_get_Item_m1667788970
Lsa:__ZNSt3__27__sort5IRNS_4lessIN22BuiltinResourceManager8ResourceEEEPS3_EEjT0_S7_S7_S7_S7_T_
Hld:_Latin1Encoding_GetByteCount_m2812921286
vOa:__ZN9ShaderLab11ShaderStateD2Ev
vHd:_Decimal_System_IConvertible_ToByte_m3432160840
z3g:_UTF7Encoding__ctor_m1941256679
eEb:__Z23TransferScriptingObjectI24GenerateTypeTreeTransferEvRT_18ScriptingObjectPtr17ScriptingClassPtrPK15MonoScriptCache
Qvg:_BinaryCommon__cctor_m3619690968
hZj:_emscripten_longjmp__wrapper
kJi:_X509Chain_FindCertificateRoot_m589250107
cQa:_UNITY_png_write_iTXt
dMb:__ZL17Transfer_GUIStyleI19StreamedBinaryWriteILb0EELb0EEvRK29SerializationCommandArgumentsR31RuntimeSerializationCommandInfo
AXh:__Z248RuntimeInvoker_Int32_t2071877448_Il2CppObject_Int32_t2071877448_Int32_t2071877448_Il2CppObject_Int32_t2071877448_UInt32U26_t2197289955_UInt32U26_t2197289955_Il2CppObject_DecoderFallbackBufferU26_t3597875002_ByteU5BU5DU26_t790777611_SByte_t454417549PK10MethodInfoPvPS2_
mOi:_UnityString_Format_m2949645127
lwd:_Comparer_GetObjectData_m3370677985
GXi:_UnityEvent_4_GetDelegate_m2704961864_gshared
HLa:__ZNK12HandlerChain6TargetERK13FileEntryDataR15FileSystemEntry
njd:_Encoding__ctor_m3985582722
Kwg:_ObjectManager_RaiseOnDeserializingEvent_m1841526046
Yid:_String_CreateString_m560359261
GOc:_UNITY_FT_Init_Class_tt_service_get_cmap_info
JAg:_DSA_ToXmlString_m1014346120
eOj:___shlim
ybd:_SHA256Managed__ctor_m1410575277
Tzc:__ZN16b2BlockAllocator4FreeEPvi
iNd:_CompareInfo_internal_index_managed_m859405335
fpd:_Boolean_System_IConvertible_ToDateTime_m2613818037_AdjustorThunk
kbj:__ZNSt3__211__tree_nextIPNS_16__tree_node_baseIPvEEEET_S5_
UOe:_ReadOnlyCollection_1_System_Collections_IList_Clear_m2240307498_gshared
dwj:__ZN15dense_hashtableI10KeyWrapperIP18Il2CppGenericClassES3_N6il2cpp8metadata22Il2CppGenericClassHashEN14dense_hash_setIS3_S6_NS3_14EqualsComparerINS5_25Il2CppGenericClassCompareEEENSt3__29allocatorIS3_EEE8IdentityESA_SD_E14squash_deletedEv
gla:__ZN6prcoreL17RemapGenericFloatI17TexFormatRGBAHalf17TexFormatRGBFloatEEvPKNS_9InnerInfoE
awg:_BinaryFormatter_NoCheckDeserialize_m1968202401
Q_d:_Graphic_CrossFadeAlpha_m4067047552
Pgc:__Z35Sprite_Get_Custom_PropPixelsPerUnitP12Il2CppObject
E_j:_pthread_cond_wait__wrapper
Buc:__ZN9rapidjson12PrettyWriterI16TempBufferWriterNS_4UTF8IcEES3_13JSONAllocatorE10StartArrayEv
_7i:__ZNSt3__26__sortIRN6il2cpp5utils11collections13ArrayValueMapIPK10Il2CppType17Il2CppInteropData26InteropDataToTypeConverterNS1_8metadata14Il2CppTypeLessENSA_26Il2CppTypeEqualityComparerEE12SortComparerEPS8_EEvT0_SH_T_
oEb:__ZN11PreloadDataD2Ev
RGc:__ZZN10Collider2D15InitializeClassEvEN38FunctorImpl_104kCompositeColliderAdded4CallEPviR11MessageData
bc:invoke_iifi
OGc:__ZZN10Collider2D15InitializeClassEvEN31FunctorImpl_101kDidAddComponent4CallEPviR11MessageData
iOf:__ZL79Hashtable_t909839986_CustomAttributesCacheGenerator_Hashtable__ctor_m3742489710P21CustomAttributesCache
byc:__ZNK16b2PrismaticJoint16GetReactionForceEf
RXg:_Mesh__ctor_m2975981674
Hzh:_VertexHelper_AddUIVertexStream_m3599763288
nXg:_Mathf_Abs_m1942863256
qnh:_EqualityComparer_1_System_Collections_IEqualityComparer_Equals_m1565968086_gshared
lfe:_Array_InternalArray__set_Item_TisSlot_t2022531261_m3811041838_gshared
v9c:_RijndaelTransform__cctor_m1393306207
l_d:_Graphic_get_defaultMaterial_m1022773737
jSc:_UNITY_FT_Init_Class_pscmaps_interface
uxh:_Slider_OnDidApplyAnimationProperties_m3202463395
kF:__Z109Register_UnityEngine_Experimental_Director_AnimatorControllerPlayable_INTERNAL_CALL_GetParameterCountInternalv
M$d:_GridLayoutGroup_SetLayoutVertical_m3233681648
Occ:__Z44Register_UnityEngine_RectOffset_get_verticalv
k9g:_Type_MakeGenericType_m973683242
sMj:__ZN6il2cpp2vm9LastError31InitializeLastErrorThreadStaticEv
f0b:__ZN13ProduceHelperI13RenderTextureLb0EE7ProduceE18MemLabelIdentifier18ObjectCreationMode
E_e:_Int64_ToString_m2785525583
KK:__ZN4FMOD6System17setSoftwareFormatEi17FMOD_SOUND_FORMATii18FMOD_DSP_RESAMPLER
mI:__ZN11AudioSource31UpdateEffectVirtualizationStateEb
cMg:_MonoGenericCMethod__ctor_m2520666358
mh:_JS_SystemInfo_GetCurrentCanvasHeight
vsg:_ReturnMessage_get_OutArgs_m299904174
rmc:__Z34GUIStyle_Get_Custom_PropFixedWidthP12Il2CppObject
Ngf:_RSAManaged_get_PublicOnly_m2603845138
LHd:_Decimal_System_IConvertible_ToSByte_m3745141000_AdjustorThunk
HCj:__ZN6il2cpp2gc16GarbageCollector11GetWeakLinkEPPv
R7e:_MonoType_GetMethods_m353342170
uU:__ZN13EmscriptenWWW23HasDownloadedOrMayBlockEv
lBj:__GLOBAL__sub_I_Console_cpp
Yka:__ZN6prcoreL17RemapGenericFloatI14TexFormatRHalf17TexFormatRGBAHalfEEvPKNS_9InnerInfoE
Hcj:__ZN6il2cpp2vm7Runtime11InvokeArrayEPK10MethodInfoPvP11Il2CppArrayPP15Il2CppException
w3b:__ZNK10GameObject23QueryComponentTransformEv
CE:__Z71AnimatorControllerPlayable_CUSTOM_INTERNAL_CALL_PlayInFixedTimeInternalR9HPlayableiif
xVe:_GregorianCalendar_get_Eras_m4010603022
hLd:_Enum_System_IConvertible_ToUInt16_m1001858842
jjh:_Dictionary_2_make_pair_m394533803_gshared
pWc:_Dual_Project
cZ:__GLOBAL__sub_I_runtime_utilities3_lump_cpp
mG:__ZN9AudioClip23VirtualRedirectTransferER14SafeBinaryRead
nEa:__ZN4gles20EnsureTextureCreatedEP7ApiGLESP17RenderSurfaceGLES
E5d:_LayoutRebuilder_U3CRebuildU3Em__2_m3239837417
pVa:__ZN15ReplacementPass13PrepareSubsetEjRK10RenderNodeifRK17ShaderReplaceData
MHd:_Decimal_System_IConvertible_ToSingle_m1736019752
pL:__Z32AudioMeasurement_GetTimeConstantff
rPa:_UNITY_png_compress_IDAT
HDj:__ZN6il2cpp8metadata11FieldLayout12LayoutFieldsEjjjRKNSt3__26vectorIPK10Il2CppTypeNS2_9allocatorIS6_EEEERNS1_15FieldLayoutDataE
Agg:__ZL54ContextMenu_t2283362202_CustomAttributesCacheGeneratorP21CustomAttributesCache
f1a:__ZL27PrepareSceneNodesJobCombineP25ScheduleSceneNodesJobData
b2e:_Stream_EndWrite_m263497992
osd:_Char_Parse_m2121403806
Wrf:_ClientSessionCache_SetContextInCache_m907788136
t8:__ZN18AsyncUploadManager13StaticDestroyEPv
bGg:_EnumBuilder_GetConstructorImpl_m331611313
RDc:__ZN16Physics2DManager26GetGameObjectForRaycastHitERK12RaycastHit2D
uRb:__ZN6Shader7SetNameEPKc
tXd:_DefaultControls_SetParentAndAlign_m3048898502
Hs:__ZN11UnityEngine9Animation35SetTransformPropertyApplyMainThreadER9TransformRKNS0_30AnimatorGenericBindingConstantERKNS0_21AvatarBindingConstantEb
o6a:__ZN19CustomRenderTexture22HandleBoundaryWrappingERKNS_14UpdateZoneInfoEj
gbj:__ZN6il2cpp2vm13MetadataCache32GenerateCustomAttributeTypeCacheEi
AFf:_X509Chain__cctor_m826131835
rIe:_Collection_1_InsertItem_m1073626529_gshared
_nd:_ArrayTypeMismatchException__ctor_m1923871345
eAg:_CspParameters__ctor_m3051314030
uWc:_Direct_Move_Y
sWc:_Direct_Move_X
JEf:_X509ChainElement_Set_m2634474339
coi:_Event_get_isKey_m1145918225
bpd:_Boolean_System_IConvertible_ToByte_m1443044213_AdjustorThunk
Gi:_glClearDepthf
T$b:__ZN19SkinnedMeshRenderer7GetMeshEv
BXb:__ZN19RuntimeSceneManager14GetActiveSceneEv
uZh:__Z81RuntimeInvoker_Int32_t2071877448_Il2CppObject_Int32_t2071877448_Int16_t4041245914PK10MethodInfoPvPS2_
gej:__ZN6il2cpp6icalls8mscorlib6SystemL8IsStaticEPK9EventInfo
xcc:__Z29RectOffset_Set_Custom_PropTopP12Il2CppObjecti
dic:__Z57Register_UnityEngine_Transform_INTERNAL_get_localPositionv
C$a:__ZNSt3__27__sort4IR15ReflProbeSorterPP15ReflectionProbeEEjT0_S6_S6_S6_T_
wcf:_BigInteger_op_Equality_m366854173
rjb:__ZN16GraphicsSettings10SmartResetEv
I2c:__Z55Register_UnityEngine_Analytics_CustomEventData_AddInt16v
irh:_MaskableGraphic_Cull_m3130802047
Tki:_CanvasRenderer_Clear_m2419751129
ivf:_RecordProtocol_MapV2CipherCode_m4064211604
XTh:__Z63RuntimeInvoker_Int16_t4041245914_Il2CppObject_Int32_t2071877448PK10MethodInfoPvPS2_
Pjd:_ASCIIEncoding_GetByteCount_m2696039881
Xuf:_ReceiveRecordAsyncResult_SetComplete_m2441107665
dlb:__ZN20SphericalHarmonicsL28TransferI19StreamedBinaryWriteILb0EEEEvRT_
FVd:_CanvasUpdateRegistry_InternalUnRegisterCanvasElementForLayoutRebuild_m3740187734
H_b:__ZNK28RectTransformPropertyBinding9BindValueER6ObjectRKN11UnityEngine9Animation14GenericBindingERNS3_10BoundCurveE
xFg:_DerivedType_get_AssemblyQualifiedName_m2010127631
uz:__ZN26AnimatorControllerPlayable11DerivesFromE17ScriptingClassPtr
tSg:_GUISkin_set_button_m412653849
Mub:__ZN4Mesh14UploadMeshDataEb
BGh:_InternalEnumerator_1_System_Collections_IEnumerator_get_Current_m4023948615_AdjustorThunk
W$a:__ZN14qsort_internal5QSortIP16RenderObjectDatai25RenderPrePassObjectSorterEEvT_S4_T0_T1_
pkf:_ArgIterator_Equals_m2415994310
j0b:__ZN14RenderSettings12CleanupClassEv
Ygc:__Z43DataUtility_CUSTOM_INTERNAL_CALL_GetPaddingP12Il2CppObjectR8Vector4f
nwa:__ZN9GfxDevice15ImmediateNormalEfff
jld:_EncoderReplacementFallbackBuffer_GetNextChar_m1811006007
j1h:__Z69RuntimeInvoker_Void_t1841601450_Single_t2076509932_Single_t2076509932PK10MethodInfoPvPS2_
nOi:_Vector2__ctor_m3067419446
g5a:__ZN15SerializeTraitsI13dynamic_arrayIN10GameObject13ComponentPairELj4EEE19ResizeSTLStyleArrayERS3_i18MemLabelIdentifier
GKb:__ZN13GUIStyleState8TransferI24GenerateTypeTreeTransferEEvRT_
y4:__ZN20dynamic_block_vectorI14FileIdentifierE22push_back_no_constructEv
Zoa:__ZN9Texture3D23VirtualRedirectTransferER14SafeBinaryRead
z2g:_StringBuilder_Append_m1462406979
YSb:__ZNSt3__26vectorIN9ShaderLab20SerializedSubProgram16TextureParameterENS_9allocatorIS3_EEE8__appendEj
tob:__ZN9Texture2D13UploadTextureEi
C8g:_Type_GetType_m773255995
_Uc:_cff_get_cid_from_glyph_index
nsh:_RawImage__ctor_m527845386
LK:__ZN4FMOD6System19setSoftwareChannelsEi
Bfe:_Array_InternalArray__set_Item_TisResourceCacheItem_t333236149_m2074358118_gshared
xeh:_Enumerator_MoveNext_m3349738440_gshared
lDf:_X500DistinguishedName_DecodeRawData_m3640767187
Ipd:_Boolean_System_IConvertible_ToUInt64_m3594533761
tec:__Z60Register_UnityEngine_Input_INTERNAL_set_compositionCursorPosv
PM:__ZN11AudioSource7SetLoopEb
h9f:__ZL51Collider_t3497673348_CustomAttributesCacheGeneratorP21CustomAttributesCache
TRg:_GUISettings_Internal_GetCursorFlashSpeed_m3799968572
acf:_BigInteger_get_Rng_m1268152318
aPi:_Vector3_op_Division_m3315615850
CLg:_MonoEvent_IsDefined_m3151861274
qRc:_Cubic_To
crf:_TlsStream_WriteInt24_m1660453494
ubc:__Z44Register_UnityEngine_Camera_get_farClipPlanev
mri:_AnimatorControllerPlayable_INTERNAL_CALL_GetLayerNameInternal_m2049776925
QAb:__ZNK17IAnimationBinding30CurveAttributeToSerializedPathERKN11UnityEngine9Animation10BoundCurveE
Exj:__ZN6il2cpp2gc16GarbageCollector14GetOrCreateCCWEP12Il2CppObjectRK10Il2CppGuid
kzj:__ZN6il2cpp2vm5Image21FromTypeNameParseInfoEPK11Il2CppImageRKNS0_17TypeNameParseInfoEb
Eza:__ZN17BufferManagerGLES13AcquireBufferEjN14DataBufferGLES11BufferUsageEb
tzd:_Console_OpenStandardError_m3676373108
V5e:_UnmanagedMemoryStream_SetLength_m1805321486
ldj:__ZNK6il2cpp5utils10functional6FilterINSt3__212basic_stringIcNS3_11char_traitsIcEENS3_9allocatorIcEEEENS0_11StringUtils23CaseInsensitiveComparerEEclIPKcEEbRKT_
gsf:_Context_get_ProtocolNegotiated_m624488778
Lse:_List_1_System_Collections_IList_IndexOf_m1671340024_gshared
Und:_SimpleEnumerator_MoveNext_m1696906961
i6c:__ZN16UnityAdsSettingsD0Ev
Vsf:_Context_StartSwitchingSecurityParameters_m373522596
BFi:_Uri_ParseAsWindowsAbsoluteFilePath_m1108586962
abe:_Array_InternalArray__IndexOf_TisInt16_t4041245914_m1619355230_gshared
nSj:__ZNK10__cxxabiv121__vmi_class_type_info16search_below_dstEPNS_19__dynamic_cast_infoEPKvib
LZe:_Int64_System_IConvertible_ToDateTime_m1002280174
nAd:_Convert_ToByte_m9159597
Zgc:__Z38DataUtility_CUSTOM_Internal_GetMinSizeP12Il2CppObjectP13Vector2fIcall
Y3b:__ZN8PlayableC2E17ScriptingClassPtr18DirectorPlayerType
CDj:__ZN6il2cpp2os6Thread19DetachCurrentThreadEv
tti:_ResourceEnumerator_get_Key_m1012797265
bUe:_NumberFormatter_FormatPercent_m776769918
Bfj:_il2cpp_class_has_attribute
QRg:_GUISettings__ctor_m2453724887
p6g:_Scheduler_ShrinkIfNeeded_m2186823111
Xof:_Alert_get_IsCloseNotify_m577852330
c3:__Z27FindOrCreateMonoScriptCache17ScriptingClassPtr22InitScriptingCacheTypeP6Objecti
lPb:__Z18Transfer_BlittableI18StreamedBinaryReadILb0EELb1E8Vector3fEvRK29SerializationCommandArgumentsR31RuntimeSerializationCommandInfo
JVg:_GUIUtility__cctor_m46116445
g_c:__ZN2UI14CanvasRenderer13SyncVertexPtrER8JobFenceNS0_8SyncFlagE
s3:__Z35scripting_method_get_argument_count18ScriptingMethodPtr
yra:__ZN18AssetBundleManager18SortPreloadObjectsER13dynamic_arrayIiLj4EEb
G9g:_UInt16_System_IConvertible_ToChar_m4055364664_AdjustorThunk
sNi:_Transform_set_rotation_m3411284563
wdc:__Z20Gradient_CUSTOM_InitP12Il2CppObject
Bgb:__ZN21ArchiveStorageCreator11StoreStreamEb
Fwg:_ObjectReader_BlockRead_m2374879830
poc:__Z48Register_UnityEngine_GUIUtility_Internal_ExitGUIv
Toj:__ZN14dense_hash_mapI10KeyWrapperINSt3__24pairIPK9FieldInfoP11Il2CppClassEEEj17ReflectionMapHashIS8_ENS9_14EqualsComparerINS1_8equal_toIS8_EEEENS1_9allocatorINS2_IKS9_jEEEEE15set_deleted_keyERSH_
rqd:_Byte_System_IConvertible_ToDouble_m4224320007
j1a:__ZL21CullDynamicObjectsJobP14CullingJobDataj
DYc:__ZN2UI15ClearCanvasDataER8JobFenceRNS_10CanvasDataE
HDc:__ZN15dense_hashtableINSt3__24pairIKNS1_IPK10Collider2DS4_EE11Collision2DEES5_NS2_23ColliderPairHashFunctorEN14dense_hash_mapIS5_S7_S9_NS0_8equal_toIS5_EE13stl_allocatorIS8_L18MemLabelIdentifier65ELi16EEE9SelectKeyESC_SF_ED2Ev
VAf:_IPAddress_ToString_m1462985652
yAd:_Convert_ToDateTime_m261774113
hNe:_ReadOnlyCollection_1_System_Collections_ICollection_CopyTo_m318855319_gshared
qKg:_MethodBase_GetMethodFromHandleNoGenericCheck_m4274264088
beh:_Enumerator_get_CurrentKey_m1408186928_AdjustorThunk
$6a:__ZN14ManagerContext17InitializeClassesEv
Erh:_MaskUtilities_GetRectMasksForClip_m1540508301
ydb:__ZN19StreamedBinaryWriteILb0EE21TransferSTLStyleArrayINSt3__26vectorI14ConstantStringNS2_9allocatorIS4_EEEEEEvRT_17TransferMetaFlags
Qu:__ZN7mecanim5human20MaskHasRightFootGoalERKNS_6bitsetILj70EEE
TNb:__ZN18StreamedBinaryReadILb1EE21TransferSTLStyleArrayI31ArrayOfManagedObjectsTransfererEEvRT_17TransferMetaFlags
Vpe:_List_1_System_Collections_IList_IndexOf_m406088260_gshared
Gdh:_WeakReference_get_Target_m1672141897
Hcf:_Kernel_DwordDivMod_m4066997639
XRc:_t1_hints_open
UPj:_access
idd:_X509Certificate_GetCertHash_m2299453268
y8c:_MD5CryptoServiceProvider__ctor_m457716966
pNi:_Transform_get_rotation_m1033555130
tCd:_Decimal_s64_m2965457432
m6b:__Z18TransformPoints3x4RK10Matrix4x4fPK8Vector3fjPS2_ji
cnc:__Z38Register_UnityEngine_GUIStyle_InitCopyv
EJ:__ZN4FMOD7Channel11getUserDataEPPv
XOc:_UNITY_tt_face_load_gasp
tOe:_ReadOnlyCollection_1_System_Collections_IList_Insert_m3650067527_gshared
LLc:_ft_ansi_stream_close
hm:_JS_Sound_SetPitch
Hmg:__ZL69InputField_t1631627530_CustomAttributesCacheGenerator_m_TextComponentP21CustomAttributesCache
ogj:_il2cpp_runtime_invoke_convert_args
ptc:__Z19TransferField_ArrayI8JSONRead27Converter_SimpleNativeClassI10RectOffsetEEvRK23StaticTransferFieldInfoR31RuntimeSerializationCommandInfoRT0_
FNh:_Enumerator_get_CurrentKey_m447338908_AdjustorThunk
drf:_Context_get_SecurityProtocol_m1600902905
tuj:__ZN6il2cpp6icalls8mscorlib6System2IO6MonoIO11GetFileStatEP12Il2CppStringPNS3_8FileStatEPi
rVa:__ZNK9ShaderLab9IntShader6GetTagE11ShaderTagIDb
J_a:__Z25CalculateShadowCasterCullbPK5PlaneRK10Matrix4x4fRK8Vector3fff9LightTypeS7_R16ShadowCasterCullPKb
EGc:__Z13RegisterClassI13BoxCollider2DEvv
Xej:_il2cpp_get_corlib
CBg:_HMAC_HashCore_m1869699062
eCg:_Assembly_GetTypes_m1317253146
WXe:_Int16_System_IConvertible_ToType_m2901377575_AdjustorThunk
YZe:_Int64_System_IConvertible_ToSByte_m253213816_AdjustorThunk
a$c:__ZN2UI14CanvasRenderer11SetMaterialEP8Materiali
cSd:_MouseState_SetButtonState_m2329922363
P0e:_FileStream__ctor_m3815606687
LGj:_GC_freehblk
HTe:_NumberFormatter_NumberToString_m668979517
MRe:_ReadOnlyCollection_1_System_Collections_IList_Remove_m2507730234_gshared
gJa:__Z36GiveDebuggerChanceToAttachIfRequiredv
Ngh:_Enumerator_System_Collections_IEnumerator_Reset_m2482663638_gshared
R8b:__ZN9Scripting35DestroyObjectFromScriptingImmediateEP6Objectb
Y_h:__Z93RuntimeInvoker_Il2CppObject_Byte_t3683104436_Il2CppObject_Int32_t2071877448_Int32_t2071877448PK10MethodInfoPvPS2_
F9f:__ZL53Rigidbody2D_t502193897_CustomAttributesCacheGeneratorP21CustomAttributesCache
Htg:_RemotingServices_GetRemoteObject_m3663391550
qXc:__ZN20TextRenderingPrivate22ScriptingTextGenerator9InitVertsEi
mUb:__ZN24GenerateTypeTreeTransfer8TransferINSt3__26vectorIN9ShaderLab20SerializedSubProgram12UAVParameterENS1_9allocatorIS5_EEEEEEvRT_PKc17TransferMetaFlags
yc:invoke_iiiiiiiiiiiiiii
FDj:__ZN6il2cpp2os6Thread33UnregisterCurrentThreadForCleanupEv
v1j:_emscripten_glIsRenderbuffer__wrapper
eKd:_Double_System_IConvertible_ToInt32_m549769450_AdjustorThunk
TYc:__ZN2UI11CanvasGroup8TransferI19StreamedBinaryWriteILb0EEEEvRT_
Ekb:__ZNK20IntermediateRenderer8GetLayerEv
ycj:__ZN6il2cpp5utils9PathUtils7CombineIcEENSt3__212basic_stringIT_NS3_11char_traitsIS5_EENS3_9allocatorIS5_EEEERKSA_RKNS0_10StringViewIS5_EE
erb:__ZN15QualitySettings8TransferI14SafeBinaryReadEEvRT_
K5i:__ZN14dense_hash_mapI10KeyWrapperIPK11Il2CppClassEPKcN6il2cpp5utils11PointerHashIS1_EENS4_14EqualsComparerINSt3__28equal_toIS3_EEEENSC_9allocatorINSC_4pairIKS4_S6_EEEEE13set_empty_keyERSI_
sWe:_TextInfo__ctor_m2782608694
ET:__ZN11UnityEngine15CloudWebService17WebFileDownloaderINS0_13WWWRestClientENS0_16WWWRestHeaderMapEE10InitializeERKN4core12basic_stringIcNS5_20StringStorageDefaultIcEEEESB_SB_
gJi:_X509Store_LoadCertificate_m1082475046
G4e:_StringReader_CheckObjectDisposedException_m3099453260
xyf:_ListDictionary_System_Collections_IEnumerable_GetEnumerator_m2244736244
vzj:__ZNSt3__26vectorIN6il2cpp2vm5Image20EmbeddedResourceDataENS_9allocatorIS4_EEE21__push_back_slow_pathIS4_EEvOT_
_Lj:__ZN6il2cpp2os9FastMutexD2Ev
Aae:_Array_IndexOf_TisCustomAttributeTypedArgument_t1498197914_m3666284377_gshared
hdf:_Kernel_AddSameSign_m2332657679
o2:__ZN14SerializedFile10ReadObjectEx18ObjectCreationModebPPK8TypeTreePbR6Object
nCe:_Collection_1_System_Collections_IList_IndexOf_m3460849589_gshared
k6b:__ZN4Mesh12SetIndexDataEiiPKv16GfxPrimitiveTypei
Psa:__ZN14dynamic_bitset6resizeEjb
QOd:_BaseInputModule_FindCommonRoot_m2696088443
ut:__ZN7mecanim8skeleton16SkeletonPoseCopyIN4math4trsXES3_EEvPKNS0_13SkeletonPoseTIT_EEPNS4_IT0_EE
L5i:__ZN14dense_hash_mapI10KeyWrapperIPK11Il2CppClassEPKcN6il2cpp5utils11PointerHashIS1_EENS4_14EqualsComparerINSt3__28equal_toIS3_EEEENSC_9allocatorINSC_4pairIKS4_S6_EEEEE15set_deleted_keyERSI_
$ta:__ZN9GfxDevice34SetStencilRefWhenStencilWasSkippedEi
E4c:__ZN11UnityEngine7Connect13ConnectConfig20RestoreTimeoutConfigERK13dynamic_arrayIiLj4EEjRS3_
xc:invoke_fi
Qje:_Array_InternalArray__get_Item_TisDecimal_t724701077_m4156246600_gshared
KV:__ZL21InternalAssertConsolePKcz
vc:invoke_ff
Hd:_emscripten_glVertexAttrib3f
mlj:__ZN30dense_hashtable_const_iteratorINSt3__24pairIK10KeyWrapperINS1_IPK11Il2CppImageP11Il2CppClassEEEjEES9_17ReflectionMapHashIS8_EN14dense_hash_mapIS9_jSD_NS9_14EqualsComparerINS0_8equal_toIS8_EEEENS0_9allocatorISB_EEE9SelectKeyESI_SK_EppEv
Xrd:_Char_CompareTo_m3044885427
Iaa:__Z11UpdateInputv
Cve:_List_1_System_Collections_IList_IndexOf_m2887559165_gshared
ghh:_ValueCollection__ctor_m1825701219_gshared
TJc:__ZN20TextRenderingPrivate8TextMesh11ApplyToMeshEv
zxf:_SslStreamBase_get_CanRead_m3061866682
LWj:_emscripten_glDrawRangeElements__wrapper
E9i:__ZN15dense_hashtableINSt3__24pairIK10KeyWrapperIPK11Il2CppClassEPKcEES6_N6il2cpp5utils11PointerHashIS3_EEN14dense_hash_mapIS6_S9_SE_NS6_14EqualsComparerINS0_8equal_toIS5_EEEENS0_9allocatorISA_EEE9SelectKeyESJ_SL_E15insert_noresizeERKSA_
FDb:__Z28scripting_class_is_valuetype17ScriptingClassPtr
Cab:__ZNSt3__25dequeI10InputEventNS_9allocatorIS1_EEE19__add_back_capacityEv
xne:_Enumerator_System_Collections_IEnumerator_Reset_m336811426_AdjustorThunk
TRa:__ZN13ComputeShader13SetValueParamERKN9ShaderLab16FastPropertyNameEiPKv
Tub:__ZN14BlendShapeDataD2Ev
bbj:__ZN6il2cpp2vm13MetadataCache25GetIndexForTypeDefinitionEPK11Il2CppClass
DCa:__ZL18ProgramUniform3uivPK7ApiGLESjiihPKv
qod:_Attribute_IsDefined_m1350918959
L$c:__Z47CanvasRenderer_Set_Custom_PropHasPopInstructionP12Il2CppObjecth
XMg:_MonoProperty_get_DeclaringType_m4236036432
S1c:__ZN21UnityAnalyticsManager15ThreadedCleanupEv
hCa:__ZN5Image8SetImageEii13TextureFormatb
oDb:__ZN17MessageIdentifier21GetRegisteredMessagesEv
_zh:_U3CGetEnumeratorU3Ec__Iterator0_System_Collections_IEnumerator_get_Current_m480171694_gshared
Q6d:_Array_InternalArray__ICollection_Contains_TisContentType_t1028629049_m2321684690_gshared
_T:__Z13RegisterClassI23CloudWebServicesManagerEvv
dCj:__ZN6il2cpp2vm5Array3NewEP11Il2CppClassi
nyj:__GLOBAL__sub_I_Image_cpp
m6e:_Math_Sin_m2320256962
XQe:_ReadOnlyCollection_1_System_Collections_Generic_IListU3CTU3E_Insert_m2409570138_gshared
Pue:_List_1_Add_m2123823603_gshared
sia:__ZNSt3__27__sort5IRPFbRKNS_4pairIN9ShaderLab16FastPropertyNameEfEES6_EPS4_EEjT0_SB_SB_SB_SB_T_
aGc:__ZNK11Rigidbody2D26GetTypeInfoVirtualInternalEv
mp:establishStackSpace
mUd:_CanvasUpdateRegistry__ctor_m4037208045
I9b:__ZN8Material25DidModifyShaderKeywordSetEv
RDj:__ZN14dense_hash_mapI10KeyWrapperIPK19Il2CppGenericMethodEP10MethodInfoN6il2cpp8metadata23Il2CppGenericMethodHashENS4_14EqualsComparerINS8_26Il2CppGenericMethodCompareEEENSt3__29allocatorINSD_4pairIKS4_S6_EEEEE15set_deleted_keyERSG_
JHb:__Z29Transfer_Blittable_ArrayFieldI14SafeBinaryRead4AABBEvRT_R9ArrayInfoRK23StaticTransferFieldInfo
vOe:_ReadOnlyCollection_1_System_Collections_IList_RemoveAt_m2396335261_gshared
NUg:_GUIStyle_CalcHeight_m1685124037
cYd:_Dropdown_set_captionImage_m1952025570
Lig:__ZL56g_UnityEngine_UI_Assembly_CustomAttributesCacheGeneratorP21CustomAttributesCache
Igf:_RSAManaged_remove_KeyGenerated_m452989252
Ncc:__Z46Register_UnityEngine_RectOffset_get_horizontalv
zmb:__ZN18DelayedCallManager8ClearAllEv
a$:__ZZN15DirectorManager15InitializeClassEvEN47FixedUpdateDirectorFixedUpdatePostPhysicsstruct7ForwardEv
c0a:__ZNK25RenderPrePassObjectSorterclERK16RenderObjectDataS2_
cOb:__Z22TransferField_NonArrayI18StreamedBinaryReadILb1EE27Converter_SimpleNativeClassI8GUIStyleEEvRK23StaticTransferFieldInfoR31RuntimeSerializationCommandInfoRT0_
ue:_Mix_LoadWAV_RW
X3b:__ZN15DirectorManager14ConnectionPool8AllocateEi
aOi:_Enumerator__ctor_m147705785
dr:__ZNSt3__27__sort4IRNS_6__lessIN11UnityEngine9Animation13CachedBindingES4_EEPS4_EEjT0_S8_S8_S8_T_
Owj:__ZN6il2cpp2gcL12alloc_handleEPNS0_10HandleDataEP12Il2CppObjectb
H_j:_emscripten_glGetAttribLocation__wrapper
pVd:_CanvasScaler_HandleConstantPhysicalSize_m687057631
jgj:_il2cpp_object_get_virtual_method
b0j:b98
sPa:_UNITY_png_write_flush
Cif:_PKCS12_Encrypt_m1401341763
G4:__ZL16ReadTypeTreeImplILb1EEbR8TypeTreeRK16TypeTreeIteratorRPKhS6_i
SCc:__ZN19CollisionListener2D15DestroyContactsEP10Collider2D
Z$j:b96
Me:_glBlendEquationSeparate
Gbd:_SHA384_Create_m1970724783
rm:_emscripten_glDeleteVertexArrays
pxa:__ZN13GfxDeviceGLES17SetComputeUniformE12ObjectHandleI18ComputeProgram_TagPvER18ComputeShaderParamjPKv
kuj:__ZN6il2cpp6icalls8mscorlib6System2IO6MonoIO5CloseE12Il2CppIntPtrPi
K0j:_emscripten_glValidateProgram__wrapper
Gff:_SmallXmlParser_ReadComment_m1117342068
Te:_emscripten_glUniform3fv
KBb:__ZN20ArchiveStorageHeader41GetSizeRequiredToParseHeaderAndBlocksInfoERKNS_6HeaderE
peb:__Z39GetDefaultApplicationIdentifierForCachev
pfc:__Z35MonoBehaviour_CUSTOM_StartCoroutineP12Il2CppObjectP12Il2CppStringS0_
ega:__ZN9ShaderLab7Program14RemoveVariantsERK13dynamic_arrayI16ShaderKeywordSetLj4EE
ctj:__ZN6il2cpp2vm9Exception20GetArgumentExceptionEPKcS3_
K6d:_Array_InternalArray__ICollection_Contains_TisContactPoint2D_t3659330976_m474619266_gshared
puc:__Z29Transfer_Blittable_ArrayFieldI8JSONReadiEvRT_R9ArrayInfoRK23StaticTransferFieldInfo
y6h:__Z114RuntimeInvoker_Boolean_t3825574718_Il2CppObject_Il2CppObject_Single_t2076509932_SByte_t454417549_Int32_t2071877448PK10MethodInfoPvPS2_
U_j:_glDrawArrays__wrapper
lO:__ZN9AudioClip27IsFormatSupportedByPlatformERKN4core12basic_stringIcNS0_20StringStorageDefaultIcEEEE
aUb:__ZN9ShaderLab26SerializedShaderDependency8TransferI24GenerateTypeTreeTransferEEvRT_
pPc:_UNITY_FT_Match_Size
eWd:_ColorBlock_Equals_m738243050
Sv:__ZN7mecanim20CreateValueArrayMaskEPKNS_18ValueArrayConstantERNS_6memory9AllocatorE
OQj:_free
azf:_NameObjectCollectionBase_GetEnumerator_m646294968
z3c:__ZN11UnityEngine7Connect14AppUpdateEventC2Ev
V4a:__ZNK10GameObject26GetTypeInfoVirtualInternalEv
Vib:__ZN12ImageFilters17RemoveImageFilterERK11ImageFilter
n8i:__ZN15dense_hashtableINSt3__24pairIK10KeyWrapperI13dynamic_arrayIPK10Il2CppTypeLj4EEEPFvvEEES8_N6il2cpp8metadata19Il2CppSignatureHashEN14dense_hash_mapIS8_SB_SF_NS8_14EqualsComparerINSE_22Il2CppSignatureCompareEEENS0_9allocatorISC_EEE9SelectKeyESJ_SL_E4findERS9_
jJa:__Z32AddPathRemapsForBuiltinResourcesRKN4core12basic_stringIcNS_20StringStorageDefaultIcEEEE
RVg:_IL2CPPStructAlignmentAttribute__ctor_m2555798229
WLi:_TextGenerator_GetCharacters_m2554471692
RAb:__ZN3WWW6CreateEPKcS1_iRKNSt3__23mapIN4core12basic_stringIcNS4_20StringStorageDefaultIcEEEES8_NS2_4lessIS8_EENS2_9allocatorINS2_4pairIKS8_S8_EEEEEEb7Hash128j
Bef:_DSAManaged_remove_KeyGenerated_m61544860
e$:__ZZN15DirectorManager15InitializeClassEvEN39PostLateUpdateDirectorRenderImagestruct7ForwardEv
KIb:__ZL26Transfer_SimpleNativeClassI17RemapPPtrTransfer17AnimationCurveTplIfELb0EEvRK29SerializationCommandArgumentsR31RuntimeSerializationCommandInfo
SGi:_KeyUsageExtension_Decode_m4115739726
tm:_glDeleteTransformFeedbacks
yf:_JS_WebRequest_Send
PFj:__ZN6il2cpp2os4Time31GetTicks100NanosecondsMonotonicEv
rCj:__ZNSt3__26__treeINS_12basic_stringIcNS_11char_traitsIcEENS_9allocatorIcEEEENS_4lessIS6_EENS4_IS6_EEE16__construct_nodeIJRKS6_EEENS_10unique_ptrINS_11__tree_nodeIS6_PvEENS_22__tree_node_destructorINS4_ISH_EEEEEEDpOT_
fzd:_Stack_Clear_m771767447
b_e:_Int64_System_IConvertible_ToUInt16_m2638682734
WSf:__ZL102ChannelServices_t2007814595_CustomAttributesCacheGenerator_ChannelServices_RegisterChannel_m3832858065P21CustomAttributesCache
rZj:_emscripten_glGenRenderbuffers__wrapper
QRj:__ZNK10__cxxabiv117__class_type_info24process_found_base_classEPNS_19__dynamic_cast_infoEPvi
wRi:_Nullable_1_Equals_m1889119397_AdjustorThunk
fUg:_GUIStyle_Draw_m3134455812
ibj:__ZN6il2cpp2vm13MetadataCache21GetFieldInfoFromIndexEj
j8h:__Z98RuntimeInvoker_Void_t1841601450_Int32_t2071877448_Int32_t2071877448_Int32_t2071877448_Il2CppObjectPK10MethodInfoPvPS2_
Ssh:_Raycast2DCallback_BeginInvoke_m4219004388
BWh:__Z57RuntimeInvoker_Il2CppObject_Int64_t909078037_Il2CppObjectPK10MethodInfoPvPS2_
kQa:_UNITY_png_write_PLTE
AEj:__GLOBAL__sub_I_String_cpp
GP:__ZN5physx14PxLightCpuTaskD2Ev
Fq:__ZNSt3__26vectorIN4core12basic_stringIcNS1_20StringStorageDefaultIcEEEENS_9allocatorIS5_EEE6assignINS_11__wrap_iterIPS5_EEEENS_9enable_ifIXaasr21__is_forward_iteratorIT_EE5valuesr16is_constructibleIS5_NS_15iterator_traitsISE_E9referenceEEE5valueEvE4typeESE_SE_
Hii:_AudioSettings_InvokeOnAudioConfigurationChanged_m3225073778
Tej:_il2cpp_init
hYc:__ZNSt3__26__treeIPN2UI14CanvasRendererENS_4lessIS3_EENS_9allocatorIS3_EEE7destroyEPNS_11__tree_nodeIS3_PvEE
Kvc:__Z20b2TestSegmentSegmentRK6b2Vec2S1_S1_S1_RS_Rf
I3:__ZNK15dense_hashtableINSt3__24pairIKPKcPK4RTTIEES3_N11TypeManager23ConstCharPtrHashFunctorEN14dense_hash_mapIS3_S7_SA_NS9_19ConstCharPtrEqualToE13stl_allocatorIS8_L18MemLabelIdentifier6ELi16EEE9SelectKeyESC_SF_E23find_position_with_hashERS4_j
Jdc:__Z35Register_UnityEngine_Screen_get_dpiv
oYg:_Mesh_get_normals_m1837187359
Usc:__ZN8JSONRead8TransferIxEEvRT_PKc17TransferMetaFlagsb
r0:__ZN13SpeedTreeWind7AdvanceEbd
wZe:_Int32_TryParse_m2941352213
mza:__ZN18GlslGpuProgramGLES19ApplyGpuProgramGLESERK20GpuProgramParametersPKh
S9b:__ZN9Transform16SetLocalPositionERK8Vector3f
i0d:_LayoutGroup_GetTotalMinSize_m2600700952
iPb:__Z15Transfer_StringI18StreamedBinaryReadILb0EELb0EEvRK29SerializationCommandArgumentsR31RuntimeSerializationCommandInfo
sK:__ZN12SoundManagerC2Ev
VOc:_UNITY_tt_face_free_name
e2j:_emscripten_glSampleCoverage__wrapper
Fhe:_Array_Sort_TisUICharInfo_t3056636800_m37864585_gshared
Tpi:_AnimationOffsetPlayable_get_position_m1047192220
A$j:_emscripten_glGetUniformfv__wrapper
wDa:__ZN14DataBufferGLES3MapEjjj
hIh:_InternalEnumerator_1_System_Collections_IEnumerator_get_Current_m771161214_gshared
No:FUNCTION_TABLE_fidi
Svb:__ZN14SpriteRenderer23VirtualRedirectTransferER19StreamedBinaryWriteILb0EE
IZb:__Z13RegisterClassI9TransformEvv
J7h:__Z132RuntimeInvoker_Il2CppObject_Ray_t2469606224_RaycastHitU26_t1969197280_Single_t2076509932_Int32_t2071877448_Il2CppObject_Il2CppObjectPK10MethodInfoPvPS2_
dia:__ZN18UnityPropertySheet11UnityTexEnv8TransferI19StreamedBinaryWriteILb0EEEEvRT_
zti:_ResourceInfo_t3933049236_marshal_pinvoke_back
cJj:_GC_make_descriptor
klj:__ZNK15dense_hashtableINSt3__24pairIK10KeyWrapperINS1_IPK11Il2CppImageP11Il2CppClassEEEjEES9_17ReflectionMapHashIS8_EN14dense_hash_mapIS9_jSD_NS9_14EqualsComparerINS0_8equal_toIS8_EEEENS0_9allocatorISB_EEE9SelectKeyESI_SK_E5beginEv
afj:_il2cpp_array_new
bce:_Array_InternalArray__ICollection_Add_TisDictionaryEntry_t3048875398_m279246399_gshared
Nvi:_ChannelServices_GetCurrentChannelInfo_m4080942430
JI:__ZN4FMOD3DSP8getInputEiPPS0_PPNS_13DSPConnectionE
e4:__ZN20dynamic_block_vectorI14FileIdentifierE5clearEv
$ub:__ZN10MeshFilter23VirtualRedirectTransferER17RemapPPtrTransfer
SNc:_ft_outline_glyph_bbox
$Xi:_IndexedSet_1_RemoveAll_m2736534958_gshared
MMc:_UNITY_FT_Done_Library
iBg:_HashAlgorithm__ctor_m3777008390
Izh:_VertexHelper__cctor_m1150948588
w_c:__ZN2UI13CanvasManager17EmitDataForCameraEP6Camera
Swc:__Z16b2CollideCirclesP10b2ManifoldPK13b2CircleShapeRK11b2TransformS3_S6_
E7h:__Z70RuntimeInvoker_Single_t2076509932_Int32_t2071877448_Single_t2076509932PK10MethodInfoPvPS2_
Fii:_PCMSetPositionCallback_BeginInvoke_m2507142524
Mce:_Array_InternalArray__ICollection_Add_TisContactPoint2D_t3659330976_m1781705858_gshared
Ggc:__Z44Register_UnityEngine_Material_GetTextureImplv
NJc:__ZN13sorted_vectorIN20TextRenderingPrivate8FontImpl13CharacterInfoENSt3__24lessIS2_EE13stl_allocatorIS2_L18MemLabelIdentifier34ELi16EEE10insert_oneERKS2_
nNi:_Transform_INTERNAL_set_localPosition_m432504087
i$j:_glUniform3uiv__wrapper
Aaa:__ZL8MainLoopv
aDg:_Binder_ConvertArgs_m2999223281
IGg:_TypeBuilder_IsDefined_m3186251655
h0c:__Z47Register_UnityEngine_CanvasRenderer_SetMaterialv
xwi:_ConfigHandler_ValidatePath_m3188987489
wvc:__ZN11UnityEngine9Analytics16StartupTimeEvent23SetAssembliesTimingInfoEyy
hBc:__ZN19CompositeCollider2D22QueryCompositeColliderEPK10Collider2DPK11Rigidbody2D
CMc:__Z26CleanupTextRenderingModulev
_8e:_NumberFormatter_get_IntegerDigits_m3972411141
wvb:__ZThn32_N12MeshRendererD1Ev
HVi:_CameraScroller_Start_m983907360
Xca:__ZN13RenderTexture23VirtualRedirectTransferER19StreamedBinaryWriteILb0EE
Veh:_ShimEnumerator_MoveNext_m2728191736_gshared
Gbh:_UInt64_System_IConvertible_ToInt32_m930227577_AdjustorThunk
XEj:__ZN6il2cpp2vm13ComObjectBase17GetMarshalSizeMaxERK10Il2CppGuidPvjS5_jPj
m1b:__ZN9TransformC2E18MemLabelIdentifier18ObjectCreationMode
MQj:_truncate
MUb:__ZN9ShaderLab27SerializedShaderVectorValue8TransferI18StreamedBinaryReadILb0EEEEvRT_
Npb:__ZN8Renderer21RendererBecameVisibleEv
QPe:_ReadOnlyCollection_1_System_Collections_Generic_ICollectionU3CTU3E_Clear_m2503787861_gshared
gQj:___stpncpy
eFe:_Collection_1_System_Collections_IList_Add_m669232520_gshared
aye:_List_1_RemoveAt_m1843849279_gshared
R$:__ZN10MemoryPool16StaticInitializeEPv
m9:__ZN11TypeManager21CleanupGlobalInstanceEv
v9g:_TypedReference_GetHashCode_m3498861551_AdjustorThunk
w1c:__ZN11UnityEngine9Analytics15UserCustomEvent3AddEPKcRKN4core12basic_stringIcNS4_20StringStorageDefaultIcEEEE
N:Math_atan
Yhj:__ZNSt3__212basic_stringIcNS_11char_traitsIcEENS_9allocatorIcEEE6__initIPKcEENS_9enable_ifIXsr21__is_forward_iteratorIT_EE5valueEvE4typeESA_SA_
qH:__ZNK10SampleClip11GetResourceEv
cKa:__ZN4core12basic_stringIcNS_20StringStorageDefaultIcEEE6resizeEj
Jlc:__Z43Register_UnityEngine_Event_set_displayIndexv
vKh:_InternalEnumerator_1_System_Collections_IEnumerator_get_Current_m2821735692_AdjustorThunk
YHc:__GLOBAL__sub_I_CmEventProfiler_cpp
emf:_PrimalityTests_GetSPPRounds_m873706010
zRe:_ReadOnlyCollection_1_System_Collections_Generic_IListU3CTU3E_Insert_m584948331_gshared
tgh:_Enumerator_Dispose_m1323464986_AdjustorThunk
ohb:__ZN17GlobalGameManager23VirtualRedirectTransferER24GenerateTypeTreeTransfer
U2e:_MemoryStream_ToArray_m547789004
t5c:__ZN19UnityConnectServiceD0Ev
f2e:_MonoIO_SetLength_m1019790894
zch:_UIntPtr_ToString_m387842486
njb:__ZNSt3__26vectorIfNS_9allocatorIfEEE8__appendEjRKf
i4c:__ZN11UnityEngine15PlatformWrapper21GetCopyTextureSupportEv
j_d:_Graphic_get_depth_m3526566553
$Bj:__ZN6il2cpp2vm6Method11GetFullNameEPK10MethodInfo
aP:__ZN11AudioModule27IsFormatSupportedByPlatformEPKc
Ivd:_CollectionBase_get_InnerList_m44314156
iLd:_Enum_System_IConvertible_ToUInt32_m3575456858
lQg:_WindowFunction_BeginInvoke_m322627481
Mhb:__ZNSt3__26vectorI17SortingLayerEntryNS_9allocatorIS1_EEE6assignINS_11__wrap_iterIPS1_EEEENS_9enable_ifIXaasr21__is_forward_iteratorIT_EE5valuesr16is_constructibleIS1_NS_15iterator_traitsISA_E9referenceEEE5valueEvE4typeESA_SA_
qzc:__Z14b2PairLessThanRK6b2PairS1_
Kac:__Z48Register_UnityEngine_AsyncOperation_set_priorityv
iuc:__Z19TransferField_ArrayI8JSONRead16Converter_StringEvRK23StaticTransferFieldInfoR31RuntimeSerializationCommandInfoRT0_
uBc:__ZN15b2WheelJointDef10InitializeEP6b2BodyS1_RK6b2Vec2S4_
xbb:__ZNK25ThreadsafeLinearAllocator22GetAllocatedMemorySizeEv
FSc:_cff_size_request
hmb:__ZN15DirectorManager14ConnectionPool12SwitchBucketEP14ConnectionList
z8g:_Type_EqualsInternal_m266086934
vYc:__ZN2UI11CompareFuncEPNS_6CanvasES1_
xJ:__ZN4FMOD7Channel11set3DSpreadEf
nMj:__ZN6il2cpp2os6Memory14AlignedReAllocEPvjj
W:Math_fround
eSc:_pshinter_get_t1_funcs
Spa:__ZN24GenerateTypeTreeTransfer16TransferTypelessEPjPKc17TransferMetaFlags
c7g:_TimeSpan_get_TotalMinutes_m1645177229
lhf:_SymmetricTransform_InternalTransformBlock_m55428483
ECa:__ZL18ProgramUniform4uivPK7ApiGLESjiihPKv
v7e:_LongComparer_Compare_m398047722
Knh:_EqualityComparer_1_System_Collections_IEqualityComparer_Equals_m2170611288_gshared
jod:_Attribute_CheckParameters_m1754681684
O2g:_UnicodeEncoding_GetByteCount_m2761661599
JYa:__ZN10builtintex21GetAttenuationTextureEv
ln:FUNCTION_TABLE_viiiiiiiiiiiiiii
Dwh:_Selectable_TriggerAnimation_m3096883407
E6b:__ZNK4Mesh19CanAccessFromScriptEv
H8:__Z15GetGraphicsCapsv
dya:__ZN7ApiGLES15BindVertexArrayEN2gl6HandleILNS0_10ObjectTypeE3EEE
cy:__ZN17AnimationPlayable17GetAnimationClipsER13dynamic_arrayIP13AnimationClipLj4EE
fZh:__Z153RuntimeInvoker_Int32_t2071877448_Il2CppObject_Int32_t2071877448_Int32_t2071877448_Int32_t2071877448_SByte_t454417549_SByte_t454417549_Int32U26_t455636984PK10MethodInfoPvPS2_
sZa:__Z20IntersectionAABBAABBRK10MinMaxAABBS1_PS_
ymj:__ZN30dense_hashtable_const_iteratorINSt3__24pairIK10KeyWrapperINS1_IPK9EventInfoP11Il2CppClassEEEjEES9_17ReflectionMapHashIS8_EN14dense_hash_mapIS9_jSD_NS9_14EqualsComparerINS0_8equal_toIS8_EEEENS0_9allocatorISB_EEE9SelectKeyESI_SK_EppEv
I7g:_TimeSpan_op_GreaterThan_m2202243191
HYb:__ZN18BackgroundJobQueue29ScheduleMainThreadJobInternalEPFvPvES0_
lEf:_X509Chain_IsSelfIssued_m2009755967
MYc:__ZN2UI11CanvasGroup23VirtualRedirectTransferER24GenerateTypeTreeTransfer
bFb:__Z18Transfer_BlittableI14SafeBinaryReadLb1EhEvRK29SerializationCommandArgumentsR31RuntimeSerializationCommandInfo
zFd:_DateTime_GetTimeMonotonic_m4135038456
t2g:_StringBuilder_Append_m3636508479
nnf:_MD4_Create_m3565183915
hc:invoke_viifff
J1:__Z22DestroyObjectHighLevelP6Objectb
Sxc:__ZNK12b2MouseJoint10GetAnchorBEv
FWa:__Z26BeginRenderQueueExtractionR15RenderNodeQueuePK16RendererCullDataRK13CullingOutputPK12LODDataArray15ExtractionFlagsP18JobBatchDispatcher
bsi:_AnimatorControllerPlayable_GetParametersArrayInternal_m851504719
MJc:__ZNK13TextRendering4Font10GetTextureEv
V8c:_SymmetricAlgorithm_set_KeySize_m270664177
qj:_emscripten_glVertexAttrib3fv
Jqg:__ZL49Shadow_t4269599528_CustomAttributesCacheGeneratorP21CustomAttributesCache
Urj:__ZN6il2cpp6icalls8mscorlib6System9Threading6Thread16SetName_internalEP12Il2CppThreadP12Il2CppString
uj:_glBeginTransformFeedback
Nsf:_Context_ClearKeyInfo_m205678623
Hqa:__ZN18JobBatchDispatcherC2E11JobPriorityi
Cjc:__ZN8GUIStyle14GetBuiltinFontEv
Dwa:__ZN9GfxDevice13EndFrameStatsEv
K0b:__Z7Empty2DP9Texture2DPhiiii
b$e:_IntPtr_ToString_m1500137303_AdjustorThunk
vSd:_RaycasterManager__cctor_m3713028899
jue:_List_1_CheckCollection_m1228076404_gshared
Yki:_CanvasRenderer_CreateUIVertexStreamInternal_m2886336395
DQi:_SymmetricTransform_ThrowBadPaddingException_m2553969731
VL:__ZL34StaticDestroyAudioCustomFilterRootPv
BSa:__ZN19ComputeShaderKernelD2Ev
hYb:__ZN10systeminfo21GetTemporaryCachePathEv
PHe:_Collection_1_IsValidItem_m2164075061_gshared
Xud:_SynchronizedArrayListWrapper_Sort_m494386848
vuc:__ZN9rapidjson12PrettyWriterI16TempBufferWriterNS_4UTF8IcEES3_13JSONAllocatorE12PrettyPrefixENS_4TypeE
MMa:__ZN15ArchiveReadFile4ReadEyyPvPy
SZh:__Z81RuntimeInvoker_Void_t1841601450_Il2CppObject_Double_t4078015681_Int32_t2071877448PK10MethodInfoPvPS2_
zWb:__ZN12ScriptMapper8TransferI14SafeBinaryReadEEvRT_
Gsf:_Context_set_ClientWriteKey_m1137238126
ZJb:__Z18Transfer_BlittableI24GenerateTypeTreeTransferLb1E10Matrix4x4fEvRK29SerializationCommandArgumentsR31RuntimeSerializationCommandInfo
eEi:_Expression_GetFixedWidth_m2900825908
vD:__Z10SetLocalTR15TransformAccessRKN4math7_float3ERKNS0_7_float4E
RZi:_GenericEqualityComparer_1_Equals_m1663005117_gshared
Fli:_Color_ToString_m4028093047_AdjustorThunk
XEg:_ILGenerator_Mono_GetCurrentOffset_m3553856682
orc:__ZN9JSONWrite8TransferI10Matrix4x4fEEvRT_PKc17TransferMetaFlags
kKf:__ZL58Decimal_t724701077_CustomAttributesCacheGenerator_MinValueP21CustomAttributesCache
ZTc:_cf2_hintmap_map
Coe:_Enumerator_VerifyState_m3639069574_AdjustorThunk
JSf:__ZL50_Module_t2144668161_CustomAttributesCacheGeneratorP21CustomAttributesCache
zHb:__ZN15SerializeTraitsI5RectTIfEE8TransferI14SafeBinaryReadEEvRS1_RT_
tXg:_Mathf_CeilToInt_m2672598779
Ira:__ZNK14SerializedFile15GetTypeIfExistsEx
uhc:__Z41Register_UnityEngine_Texture_get_wrapModev
yLc:_UNITY_FT_Raccess_Get_DataOffsets
dGf:_X509Extension_CopyFrom_m2644634650
m4b:__ZN14PlayableOutputC2EjP13PlayableGraph
Zpb:__ZThn32_NK8Renderer11GetMaterialEi
XUb:__ZN9ShaderLab20SerializedSubProgram8TransferI19StreamedBinaryWriteILb0EEEEvRT_
e2c:__Z13RegisterClassI21UnityAnalyticsManagerEvv
MWf:__ZL118SecurityManager_t3191249573_CustomAttributesCacheGenerator_SecurityManager_t3191249573____SecurityEnabled_PropertyInfoP21CustomAttributesCache
Pre:_List_1_System_Collections_IList_Insert_m813883425_gshared
cvi:_SafeHandle_Dispose_m3871883741
nk:_unsetenv
Sta:__ZN9GfxDevice29GetMinimumNodesPerGraphicsJobEv
iub:__ZN17BlendShapeChannel8TransferI24GenerateTypeTreeTransferEEvRT_
oPg:_GameObject_SendMessage_m71956653
c0g:_Rect_set_yMin_m734445288_AdjustorThunk
yIj:_GC_init_size_map
qTh:__Z131RuntimeInvoker_Void_t1841601450_Int32_t2071877448_Il2CppObject_Il2CppObject_Il2CppObject_Il2CppObject_Il2CppObject_SByte_t454417549PK10MethodInfoPvPS2_
A$:__ZN15DirectorManager17OnSampleFixedTimeEv
B1a:__ZNK13RendererScene21GetDynamicObjectCountEv
Bgh:_Enumerator_System_Collections_IEnumerator_get_Current_m1805365227_AdjustorThunk
qGj:_GC_is_black_listed
C2d:_InputField_set_caretSelectPositionInternal_m2063243072
BKb:__ZN24GenerateTypeTreeTransfer32TransferSTLStyleArrayWithElementI23ManagedObjectTransfererEEvRT_17TransferMetaFlags
zJh:_InternalEnumerator_1_System_Collections_IEnumerator_get_Current_m3043347404_AdjustorThunk
Z1e:_WriteDelegate_BeginInvoke_m2985235908
MGd:_DateTimeOffset_get_Offset_m2335492074_AdjustorThunk
Eqi:_AnimatorControllerPlayable_INTERNAL_CALL_SetBoolID_m2987425503
A0g:_RectOffset_Cleanup_m3198970074
pnc:__Z42Register_UnityEngine_GUIStyle_set_wordWrapv
RMc:_UNITY_FT_Destroy_Class_tt_driver_class
yVh:__Z56RuntimeInvoker_Il2CppObject_StreamingContext_t1417235061PK10MethodInfoPvPS2_
Whc:__Z49Transform_CUSTOM_INTERNAL_CALL_TransformDirectionP12Il2CppObjectRK8Vector3fRS1_
MYe:_Int32_System_IConvertible_ToChar_m719315943_AdjustorThunk
zMj:__ZN6il2cpp6icalls8mscorlib6System7Runtime8Remoting16RemotingServices16GetVirtualMethodEP20Il2CppReflectionTypeP22Il2CppReflectionMethod
yAi:_Match__ctor_m478172746
_ac:__Z42Register_UnityEngine_Behaviour_get_enabledv
p6e:_Math_Pow_m3099781906
_Tg:_GUIStyle_set_font_m312124587
_gj:__ZN6il2cpp2vm14TypeNameParser23ParseNestedTypeOptionalERi
a8e:_MonoType_ReorderParamArrayArguments_m979187413
Zkf:_BigInteger_ToString_m1842353154
ZLj:__ZN6il2cpp2os13FastMutexImplC2Ev
a3c:__ZN22BaseUnityConnectClient14QueueCoreEventERN11UnityEngine15CloudWebService17CloudServiceEventEb
QCh:_InternalEnumerator_1_get_Current_m2882946014_gshared
nAb:__ZN30RuntimeInitializeOnLoadManager9ClassInfo8TransferI14SafeBinaryReadEEvRT_
Hui:_GCHandle_Equals_m170815541_AdjustorThunk
SZa:__ZL13RenderCastersiRK8Vector3fS1_RK13ShadowJobDataR17ShaderPassContextRKNSt3__26vectorI16ShadowCasterData13stl_allocatorIS9_L18MemLabelIdentifier2ELi16EEEERKNS8_I20ShadowCasterPartDataSA_ISG_LSB_2ELi16EEEERK15RenderNodeQueuebPKj
ml:_emscripten_glGetShaderInfoLog
Mhj:__ZNSt3__26vectorIiNS_9allocatorIiEEE8allocateEj
FXf:__ZL100CompressedStack_t1568001503_CustomAttributesCacheGenerator_CompressedStack_GetObjectData_m2387204186P21CustomAttributesCache
I9c:_RIPEMD160Managed_Compress_m3844168032
YGd:_DBNull_System_IConvertible_ToInt32_m3596596664
zYe:_Int16_ToString_m1247017262_AdjustorThunk
J0g:_RectTransform_get_anchorMax_m3816015142
xPc:_UNITY_ft_glyphslot_set_bitmap
cBc:__ZN14b2PolygonShape3SetEPK6b2Vec2i
G2:__ZN24GenerateTypeTreeTransfer18SetScriptingObjectE18ScriptingObjectPtri
W0g:_RectTransform_INTERNAL_get_pivot_m3003734630
bZe:_Int32_System_IConvertible_ToType_m573330549_AdjustorThunk
JDg:_CustomAttributeTypedArgument_Equals_m1555989603
pDj:__ZN6il2cpp2os6ThreadC2EPNS0_10ThreadImplE
BWe:_TextInfo_ToUpper_m299550697
nib:__Z29FindReflectionProbeFromAnchorP9TransformRK4AABBRS1_RsS5_
CIf:_Interval_Merge_m1170166798
ztb:__ZN14SafeBinaryRead21TransferSTLStyleArrayI13dynamic_arrayI13BoneInfluenceLj16EEEEvRT_17TransferMetaFlags
VVc:_Read_CVT_Stretched
Gdj:__ZN6il2cpp6icalls8mscorlib6System18CollectTypeMethodsINS_5utils10functional10TrueFilterEEEvP11Il2CppClassPKS7_jRKT_RNSt3__26vectorIPK10MethodInfoNSE_9allocatorISI_EEEERA65535_b
Kaa:__Z14SetPlayerPause11PlayerPauseb
rPi:_Vector3_op_Equality_m305888255
kZd:_FontData_get_defaultFontData_m3296571046
W2d:_InputField_InPlaceEditing_m1040314765
h_:__Z30scripting_stack_trace_info_for21ScriptingExceptionPtrR14StackTraceInfo
IVj:_glCompressedTexSubImage3D__wrapper
g7g:_TimeSpan_Add_m3228293154_AdjustorThunk
Klj:__ZN15dense_hashtableINSt3__24pairIK10KeyWrapperINS1_IPK12PropertyInfoP11Il2CppClassEEEjEES9_17ReflectionMapHashIS8_EN14dense_hash_mapIS9_jSD_NS9_14EqualsComparerINS0_8equal_toIS8_EEEENS0_9allocatorISB_EEE9SelectKeyESI_SK_EC2ERKSN_j
SI:__ZN15AudioReverbZone7CleanupEv
zGa:__ZN10BufferGLESD0Ev
nJh:_InternalEnumerator_1_System_Collections_IEnumerator_get_Current_m790514740_gshared
cfd:__Z9NullCheckPv
O5c:__ZN22UnityAnalyticsSettings8TransferI14SafeBinaryReadEEvRT_
owc:__ZNK14b2PolygonShape9TestPointERK11b2TransformRK6b2Vec2
QDb:__ZN9Scripting35ErrorMessageForUnsupportedEnumFieldE17ScriptingFieldPtr
fUc:_cf2_hintmask_isNew
mQa:_UNITY_png_write_bKGD
see:_Array_InternalArray__Insert_TisIntPtr_t_m3232864760_gshared
Gla:__ZN6prcoreL26RemapGenericIntegerToFloatI17TexFormatARGB888818TexFormatARGBFloatEEvPKNS_9InnerInfoE
KOa:__ZN15TextureSettings14GetAnisoLimitsERiS0_
l1i:__ZL24UnresolvedVirtualCall_10P12Il2CppObjectPK10MethodInfo
v_j:_emscripten_glCompressedTexSubImage2D__wrapper
IAg:_DSA_FromXmlString_m2141326025
JUg:_GUIStyle_CalcSizeWithConstraints_m4117833199
BNi:_Transform_INTERNAL_set_localScale_m3680777866
pFc:__ZN16b2ContactManager7CollideEv
hcj:__ZN6il2cpp2vmL29SocketPollingThreadEntryPointEPv
AFd:_DateTime_GetNow_m1004310079
mub:__ZN10Matrix4x4f8TransferI18StreamedBinaryReadILb0EEEEvRT_
Cxf:_SslStreamBase_get_Length_m763159069
tSe:_Comparison_1_Invoke_m4190993814_gshared
FM:__ZN4FMOD7Channel19getReverbPropertiesEP29FMOD_REVERB_CHANNELPROPERTIES
vJd:_StackFrame_GetSecureFileName_m389986943
Mvg:_FormatterConverter_ToInt16_m2774942580
nVd:_CanvasScaler_HandleConstantPixelSize_m229625308
CVi:_GameManager_RegisterRight_m520943033
sVd:_CanvasUpdateRegistry_PerformUpdate_m2200492017
Esa:__ZNSt3__26vectorINS_4pairIyP17VertexDeclarationEENS_9allocatorIS4_EEE6insertENS_11__wrap_iterIPKS4_EERS9_
E9g:_UInt16_System_IConvertible_ToByte_m806893944_AdjustorThunk
k3g:_UTF32Encoding_GetCharCount_m3319809517
p8b:__Z12CancelInvokeR13MonoBehaviourR11ICallString
OPg:_GUILayout_Height_m607115982
wdj:__ZN6il2cpp6icalls8mscorlib6System8MonoType13GetInterfacesEP20Il2CppReflectionType
Ogb:__ZN5Cache32GetCachingDiskSpaceFreeAndUsableEv
gO:__ZN9AudioClip16EnableLegacyModeEv
cAb:__ZN14SafeBinaryRead21TransferSTLStyleArrayINSt3__26vectorIi13stl_allocatorIiL18MemLabelIdentifier12ELi16EEEEEEvRT_17TransferMetaFlags
eme:_KeyValuePair_2_ToString_m2613351884_AdjustorThunk
Kne:_Enumerator_System_Collections_IEnumerator_get_Current_m3461301268_AdjustorThunk
iri:_AnimatorControllerPlayable_get_layerCount_m3541790599
DDj:__ZN6il2cpp2os6Thread22SetNativeThreadCleanupEPFvPvE
nac:__Z35Application_Get_Custom_PropPlatformv
ffj:_il2cpp_class_from_system_type
lS:__ZN11UnityEngine15CloudWebService13WWWRestClient6IsDoneEv
DPa:_unity_z_crc32
Fka:__ZN6prcoreL17RemapGenericFloatI18TexFormatRGBAFloat16TexFormatRGFloatEEvPKNS_9InnerInfoE
zaf:_MSCompatUnicodeTable_FillCJKCore_m1100372933
Xcj:__ZN6il2cpp6icalls8mscorlib6System8MonoType8get_NameEP20Il2CppReflectionType
UGb:__ZNSt3__26vectorI10RectOffset13stl_allocatorIS1_L18MemLabelIdentifier1ELi16EEE8__appendEj
VAd:_DateTime_op_Inequality_m1607380213
hx:__ZN21AnimationClipPlayable22PrepareAnimationEventsEfR13dynamic_arrayI22AnimationClipEventInfoLj4EE
T0i:__ZN6il2cpp2vm5Class12HasAttributeEP11Il2CppClassS3_
w6d:_Array_InternalArray__ICollection_Contains_TisResourceCacheItem_t333236149_m1769941464_gshared
Imi:_ContextMenu__ctor_m3931483141
ap:FUNCTION_TABLE_ff
cp:FUNCTION_TABLE_fi
jOd:_BaseEventData_set_selectedObject_m2198139983
Hw:__ZNSt3__227__insertion_sort_incompleteIRN11UnityEngine9Animation11BindingSortEPNS_4pairINS2_14GenericBindingEPNS2_10BoundIndexEEEEEbT0_SB_T_
aNj:__ZN6il2cpp2vm16GenericContainer19GetGenericParameterEPK22Il2CppGenericContainert
Nrd:_Char_System_IConvertible_ToSingle_m2547558725_AdjustorThunk
XQg:_GUILayoutEntry_ApplyOptions_m115321759
Nzb:__ZN18StreamedBinaryReadILb0EE21TransferSTLStyleArrayINSt3__26vectorIN15ResourceManager10DependencyE13stl_allocatorIS5_L18MemLabelIdentifier51ELi16EEEEEEvRT_17TransferMetaFlags
Ad:_emscripten_glGetAttribLocation
b4:__ZNSt3__26vectorINS_4pairIiiEE13stl_allocatorIS2_L18MemLabelIdentifier37ELi16EEE6insertENS_11__wrap_iterIPKS2_EERS8_
mL:__ZN4FMOD12ChannelGroup14getParentGroupEPPS0_
Svf:_SslClientStream_add_ServerCertValidation_m684653638
Ed:_emscripten_set_blur_callback
VLi:_TextGenerator_Invalidate_m3217235344
Ppi:_AnimationClipPlayable_SetRemoveStartOffset_m495055486
TWj:___cxa_pure_virtual__wrapper
YBa:__ZNK14ImageReference9ClipImageEiiii
E_a:__ZN10Matrix4x4f30SetPositionAndOrthoNormalBasisERK8Vector3fS2_S2_S2_
Jib:__ZN5RectTIfE8TransferI24GenerateTypeTreeTransferEEvRT_
kwi:_CrossAppDomainSink__cctor_m1547233779
X9e:_TableRange__ctor_m1944319286_AdjustorThunk
nUa:__ZN12FlareManager6UpdateEv
qXj:_glColorMask__wrapper
ASf:__ZL59_ConstructorInfo_t3269099341_CustomAttributesCacheGeneratorP21CustomAttributesCache
pjh:_Dictionary_2_ContainsKey_m1385349577_gshared
mif:_X509CertificateEnumerator_MoveNext_m1031936092
Etj:__ZN6il2cpp6icalls8mscorlib6System4Type29GetGenericTypeDefinition_implEP20Il2CppReflectionType
Rra:__ZN13LoadOperation7PerformEv
frf:_TlsStream__ctor_m2982031560
ICf:_X509EnhancedKeyUsageExtension__ctor_m4050164330
PGi:_GeneralNames_get_IPAddresses_m1712556836
POb:__ZN18StreamedBinaryReadILb1EE8TransferI8Vector3fEEvRT_PKc17TransferMetaFlags
dIh:_InternalEnumerator_1_get_Current_m2198364332_AdjustorThunk
Yma:__ZN27GenericSlowGarbageCollector16ProcessReferenceEi
cug:_RealProxy_InternalGetProxyType_m858618403
lMd:_FieldAccessException__ctor_m1240495912
nGi:_Uri_HexUnescapeMultiByte_m25670899
fVd:_CanvasScaler_set_dynamicPixelsPerUnit_m742632820
BPj:_fopen
hMc:__ZN20TextRenderingPrivate8FontImplD2Ev
TT:__ZN19CloudServiceHandler8SaveFileERKN4core12basic_stringIcNS0_20StringStorageDefaultIcEEEEPKvj
xCd:_Convert_ToInt16_m2211588645
bGf:_X509EnhancedKeyUsageExtension_CopyFrom_m1426370958
dpc:__ZN9rapidjson13GenericReaderINS_4UTF8IcEES2_13JSONAllocatorE10ParseValueILj1ENS_25GenericInsituStringStreamIS2_EENS_15GenericDocumentIS2_S3_S3_EEEEvRT0_RT1_
kYj:_glFramebufferTexture2D__wrapper
dNj:__ZN6il2cpp6icalls8mscorlib6System7Runtime8Remoting7Proxies9RealProxy27InternalGetTransparentProxyEP12Il2CppObjectP12Il2CppString
Kxe:_List_1_AddEnumerable_m1000825969_gshared
SBj:__ZN6il2cpp2vm6Method10IsInflatedEPK10MethodInfo
PGj:_GC_remove_header
O5i:__ZN15dense_hashtableINSt3__24pairIK10KeyWrapperIPK11Il2CppClassEPKcEES6_N6il2cpp5utils11PointerHashIS3_EEN14dense_hash_mapIS6_S9_SE_NS6_14EqualsComparerINS0_8equal_toIS5_EEEENS0_9allocatorISA_EEE9SelectKeyESJ_SL_E14squash_deletedEv
Lhb:__ZNSt3__26vectorI17SortingLayerEntryNS_9allocatorIS1_EEE7reserveEj
bsf:_Context_set_MasterSecret_m1422386411
mMb:__Z19TransferField_ArrayI19StreamedBinaryWriteILb0EE27Converter_UnityEngineObjectEvRK23StaticTransferFieldInfoR31RuntimeSerializationCommandInfoRT0_
Jjj:__ZN15dense_hashtableINSt3__24pairIK10KeyWrapperIPK10Il2CppTypeEjEES6_N6il2cpp8metadata14Il2CppTypeHashEN14dense_hash_mapIS6_jSB_NS6_14EqualsComparerINSA_26Il2CppTypeEqualityComparerEEENS0_9allocatorIS8_EEE9SelectKeyESF_SH_E6insertERKS8_
tCc:__ZN10ClipperLib7Clipper15AddLocalMinPolyEPNS_5TEdgeES2_RKNS_8IntPointE
zof:_RSAManaged_ToXmlString_m2606223477
vCi:_CharacterClass__ctor_m1318163925
SCg:_AssemblyName_GetObjectData_m1221677827
M9:__ZN15dense_hashtableINSt3__24pairIKN4core12basic_stringIcNS2_20StringStorageDefaultIcEEEEP11AssetBundleEES6_20StringHash32FunctionIS6_EN14dense_hash_mapIS6_S9_SC_NS0_8equal_toIS6_EENS0_9allocatorISA_EEE9SelectKeyESF_SH_E9copy_fromERKSK_j
W0j:_emscripten_glFrontFace__wrapper
xni:_Display_GetRenderingExtImpl_m3739199112
Na:invoke_fiffi
zLj:__ZN6il2cpp5utils6Memory6CallocEjj
v4:__ZN14SerializedFile14SerializedType8ReadTypeILb1EEEbibRPKhS3_Pi
gZh:__Z126RuntimeInvoker_Int32_t2071877448_Il2CppObject_Int32_t2071877448_Il2CppObject_Il2CppObject_SByte_t454417549_Int32U26_t455636984PK10MethodInfoPvPS2_
fYj:_emscripten_glRenderbufferStorage__wrapper
Xlb:__ZN8Playable7SetTimeEd
$0:__ZN13RuntimeStaticI12GraphicsCapsLb0EE16StaticInitializeEPv
gpa:__ZN9Texture3D17UploadToGfxDeviceEv
isc:__Z18Transfer_BlittableI8JSONReadLb1E8Vector4fEvRK29SerializationCommandArgumentsR31RuntimeSerializationCommandInfo
XPc:_tt_cmap2_validate
Juf:_HttpsClientStream_U3CHttpsClientStreamU3Em__1_m4293802471
QUc:_cff_cmap_unicode_done
LUe:_NumberFormatter_Init_m1515770916
LEi:_Literal_Compile_m3864266818
Rbb:__ZN9Scripting20SendScriptingMessageER10GameObjectPKc18ScriptingObjectPtr
Gaa:__Z26IsSplashScreenFadeCompletev
Qub:__Z17SendMessageDirectR6ObjectRK17MessageIdentifierR11MessageData
Zc:_glGenSamplers
Y2d:_InputField_LateUpdate_m1045279070
Abc:__Z42Register_UnityEngine_Camera_get_clearFlagsv
ydj:__ZNSt3__26__treeIP11Il2CppClassNS_4lessIS2_EENS_9allocatorIS2_EEED2Ev
PRg:_GUIScrollGroup_SetVertical_m3540700730
o2g:_StringBuilder_set_Chars_m1019094834
F6a:__ZN13RenderManager27UpdatePreviousFrameMatricesEv
e0a:__ZN6Camera10CustomCullERK23CameraCullingParametersR11CullResults
Pqd:_Byte_System_IConvertible_ToUInt64_m2667486567
j6:__Z22SetManagerPtrInContextiP6Object
Tri:_AnimatorControllerPlayable_GetNextAnimatorClipInfo_m962214430
Yyb:__ZN14PlayerSettings8TransferI19StreamedBinaryWriteILb0EEEEvRT_
Zrc:__Z18Transfer_BlittableI8JSONReadLb0E10ColorRGBAfEvRK29SerializationCommandArgumentsR31RuntimeSerializationCommandInfo
tIe:_Collection_1_Remove_m2017992820_gshared
pee:_Array_InternalArray__Insert_TisInt16_t4041245914_m371511339_gshared
nEg:_ConstructorBuilder_get_next_table_index_m932085784
Shh:_ValueCollection_System_Collections_ICollection_get_SyncRoot_m919209341_gshared
I$h:__Z83RuntimeInvoker_Void_t1841601450_UInt16_t986882611_SByte_t454417549_SByte_t454417549PK10MethodInfoPvPS2_
Axh:_Slider_UpdateDrag_m1963963631
hzg:_SByte_Equals_m755715567
CZ:__ZN15DirectorManagerD2Ev
_af:_SortKeyBuffer_AppendNormal_m2554296431
P$b:__ZNK30SpriteRendererAnimationBinding15GenerateBindingERKN4core12basic_stringIcNS0_20StringStorageDefaultIcEEEEbRN11UnityEngine9Animation14GenericBindingE
Lvj:__ZN6il2cpp6icalls8mscorlib6System13Globalization11CultureInfo45construct_internal_locale_from_current_localeEP17Il2CppCultureInfo
Ymg:__ZL70InputField_t1631627530_CustomAttributesCacheGenerator_m_CaretBlinkRateP21CustomAttributesCache
zae:_Array_IndexOf_TisCustomAttributeNamedArgument_t94157543_m2205974312_gshared
Cae:_Array_IndexOf_TisAnimatorClipInfo_t3905751349_m4033344779_gshared
CFa:__ZN15TextureTFMethod16BindForRenderingEj
R6d:_Array_InternalArray__ICollection_Contains_TisUICharInfo_t3056636800_m2001435744_gshared
Flh:_DefaultComparer_GetHashCode_m3250641461_gshared
ZGf:_Key_ToString_m1129871742
Hnd:_Array_Sort_m1417611156
vyj:__ZN15dense_hashtableINSt3__24pairIK10KeyWrapperINS1_IPKcS4_EEEiEES6_24NamespaceAndNamePairHashN14dense_hash_mapIS6_iS9_NS6_14EqualsComparerI26NamespaceAndNamePairEqualsEENS0_9allocatorIS8_EEE9SelectKeyESD_SF_E4findERS7_
VFi:_Uri_Merge_m2181117222
tfi:_UnityAnalyticsHandler__ctor_m113083880
IJc:__ZN20TextRenderingPrivate8FontImpl13CharacterInfo8TransferI19StreamedBinaryWriteILb0EEEEvRT_
h_h:__Z74RuntimeInvoker_Int32_t2071877448_TimeSpan_t3430258949_TimeSpan_t3430258949PK10MethodInfoPvPS2_
mbj:__ZN6il2cpp2os19SocketHandleWrapper7ReleaseEv
DXd:_DefaultControls_CreateRawImage_m2572997170
$6g:_TimeSpan_get_TotalDays_m3496775483_AdjustorThunk
QO:__ZZL31InitializeAudioManagerCallbacksvEN31PostLateUpdateUpdateAudiostruct7ForwardEv
dyb:__ZNSt3__27__sort4IRNS_6__lessINS_4pairIPKN5Unity4TypeE7Hash128EES8_EEPS8_EEjT0_SC_SC_SC_T_
K5g:_Thread_Start_m1419497481
dTj:dynCall_fff
Gje:_Array_InternalArray__get_Item_TisDictionaryEntry_t3048875398_m2371191320_gshared
$lg:__ZL62FontData_t2614388407_CustomAttributesCacheGenerator_m_RichTextP21CustomAttributesCache
Upi:_AnimationOffsetPlayable_GetPosition_m58420556
$Ob:__ZN18StreamedBinaryReadILb1EE21TransferSTLStyleArrayI13dynamic_arrayIhLj1EEEEvRT_17TransferMetaFlags
cCh:_InternalEnumerator_1_get_Current_m2351441486_gshared
klc:__ZN11IMGUIModule21QueryGUIDisplayTargetE17ScriptingClassPtr
iac:__ZN11UTF16StringC2ERKS_18MemLabelIdentifier
pSg:_GUISkin_set_textField_m1154803040
fTj:dynCall_vidi
IQg:_GUIStyle_GetRectOffsetPtr_m4223228888
uOe:_ReadOnlyCollection_1_System_Collections_IList_Remove_m2350545199_gshared
bWg:_Input_get_mouseScrollDelta_m3430638853
RSj:___udivdi3
ZXb:__ZN11PlayerPrefs9SetStringERKN4core12basic_stringIcNS0_20StringStorageDefaultIcEEEES6_
TJj:__ZN6il2cpp6icalls8mscorlib6System8Delegate18SetMulticastInvokeEP14Il2CppDelegate
Ewc:__ZL18b2FindIncidentEdgeP12b2ClipVertexPK14b2PolygonShapeRK11b2TransformiS3_S6_
W4d:_LayoutGroup_get_minHeight_m2270010946
yya:__ZN4gles16CreateBlendStateER15DeviceStateGLESRK13GfxBlendState
Omf:_ARC4Managed_GenerateIV_m2815460576
Gfd:_String_Substring_m2032624251
f2b:__ZN8Material12CleanupClassEv
vFd:_DateTime_get_DayOfWeek_m2345429939_AdjustorThunk
G8g:_Type_GetTypeCode_m1044483454
Lti:_ResourceSet_GetObjectInternal_m3556256510
nJb:__Z22TransferField_NonArrayI17RemapPPtrTransfer27Converter_SimpleNativeClassI10RectOffsetEEvRK23StaticTransferFieldInfoR31RuntimeSerializationCommandInfoRT0_
XAd:_DateTimeOffset__ctor_m2870721395
HM:__ZN20SoundChannelInstance11set3DSpreadEf
uw:__ZNSt3__26__sortIRN11UnityEngine9Animation11BindingSortEPNS_4pairINS2_14GenericBindingEPNS2_10BoundIndexEEEEEvT0_SB_T_
Aid:_String_ReplaceFallback_m64616664
vMg:_MonoMethod_GetCustomAttributes_m2493833930
Qyb:__ZN24GenerateTypeTreeTransfer32TransferSTLStyleArrayWithElementI16SplashScreenLogoEEvRT_17TransferMetaFlags
djj:__ZN15dense_hashtableINSt3__24pairIK10KeyWrapperINS1_IPK9FieldInfoP11Il2CppClassEEEjEES9_17ReflectionMapHashIS8_EN14dense_hash_mapIS9_jSD_NS9_14EqualsComparerINS0_8equal_toIS8_EEEENS0_9allocatorISB_EEE9SelectKeyESI_SK_E6insertERKSB_
SYe:_Int32_System_IConvertible_ToDouble_m3322226667_AdjustorThunk
l_i:_Enumerator_CheckState_m1761755727_AdjustorThunk
PSj:_memmove
dbc:__Z27Camera_Get_Custom_PropDepthP12Il2CppObject
Czg:_CodeAccessPermission_ToString_m3345031296
Ozj:__ZN6il2cpp2vm6Object5UnboxEP12Il2CppObject
aAf:_FtpWebRequest__ctor_m3003551676
Vac:__Z52Register_UnityEngine_ScriptableObject_CreateInstancev
sgf:_EncryptedPrivateKeyInfo__ctor_m832236482
H$:__ZN23DefaultMeshVertexFormatC2E17ShaderChannelMask
ANb:__ZL26Transfer_SimpleNativeClassI18StreamedBinaryReadILb1EE8GradientLb1EEvRK29SerializationCommandArgumentsR31RuntimeSerializationCommandInfo
Pgd:_Single_Equals_m3359827399
u5g:_Thread_FreeLocalSlotValues_m2948667652
t7a:__ZNSt3__26vectorINS_4pairIN4core12basic_stringIcNS2_20StringStorageDefaultIcEEEES6_EE13stl_allocatorIS7_L18MemLabelIdentifier37ELi16EEE12__move_rangeEPS7_SC_SC_
N4:__ZN14FileCacherReadC2ERKN4core12basic_stringIcNS0_20StringStorageDefaultIcEEEEjj
Aya:__ZN7ApiGLES10InvalidateERK14GfxContextGLES
yTi:_InvokableCall_2_Invoke_m1071013389_gshared
$df:_ASN1Convert_ToOid_m2695991795
eXc:_UNITY_FT_Init_Class_tt_service_truetype_glyf
WLj:__ZN6il2cpp2os5Mutex7TryLockEjb
I$:__Z20IsVectorBuiltinParamPKcPi
_xj:__ZN6il2cpp2vm5Field8GetFlagsEP9FieldInfo
rHh:_InternalEnumerator_1_get_Current_m727737343_AdjustorThunk
ssj:__ZN6il2cpp6icalls8mscorlib6System10ReflectionL16LoadResourceFileEP24Il2CppReflectionAssembly
kY:__Z13IsFileCreatedRKN4core12basic_stringIcNS_20StringStorageDefaultIcEEEE
YKj:__ZN6il2cpp6icalls8mscorlib6System21CurrentSystemTimeZone15GetTimeZoneDataEiPP11Il2CppArrayS6_
Awb:__ZN8Renderer11SetMaterialE4PPtrI8MaterialEi
Lxj:__ZN15dense_hashtableINSt3__24pairIK10KeyWrapperIP12Il2CppObjectEN6il2cpp2gc9CachedCCWEEES5_NS7_5utils11PointerHashIS3_EEN14dense_hash_mapIS5_S9_SD_NS5_14EqualsComparerINS0_8equal_toIS4_EEEENS0_9allocatorISA_EEE9SelectKeyESI_SK_E5eraseE30dense_hashtable_const_iteratorISA_S5_SD_SM_SI_SK_E
nCg:_Assembly_UnprotectedGetName_m3014607408
ehd:_String__cctor_m710226597
r6h:__Z90RuntimeInvoker_Void_t1841601450_Il2CppObject_Il2CppObject_Vector2_t2243707579_Il2CppObjectPK10MethodInfoPvPS2_
HLh:_DefaultComparer_Compare_m3953592365_gshared
YJe:_Collection_1_IsValidItem_m404831699_gshared
B7g:_TimeSpan_Negate_m4198463235_AdjustorThunk
ljb:__ZN12FlareManager9AddCameraER6Camera
vN:__ZN11AudioSource8TransferI14SafeBinaryReadEEvRT_
j6b:__ZN4Mesh17SetIndicesComplexEPKvjj16GfxPrimitiveTypei
mLj:__GLOBAL__sub_I_MemoryMappedFile_cpp
qIe:_Collection_1_Insert_m4010554762_gshared
U$b:__ZNK9Transform22GetPositionAndRotationER8Vector3fR11Quaternionf
$r:__ZN8Animator16TransformChangedEi
MXg:_Matrix4x4_GetColumn_m1367096730_AdjustorThunk
Asa:__ZN17ShaderPassContext8CopyFromERKS_
Taf:_SimpleCollator_GetSortKey_m540875593
mVb:__ZN9ShaderLab9IntShader26CreateFromSerializedShaderERKNS_16SerializedShaderERNSt3__26vectorI4PPtrI6ShaderENS4_9allocatorIS8_EEEEbPS7_
iSa:__ZN19ShaderPropertySheet16SetComputeBufferEN9ShaderLab16FastPropertyNameE15ComputeBufferIDNS_8SetFlagsE
$Dj:__ZNK15dense_hashtableINSt3__24pairIK10KeyWrapperIPK19Il2CppGenericMethodEP10MethodInfoEES6_N6il2cpp8metadata23Il2CppGenericMethodHashEN14dense_hash_mapIS6_S9_SD_NS6_14EqualsComparerINSC_26Il2CppGenericMethodCompareEEENS0_9allocatorISA_EEE9SelectKeyESH_SJ_E5beginEv
x5g:_Thread_GetCachedCurrentCulture_m450033007
Q1a:__ZL12CullGroupJobP20CullingGroupsJobDataj
lHj:_GC_remove_dangling_disappearing_links
ES:__ZN11UnityEngine15CloudWebService14RestDownloader9IsAbortedEv
aA:__ZN7mecanim12statemachine28DestroyStateMachineWorkspaceEPNS0_21StateMachineWorkspaceERNS_6memory9AllocatorE
Qk:_emscripten_glNormalPointer
Qmc:__Z30GUIStyle_CUSTOM_SetDefaultFontP12Il2CppObject
iIf:_Interval_t2354235237_marshal_pinvoke_back
oo:FUNCTION_TABLE_f
fp:FUNCTION_TABLE_i
uId:_Decimal_ToString_m541380585_AdjustorThunk
r9:__ZN11TypeManager12RegisterTypeERK20TypeRegistrationDesc
Fn:FUNCTION_TABLE_v
Ytb:__ZNSt3__26vectorI17BlendShapeChannelNS_9allocatorIS1_EEE8__appendEj
o0d:_Image_get_preserveAspect_m2161836851
nq:__ZN18StreamedBinaryReadILb0EE21TransferSTLStyleArrayI13dynamic_arrayI8Vector3fLj4EEEEvRT_17TransferMetaFlags
hoa:__ZN21LightProbeProxyVolume13GetRenderDataER27LightProbeProxyVolumeSample
Ncj:__ZN6il2cpp2vm7Runtime30CallUnhandledExceptionDelegateEP12Il2CppDomainP14Il2CppDelegateP15Il2CppException
gSi:_Predicate_1_Invoke_m577088274_gshared
jug:_RemotingProxy_get_TypeName_m1400928020
Kxb:__ZN11TimeManager8TransferI24GenerateTypeTreeTransferEEvRT_
Yaf:_SortKeyBuffer_GetResult_m962852575
Faf:_SimpleCollator_Category_m1504096908
Wq:__ZNK11UnityEngine9Animation28GenericAnimationBindingCache10BindCustomERKNS0_14GenericBindingER9TransformRNS0_10BoundCurveE
q5c:__ZN18UnityConnectClient17InitConnectClientEv
bBh:_ArrayReadOnlyList_1_ReadOnlyError_m2158247090_gshared
oOj:_memcmp
NFd:_DateTime_CompareTo_m3372173896
v0g:_Rect_ToString_m2728794442
Kma:__ZN9Scripting32GetCachedPtrFromScriptingWrapperE18ScriptingObjectPtr
XZc:__ZN2UI29ScheduleUIJobsForInstructionsERNS_7BatchesEjPKNS_13UIInstructionEfjjPNS_13CanvasJobDataE
bL:__ZN5audio5mixer22CreateAudioMixerMemoryERKNS0_18AudioMixerConstantEPN4FMOD6SystemERN7mecanim6memory9AllocatorEib
_B:__ZZN8Animator15InitializeClassEvEN43FunctorImpl_425kDidModifyAnimatorController4CallEPviR11MessageData
Bvf:_RSASslSignatureDeformatter_VerifySignature_m3138484348
mde:_Array_InternalArray__ICollection_CopyTo_TisDecimal_t724701077_m1087621311_gshared
weh:_Enumerator_System_Collections_IDictionaryEnumerator_get_Value_m2325383168_AdjustorThunk
$Cd:_Convert_ToInt64_m4280008532
Rec:__Z28Mesh_CUSTOM_SetTrianglesImplP12Il2CppObjectiP11Il2CppArrayih
Eng:__ZL61RawImage_t2749640213_CustomAttributesCacheGenerator_m_TextureP21CustomAttributesCache
ysa:__ZL20ShaderWarmupFuncImplP6ShaderiPN9ShaderLab4PassERK16ShaderKeywordSetP10DynamicVBOPvR17ShaderPassContext
iFc:__ZN7b2World4StepEfii
BLi:_Vector2_get_zero_m3966848876
U7i:__ZN15dense_hashtableI10KeyWrapperIPK17Il2CppGenericInstES4_N6il2cpp8metadata21Il2CppGenericInstHashEN14dense_hash_setIS4_S7_NS4_14EqualsComparerINS6_24Il2CppGenericInstCompareEEENSt3__29allocatorIS4_EEE8IdentityESB_SE_E6insertERKS4_
vij:__ZN15dense_hashtableINSt3__24pairIK10KeyWrapperINS1_IPK14Il2CppAssemblyP11Il2CppClassEEEjEES9_17ReflectionMapHashIS8_EN14dense_hash_mapIS9_jSD_NS9_14EqualsComparerINS0_8equal_toIS8_EEEENS0_9allocatorISB_EEE9SelectKeyESI_SK_E3endEv
qth:_Scrollbar_set_numberOfSteps_m579707524
yOj:_fmt_u
Dza:__ZN14DataBufferGLES12RecordUpdateEv
XUh:__Z92RuntimeInvoker_Void_t1841601450_Il2CppObject_Il2CppObject_SByte_t454417549_Int32_t2071877448PK10MethodInfoPvPS2_
iOg:_ResourceManager__cctor_m2190112652
YKc:__ZN20TextRenderingPrivate15DynamicFontData28GetFaceForFontRefFromOSFontsERKNS_7FontRefE
sfc:__Z34MonoBehaviour_CUSTOM_StopCoroutineP12Il2CppObjectP12Il2CppString
I2a:__ZN10systeminfo19IsPlatformWebPlayerE15RuntimePlatform
Qzj:__ZN6il2cpp2vm12GenericClass12SetupMethodsEP11Il2CppClass
mX:__ZNK20LocalFileSystemPosix18GetApplicationPathEv
zBd:_Decimal__ctor_m3876694886
CDb:__ZN9Scripting30IsSystemCollectionsGenericListE17ScriptingClassPtr
o6d:_Array_InternalArray__ICollection_Contains_TisIntPtr_t_m3256777387_gshared
sod:_AttributeUsageAttribute__ctor_m2873156923
n_c:__ZN2UI23InitializeCanvasManagerEv
T4a:__ZN10GameObject16CheckConsistencyEv
h0b:__ZN14RenderSettings15InitializeClassEv
oCf:_AsnEncodedData_set_Oid_m3568255745
ndc:__Z46Register_UnityEngine_GameObject_get_activeSelfv
DBb:__ZN20ArchiveStorageHeader11WriteHeaderER12FileAccessorRKNS_6HeaderE
pwf:_SslClientStream_OnRemoteCertificateValidation2_m3416857045
Cyg:_RuntimeTypeHandle_Equals_m452760426_AdjustorThunk
uji:_Camera_get_depth_m1329692468
Qhd:_String_TrimStart_m710830036
ZKh:_InternalEnumerator_1_System_Collections_IEnumerator_get_Current_m762846484_AdjustorThunk
G$b:__ZN14SpriteRenderer13GetRenderDataEv
jnj:__ZN14dense_hash_mapI10KeyWrapperIPK14Il2CppAssemblyEPK16MonoAssemblyNameN6il2cpp5utils11PointerHashIS2_EENS4_14EqualsComparerINSt3__28equal_toIS3_EEEENSD_9allocatorINSD_4pairIKS4_S7_EEEEE15set_deleted_keyERSJ_
zej:_AnalyticsTracker_OnEnable_m1011291651
yZc:__ZN2UI16GetCanvasManagerEv
Qkc:__ZNK8GUIStyle20GetCursorStringIndexERK5RectTIfER10GUIContentRK8Vector2f
J6b:__ZN15GUIEventManager8PopEventER10InputEvent
ucc:__Z31RectOffset_Get_Custom_PropRightP12Il2CppObject
NXc:__Z54Register_UnityEngine_TextGenerator_GetVerticesInternalv
_8c:__Z3BoxP11Il2CppClassPv
ENd:_CultureInfo_Clone_m2970753766
DHf:_IntStack_Push_m1259764820
GFa:__ZN21UniformBufferTFMethodD2Ev
T0e:_FileStream_InitBuffer_m2153931481
l9g:_Type_MakeGenericType_m2765875033
y8b:__ZL34GetComponentsImplementationRecurseILb1ELi1ELi2EEbR10GameObjectbRK17CompareParametersRK39GetComponentsImplementation_ReturnValue
Cja:__ZN6prcoreL12RemapGenericI15TexFormatRGB56515TexFormatRGB888EEvPKNS_9InnerInfoE
i3d:_InputField_OnEndDrag_m1818224847
JTe:_NumberFormatter_GetInstance_m2421260460
A$c:__Z41CanvasGroup_Get_Custom_PropBlocksRaycastsP12Il2CppObject
PRb:__ZNSt3__26vectorIN9ShaderLab26SerializedShaderDependencyENS_9allocatorIS2_EEE8__appendEj
I7h:__Z113RuntimeInvoker_Boolean_t3825574718_Ray_t2469606224_RaycastHitU26_t1969197280_Single_t2076509932_Int32_t2071877448PK10MethodInfoPvPS2_
DFh:_InternalEnumerator_1_System_Collections_IEnumerator_get_Current_m4242639349_gshared
F5:__ZN32TransformHierarchyChangeDispatch26DispatchSelfAndAllChildrenE15TransformAccessNS_12InterestTypeE
g3g:_UTF32Encoding__ctor_m3199945978
Z6:__ZN13RuntimeStaticI22VirtualJoystickManagerLb0EE13StaticDestroyEPv
QH:__ZN13AudioListener12ApplyFiltersEv
$ki:_CanvasRenderer_set_cull_m1437892490
qWe:_SortKey_GetHashCode_m2534654444
n6d:_Array_InternalArray__ICollection_Contains_TisInt64_t909078037_m1425723755_gshared
btf:_HandshakeMessage_Update_m1733566706
aVj:dynCall_viiif
SLj:__ZN6il2cpp8metadata27Il2CppGenericContextCompare7CompareEPK20Il2CppGenericContextS4_
hUj:dynCall_viiii
$td:_ArrayListWrapper_ToArray_m235921330
LDc:__ZN16Physics2DManagerD2Ev
n4a:__ZN9Transform32SetLocalScaleWithoutNotificationERKN4math7_float3E
nKg:_MemberInfoSerializationHolder_Serialize_m4243060728
vrh:_MaskableGraphic_OnDisable_m2605143092
Ahj:__ZNSt3__214__split_bufferIN6il2cpp2vm17TypeNameParseInfoERNS_9allocatorIS3_EEED2Ev
tli:_Collision2D_get_transform_m314016758
c9g:_Type_GetConstructor_m663514781
QZe:_Int64_System_IConvertible_ToDouble_m638786774_AdjustorThunk
E$:__ZN15DirectorManager14ConnectionPool16GrowEmptyBucketsEv
yYe:_Int16_ToString_m1247017262
S1:__ZN17PersistentManager32CopyToAwakeFromLoadQueueInternalER18AwakeFromLoadQueue
bJd:_Delegate_Combine_m1976351882
RAc:__ZN10Collider2D23VirtualRedirectTransferER24GenerateTypeTreeTransfer
mXa:__ZNK6Camera16SetActiveVRUsageEv
Wah:_UInt32_System_IConvertible_ToUInt16_m2798641702
yYj:_emscripten_glDrawElementsInstanced__wrapper
rMi:_Texture_Internal_GetWidth_m56137242
wsc:__ZL26Transfer_SimpleNativeClassI8JSONRead8GradientLb1EEvRK29SerializationCommandArgumentsR31RuntimeSerializationCommandInfo
SOj:_open
vGc:__ZN6b2Body7SetTypeE10b2BodyType
Brj:__ZN6il2cpp6icalls8mscorlib6System5Array5CloneEP11Il2CppArray
M6a:__Z30GetPlayerShouldRunInBackgroundv
OKh:_InternalEnumerator_1_get_Current_m2986222582_gshared
Tch:_UnitySerializationHolder__ctor_m2832165173
T2g:_UnicodeEncoding_GetBytes_m4175529985
f$:__ZZN15DirectorManager15InitializeClassEvEN47PreLateUpdateDirectorUpdateAnimationBeginstruct7ForwardEv
Bth:_Selectable_OnDisable_m2660228016
wja:__ZN6prcoreL12RemapGenericI11TexFormatI815TexFormatRGB565EEvPKNS_9InnerInfoE
Cta:__ZNK13TranslateGLES17FramebufferTargetEN2gl17FramebufferTargetE
wCj:__ZL11on_gc_event11GCEventType
vqj:__ZNSt3__214__split_bufferIN6il2cpp8metadata18GenericArrayMethodERNS_9allocatorIS3_EEED2Ev
dgd:_Single_System_IConvertible_ToBoolean_m2661548087_AdjustorThunk
zEc:__ZNSt3__27__sort5IR31RayHitsByInverseDepthComparitorP12RaycastHit2DEEjT0_S5_S5_S5_S5_T_
cBg:_DSASignatureDeformatter_VerifySignature_m4078616251
lXj:b62
kXj:b61
jXj:b60
DYj:b67
tbe:_Array_InternalArray__IndexOf_TisUInt16_t986882611_m390127593_gshared
q1d:_InputField_set_shouldHideMobileInput_m2478534110
Mid:_String_Concat_m3881798623
EYj:b68
UGg:_FieldBuilder_IsDefined_m2730324893
J_f:__ZL56FlagsAttribute_t859561169_CustomAttributesCacheGeneratorP21CustomAttributesCache
lgb:__ZN21ArchiveStorageCreator10BeginBlockEb15CompressionType16CompressionLevelj
LRe:_ReadOnlyCollection_1_System_Collections_IList_Insert_m571902768_gshared
lui:_ExternalException__ctor_m1618796018
jUj:dynCall_iifffi
$6b:__Z9SetIIMGUIP6IIMGUI
iba:__Z28SetupPixelCorrectCoordinatesv
nQc:_tt_cmap10_get_info
xYg:_Mesh_SetTangents_m282399504
T4b:__ZNSt3__218__insertion_sort_3IRN10vector_mapIiiNS_4lessIiEE13stl_allocatorINS_4pairIiiEEL18MemLabelIdentifier1ELi16EEE13value_compareEPS6_EEvT0_SD_T_
fza:__Z5SplitRKN4core12basic_stringIcNS_20StringStorageDefaultIcEEEEcRNSt3__26vectorIS3_NS6_9allocatorIS3_EEEEi
J$i:__ZN6il2cpp2vmL10InitLockedEP11Il2CppClassRKNS_2os12FastAutoLockE
E1a:__ZN15LODGroupManager26CollectAllLODGroupManagersEPK6CameraR13dynamic_arrayIPS_Lj4EEb
ZZ:__ZN17ScriptingGCHandle28ResolveBackendNativeGCHandleEj
j4b:__ZN13PlayableGraph16DestroyRecursiveEP8Playable
QJd:_Double_System_IConvertible_ToType_m4036266196_AdjustorThunk
XH:__ZN12AudioManagerD0Ev
wOj:___fwritex
hMj:__ZN6il2cpp5utils35RegisterRuntimeInitializeAndCleanupC2EPFvvES3_i
P1e:_Stream_EndRead_m2148943753
KAb:__ZNK22GenericPropertyBinding13SetFloatValueERKN11UnityEngine9Animation10BoundCurveEf
Ueb:__ZN17ArchiveFileSystem14UnmountArchiveEP20ArchiveStorageReader
_$b:__ZN6ShaderC2E18MemLabelIdentifier18ObjectCreationMode
dQh:__Z99RuntimeInvoker_Int32_t2071877448_Int32_t2071877448_Int32_t2071877448_Int32_t2071877448_Il2CppObjectPK10MethodInfoPvPS2_
xNc:_raccess_guess_darwin_ufs_export
jNa:__ZN11TypeManager18InitializeAllTypesEv
dG:__ZN9AudioClipD0Ev
F1g:_Renderer_get_sortingOrder_m1544525007
k1h:__Z93RuntimeInvoker_Vector3_t2243707580_Vector3_t2243707580_Vector3_t2243707580_Single_t2076509932PK10MethodInfoPvPS2_
BOg:_RenderPipelineManager_DoRenderLoop_Internal_m2267530247
f7d:_Array_InternalArray__ICollection_Remove_TisKeyValuePair_2_t38854645_m3060436673_gshared
bue:_List_1_Find_m3480386930_gshared
jnh:_EqualityComparer_1__cctor_m51007461_gshared
hZb:__Z13RegisterClassI8GUILayerEvv
obb:__ZN25ThreadsafeLinearAllocatorC2EiiPKc
rbf:_SimpleCollator_IsSuffix_m740049399
ADa:__ZN14GfxContextGLES11MakeCurrentER7ApiGLESN2gl13ContextHandleE
MHi:_PKCS12__cctor_m3312759338
OVc:_UNITY_tt_glyphzone_new
lrf:_RecordProtocol_BeginSendRecord_m166940611
y7e:_ShortComparer_Compare_m1398180168
TPg:_Screen_get_width_m41137238
eWg:_Input_get_anyKey_m4174666447
xZg:_Object_Internal_InstantiateSingleWithParent_m509082884
BQa:_UNITY_png_check_IHDR
tsa:__ZN16GraphicsSettings22WarmupPreloadedShadersEv
N0c:__Z34Canvas_Set_Custom_PropSortingOrderP12Il2CppObjecti
a3e:_MonoIO_get_ConsoleError_m592181393
$Zh:__Z59RuntimeInvoker_Il2CppObject_Single_t2076509932_Il2CppObjectPK10MethodInfoPvPS2_
Mvf:_SslCipherSuite_prf_m2084589217
bb:invoke_iiiiiiffiiiiiiiiiffffiii
mYc:__ZN2UI6Canvas8TransferI14SafeBinaryReadEEvRT_
Omi:_Coroutine_Finalize_m3953619693
N9h:__Z83RuntimeInvoker_Int32_t2071877448_Color32_t874517518_Color32_t874517518_Il2CppObjectPK10MethodInfoPvPS2_
GOi:_Vector2_op_Division_m96580069
Fjj:__ZN6il2cpp2gc19AppendOnlyGCHashMapIPK10Il2CppTypeP20Il2CppReflectionTypeNS_8metadata14Il2CppTypeHashENS7_26Il2CppTypeEqualityComparerEE3AddERKS4_S6_
jQ:__ZN11UnityEngine15CloudWebService17CloudJobScheduler11ScheduleJobEPFvPvES2_
fXe:_Guid_Equals_m2389236871_AdjustorThunk
sR:__ZN11UnityEngine15CloudWebService17CloudServiceEvent12ToJsonStringER9JSONWrite
v7:__ZNK18VertexChannelsInfoltERKS_
TWf:__ZL93ASCIIEncoding_t3022927988_CustomAttributesCacheGenerator_ASCIIEncoding_GetDecoder_m3693600923P21CustomAttributesCache
Nva:__ZN13GfxDeviceGLES15UploadTexture3DE9TextureIDPKhiiii13TextureFormati18TextureUploadFlags
NZh:__Z71RuntimeInvoker_Single_t2076509932_Single_t2076509932_Single_t2076509932PK10MethodInfoPvPS2_
Coc:__ZN9JSONWrite8TransferIfEEvRT_PKc17TransferMetaFlags
xWd:_ContentSizeFitter_SetLayoutHorizontal_m2830034151
YD:__Z92Register_UnityEngine_Experimental_Director_AnimationOffsetPlayable_INTERNAL_CALL_SetPositionv
x4b:__ZN10MonoScript27InitializeAndRegisterScriptERKN4core12basic_stringIcNS0_20StringStorageDefaultIcEEEES6_S6_S6_b
pAg:_DES_set_Key_m2689203108
x2a:__Z23DrawSplashAndWatermarksv
KQa:_UNITY_png_free_data
cHi:_SubjectAltNameExtension_ToString_m1300810903
Sgf:_RSAManaged_ImportParameters_m2382611442
wGb:__ZN13GUIStyleState8TransferI14SafeBinaryReadEEvRT_
AMh:_Comparer_1_System_Collections_IComparer_Compare_m2490067344_gshared
mBi:_PatternCompiler_EmitSet_m866698437
Vd:_glDrawArrays
q$d:_GridLayoutGroup_set_startCorner_m1660251450
TEh:_InternalEnumerator_1_System_Collections_IEnumerator_get_Current_m127456009_AdjustorThunk
u_i:_HashSet_1_System_Collections_Generic_ICollectionU3CTU3E_CopyTo_m1933244740_gshared
wXf:__ZL54UTF8Encoding_t111055448_CustomAttributesCacheGeneratorP21CustomAttributesCache
A5b:__Z17InstantiateObjectR6ObjectR9TransformRK8Vector3fRK11Quaternionf
vZe:_Int32_TryParse_m656840904
$6d:_Array_InternalArray__ICollection_Remove_TisChar_t3454481338_m1562002771_gshared
MZe:_Int64_System_IConvertible_ToDateTime_m1002280174_AdjustorThunk
lub:__ZN14BlendShapeData8TransferI18StreamedBinaryReadILb0EEEEvRT_
eNj:__ZN6il2cpp6icalls8mscorlib6System7Runtime8Remoting7Proxies9RealProxy20InternalGetProxyTypeEP12Il2CppObject
JSa:__ZN13sorted_vectorINSt3__24pairIiN17InstancedPropInfo12PropertyTypeEEEN10vector_mapIiS3_NS0_4lessIiEE13stl_allocatorIS4_L18MemLabelIdentifier1ELi16EEE13value_compareESA_E21sort_clear_duplicatesEv
aWc:_Round_To_Grid
eLc:_UNITY_FT_Stream_Close
HTh:__Z66RuntimeInvoker_Il2CppObject_Il2CppObject_DSAParameters_t1872138834PK10MethodInfoPvPS2_
GTh:__Z103RuntimeInvoker_Boolean_t3825574718_Il2CppObject_Il2CppObject_Il2CppObject_Il2CppObject_SByte_t454417549PK10MethodInfoPvPS2_
xuc:__ZN9rapidjson6WriterI16TempBufferWriterNS_4UTF8IcEES3_13JSONAllocatorE9WriteBoolEb
gcc:__Z35DebugLogHandler_CUSTOM_Internal_Log7LogTypeP12Il2CppStringP12Il2CppObject
xYj:_emscripten_glShaderBinary__wrapper
HCa:__ZL17ProgramUniform3ivPK7ApiGLESjiihPKv
tva:__ZN9GfxDevice25GetBackBufferColorSurfaceEv
YKa:__ZN25SingleBlockMemoryFileData9SetLengthEy
d5b:__Z29AwakeAndActivateClonedObjectsPP6ObjectRK10vector_mapIiiNSt3__24lessIiEE13stl_allocatorINS3_4pairIiiEEL18MemLabelIdentifier1ELi16EEE
m0h:__Z91RuntimeInvoker_Void_t1841601450_Il2CppObject_Il2CppObject_SByte_t454417549_SByte_t454417549PK10MethodInfoPvPS2_
poj:__ZN15dense_hashtableINSt3__24pairIK10KeyWrapperINS1_IPK10MethodInfoP11Il2CppClassEEEjEES9_17ReflectionMapHashIS8_EN14dense_hash_mapIS9_jSD_NS9_14EqualsComparerINS0_8equal_toIS8_EEEENS0_9allocatorISB_EEE9SelectKeyESI_SK_E14squash_deletedEv
FWh:__Z117RuntimeInvoker_Void_t1841601450_Il2CppObject_Int64_t909078037_Il2CppObject_Int64_t909078037_Il2CppObject_Il2CppObjectPK10MethodInfoPvPS2_
yZb:__Z13RegisterClassI6ShaderEvv
ZXe:_Int16_System_IConvertible_ToUInt32_m883204517
nti:_ResourceCacheItem_t333236149_marshal_pinvoke_cleanup
oqe:_List_1_CheckMatch_m1196994270_gshared
X$:__ZN13RuntimeStaticI11WindManagerLb0EE13StaticDestroyEPv
gEd:_Convert_ToUInt64_m3559662221
lqc:__Z18Transfer_BlittableI9JSONWriteLb1EaEvRK29SerializationCommandArgumentsR31RuntimeSerializationCommandInfo
koj:__ZN13Il2CppHashMapINSt3__24pairIPK10MethodInfoP11Il2CppClassEEj17ReflectionMapHashIS7_ENS0_8equal_toIS7_EENS0_9allocatorINS1_IK10KeyWrapperIS7_EjEEEEEC2EjRKS9_RKSB_
Qsd:_ArrayList_set_Item_m1858827078
Voa:__ZN9Texture3D23VirtualRedirectTransferER19StreamedBinaryWriteILb0EE
IHj:_GC_reclaim_block
Xmf:_HMAC__ctor_m2605930831
cO:__Z13RegisterClassI10SampleClipEvv
cS:__ZN11UnityEngine15CloudWebService10RestClientINS0_16WWWRestHeaderMapEE17GetResponseHeaderERKN4core12basic_stringIcNS4_20StringStorageDefaultIcEEEE
Cwc:__Z23b2CollideRadialPolygonsP10b2ManifoldPK14b2PolygonShapeRK11b2TransformS3_S6_
f_a:__ZNK23ForwardShaderRenderLoop18RenderObjectSorterILb1EEclERK21ForwardRenderPassDataS4_
u9i:__ZN15dense_hashtableI10KeyWrapperIPK19Il2CppGenericMethodES4_N6il2cpp8metadata23Il2CppGenericMethodHashEN14dense_hash_setIS4_S7_NS4_14EqualsComparerINS6_26Il2CppGenericMethodCompareEEENSt3__29allocatorIS4_EEE8IdentityESB_SE_E12maybe_shrinkEv
vGa:__ZN10BufferGLES10BeginWriteEjj
t9i:__ZNK15dense_hashtableI10KeyWrapperIPK19Il2CppGenericMethodES4_N6il2cpp8metadata23Il2CppGenericMethodHashEN14dense_hash_setIS4_S7_NS4_14EqualsComparerINS6_26Il2CppGenericMethodCompareEEENSt3__29allocatorIS4_EEE8IdentityESB_SE_E12test_deletedEj
nt:__ZN7mecanim12statemachine18StateMachineMemory8TransferI9BlobWriteEEvRT_
jpj:__GLOBAL__sub_I_ArrayMetadata_cpp
tbh:_UInt64_System_IConvertible_ToByte_m953298241
uGa:__ZN7ApiGLES11FlushBufferEjN2gl12BufferTargetEll
pEd:_Convert_ToUInt64_m1896191125
qHb:__ZN14SafeBinaryRead21TransferSTLStyleArrayI13dynamic_arrayI8BitFieldLj4EEEEvRT_17TransferMetaFlags
QDa:__ZN12_GLOBAL__N_127PrepareReadback_ResolveMSAAER18GfxFramebufferGLESR7ApiGLESP17RenderSurfaceGLESS5_
Au:__ZN7mecanim15InvertValueMaskEPNS_14ValueArrayMaskE
aGg:_EnumBuilder_GetAttributeFlagsImpl_m4263246832
LDg:_CustomAttributeData_GetHashCode_m3989739430
Hyh:_Text_AssignDefaultFont_m1295571657
J1b:__ZNK24RendererAnimationBinding9BindValueER6ObjectRKN11UnityEngine9Animation14GenericBindingERNS3_10BoundCurveE
Ue:_glBindBuffer
jQb:__ZN8GUIStyle8TransferI18StreamedBinaryReadILb0EEEEvRT_
c8:__ZNSt3__213__stable_sortIRN10vector_mapIijNS_4lessIiEENS_9allocatorINS_4pairIijEEEEE13value_compareENS_11__wrap_iterIPS6_EEEEvT0_SE_T_NS_15iterator_traitsISE_E15difference_typeEPNSH_10value_typeEi
Khi:_Application_get_platform_m3989224144
sce:_Array_InternalArray__ICollection_Add_TisCustomAttributeNamedArgument_t94157543_m1003067274_gshared
PWb:__ZNSt3__218__insertion_sort_3IRNS_6__lessIN4core12basic_stringIcNS2_20StringStorageDefaultIcEEEES6_EEPS6_EEvT0_SA_T_
Rne:_Enumerator_System_Collections_IEnumerator_Reset_m925111644_gshared
Ana:__ZN18LoadSceneOperation13CleanupMemoryEv
bOj:_isupper
GCg:_AssemblyName__ctor_m609734316
vy:__ZN7mecanim20ValueArrayBlendBeginERNS_14ValueArrayMaskE
hha:__ZNSt3__26__treeINS_12__value_typeIN9ShaderLab16FastPropertyNameEN18UnityPropertySheet11UnityTexEnvEEENS_19__map_value_compareIS3_S6_NS_4lessIS3_EELb1EEENS_9allocatorIS6_EEE7destroyEPNS_11__tree_nodeIS6_PvEE
Swf:_InternalAsyncResult_get_IsCompleted_m1463732458
xwh:_Selectable_IsInteractable_m3245596965
IQj:_getuid
S$d:_HorizontalLayoutGroup_CalculateLayoutInputVertical_m3516192138
oC:__ZN7mecanim5human8BoneNameEj
OZb:__Z13RegisterClassI10MonoScriptEvv
Tff:_AttrListImpl__ctor_m3211398293
eu:__ZN13dynamic_arrayIN8Animator11AnimatorJobELj4EE9push_backERKS1_
CJc:__ZN20TextRenderingPrivate8FontImpl8TransferI18StreamedBinaryReadILb0EEEEvRT_
n2g:_StringBuilder_get_Chars_m256627635
Vcj:__ZN6il2cpp6icalls8mscorlib6System8MonoType22get_IsGenericParameterEP20Il2CppReflectionType
Uu:__ZN7mecanim5human14HumanPoseClearERNS0_9HumanPoseE
$$e:_MonoIO_GetException_m957022672
Rha:__ZN18StreamedBinaryReadILb0EE19TransferSTLStyleMapINSt3__23mapIN9ShaderLab16FastPropertyNameE10ColorRGBAfNS2_4lessIS5_EENS2_9allocatorINS2_4pairIKS5_S6_EEEEEEEEvRT_17TransferMetaFlags
QDf:_X509Certificate2_GetValueAsString_m1286925493
Kqh:_Mask__ctor_m1716732261
psd:_Char_ToLower_m2719897546
Ufe:_Array_InternalArray__set_Item_TisHitInfo_t1761367055_m2693590376_gshared
Y7e:_MonoType_IsPointerImpl_m648213545
iVe:_InvalidOperationException__ctor_m2801133788
E6a:__ZN13RenderManager28AreCamerasUsingMotionVectorsEv
Idb:__Z24GetAssetBundleFileSystemv
i7:__Z25InitializeLODGroupManagerPv
iVd:_CanvasScaler_SetScaleFactor_m3305903109
Jce:_Array_InternalArray__ICollection_Add_TisUriScheme_t1876590943_m3218110478_gshared
xTa:__ZNK12ImageFilters28ApplyAfterTransparentFiltersEv
C5d:_LayoutRebuilder_U3Cs_RebuildersU3Em__0_m3768099182
l3c:__ZN11UnityEngine7Connect15AppRunningEvent12ToJsonStringER9JSONWrite
b0:__ZN19ShaderPropertySheet5ClearEb
Ntf:_TlsServerCertificate_ProcessAsTls1_m3083203628
JNe:_ReadOnlyCollection_1_System_Collections_Generic_IListU3CTU3E_set_Item_m1099846173_gshared
VXa:__ZNK6Camera11GetPositionEv
Ev:__ZN8Animator19CreatePlayableGraphEv
d0j:_emscripten_glClearDepth__wrapper
qDd:_Convert_ToSByte_m1880147062
S9a:__ZNK16MemoryFileSystem8FilenameERK13FileEntryData
Yf:_glUniform1fv
Jke:_GameObject_GetComponent_TisIl2CppObject_m2812611596_gshared
ag:_JS_FileSystem_Sync
E8c:_MD5CryptoServiceProvider_HashCore_m2367253552
eya:__ZNSt3__26__treeINS_12__value_typeI21GLESRenderTargetSetupN2gl6HandleILNS3_10ObjectTypeE9EEEEENS_19__map_value_compareIS2_S7_NS_4lessIS2_EELb1EEENS_9allocatorIS7_EEE7destroyEPNS_11__tree_nodeIS7_PvEE
$Ii:_X509StoreManager_get_TrustedRootCertificates_m122138510
MTi:_UnityAction_1_BeginInvoke_m530778538_gshared
qWc:_Direct_Move
_f:__emscripten_sample_gamepad_data
W_b:__Z22DelayedDestroyCallbackP6ObjectPv
LYj:_glBlendEquationSeparate__wrapper
aTg:_GUISkin_GetStyle_m3594137272
m$d:_GraphicRegistry__cctor_m4197769737
gzc:__ZN15b2ContactFilter13ShouldCollideEP9b2FixtureS1_
XXc:__ZNK2UI6Canvas26GetTypeInfoVirtualInternalEv
R3:__Z34scripting_class_get_declaring_type17ScriptingClassPtr
g5c:__ZN11UnityEngine7Connect20BasePersistentValues13RestoreValuesER8JSONRead
qof:_KeyGeneratedEventHandler_Invoke_m1298576133
H3d:_InputField_Rebuild_m3481959062
zxb:__ZN11TimeManagerD0Ev
GS:__ZN11UnityEngine15CloudWebService18RestFileDownloader10InitializeERKN4core12basic_stringIcNS2_20StringStorageDefaultIcEEEE
Ynb:__ZN9Texture2D16DeleteGfxTextureEv
BW:__ZN20LocalFileSystemPosix4OpenER13FileEntryData14FilePermission16FileAutoBehavior
Rmf:_KeyBuilder_get_Rng_m2539978716
w4h:__Z82RuntimeInvoker_Vector2_t2243707579_Rect_t3681755626_Il2CppObject_Int32_t2071877448PK10MethodInfoPvPS2_
bYc:__ZN2UI6Canvas12AddToManagerEv
ePc:_UNITY_tt_face_load_sbit
K4b:__Z37GetTransformFromComponentOrGameObjectP6Object
Seh:_ShimEnumerator_get_Current_m2516732679_gshared
WTc:_cf2_hint_isTop
K4a:__ZN23ManagedAttributeManager21GetRequiredComponentsE17ScriptingClassPtr
Rta:__ZN9GfxDevice18GetNumGraphicsJobsEj
O7a:__Z23InitializeStdConvertersv
uFe:_Collection_1_Contains_m3292349561_gshared
N0d:_Image_SetNativeSize_m3580044470
qsi:_AnimatorControllerPlayable_CrossFade_m2119841183
mMi:_TextGenerator_get_lines_m916366224
lSc:_ps_unicodes_init
k1b:__ZL33AllowIdentityTransformDestructionv
Ayj:__ZNK10KeyWrapperINSt3__24pairIPKcS3_EEE14EqualsComparerI26NamespaceAndNamePairEqualsEclERKS5_SA_
EJd:_StackTrace__ctor_m772333217
wgd:_Single_System_IConvertible_ToSingle_m2540530435
oif:_X509CertificateEnumerator__ctor_m1500464146
ksi:_AnimatorControllerPlayable_CrossFadeInFixedTime_m246216837
o8g:_Type_get_IsPointer_m3832342327
stj:__ZN6il2cpp2vm9Exception27GetExecutionEngineExceptionEPKc
$ih:_Dictionary_2_System_Collections_ICollection_CopyTo_m2784181332_gshared
nh:_JS_WebRequest_GetResponseHeaders
I7a:__ZNSt3__26__treeINS_12__value_typeI26SerializedObjectIdentifieriEENS_19__map_value_compareIS2_S3_NS_4lessIS2_EELb1EEENS_9allocatorIS3_EEE7destroyEPNS_11__tree_nodeIS3_PvEE
EOc:_UNITY_FT_Create_Class_tt_cmap_classes
Hij:__ZN15dense_hashtableINSt3__24pairIK10KeyWrapperINS1_IPK14Il2CppAssemblyP11Il2CppClassEEEjEES9_17ReflectionMapHashIS8_EN14dense_hash_mapIS9_jSD_NS9_14EqualsComparerINS0_8equal_toIS8_EEEENS0_9allocatorISB_EEE9SelectKeyESI_SK_EC2ERKSN_j
y7b:__ZN9Scripting18RaiseNullExceptionEPKcz
RNe:_ReadOnlyCollection_1_System_Collections_IList_Insert_m2659121605_gshared
R8:__ZN13RuntimeStaticI13RendererSceneLb0EE16StaticInitializeEPv
dti:_PlayableHandle_GetHashCode_m1257452282_AdjustorThunk
tsh:_RawImage_SetNativeSize_m672994452
yh:_glCreateProgram
Rmj:__ZN6il2cpp2vm10Reflection7IsFieldEP12Il2CppObject
Tde:_Array_InternalArray__ICollection_CopyTo_TisContentType_t1028629049_m330597634_gshared
xud:_SimpleEnumerator_Reset_m3524591211
DOi:_Vector2_op_Addition_m1389598521
kbh:_UInt32_ToString_m554020223_AdjustorThunk
Thb:__ZN24GenerateTypeTreeTransfer32TransferSTLStyleArrayWithElementI17SortingLayerEntryEEvRT_17TransferMetaFlags
G$h:__Z70RuntimeInvoker_Boolean_t3825574718_Int32_t2071877448_Int16_t4041245914PK10MethodInfoPvPS2_
DXj:_glUniformMatrix3fv__wrapper
Ijb:__ZN5Light9SetupHaloEv
wNb:__Z18Transfer_BlittableI18StreamedBinaryReadILb1EELb1E12PropertyNameEvRK29SerializationCommandArgumentsR31RuntimeSerializationCommandInfo
Pfd:_SecurityFrame__ctor_m3738328608_AdjustorThunk
Mnj:__ZN15dense_hashtableINSt3__24pairIK10KeyWrapperIPK22Il2CppGenericParameterEPK24MonoGenericParameterInfoEES6_N6il2cpp5utils11PointerHashIS4_EEN14dense_hash_mapIS6_SA_SF_NS6_14EqualsComparerINS0_8equal_toIS5_EEEENS0_9allocatorISB_EEE9SelectKeyESK_SM_EC2ERKSP_j
SDf:_X509Certificate2_Import_m3813388542
E0c:__Z33Canvas_Get_Custom_PropScaleFactorP12Il2CppObject
Ku:__ZNK26AnimatorControllerPlayable21GetStateMachineMemoryEi
r6:__ZNSt3__26__treeINS_12__value_typeI18UnityInterfaceGUIDP15IUnityInterfaceEENS_19__map_value_compareIS2_S5_NS_4lessIS2_EELb1EEE13stl_allocatorIS5_L18MemLabelIdentifier6ELi16EEE7destroyEPNS_11__tree_nodeIS5_PvEE
Aed:_EvidenceEnumerator_get_Current_m632582639
u0a:__Z15CullLocalLightsR8JobFenceS0_RK22SceneCullingParametersiPK8Vector4fRK13dynamic_arrayIhLj1EER9IndexListSC_PfP5RectTIfEP13TargetEyeMaskPPK5LightRK14ShadowCullData
ojd:_DecoderFallback_get_ReplacementFallback_m2155645318
Eea:__ZNK6Camera16GetTargetTextureEv
sBd:_Convert_ToDateTime_m3528521877
JGb:__Z35Transfer_Blittable_SingleValueFieldI14SafeBinaryReadyEvRT_R17GeneralMonoObjectRK23StaticTransferFieldInfo
fmb:__ZN8Playable20ClearInputConnectionEi
BVa:__ZN13BatchRenderer12EndLoopFlushEv
QKd:_Enum_System_IConvertible_ToChar_m1838232954
UMd:_CultureInfo_CreateTextInfo_m2269397562
Pmd:_Array_SetValue_m2469980129
x6b:__ZNK6Sprite11GetInnerUVsE20SpriteRenderDataMode
TA:__ZN11UnityEngine9Animation28DestroyAvatarBindingConstantEPNS0_21AvatarBindingConstantERN7mecanim6memory9AllocatorE
kYb:__ZN16MessageForwarder23RegisterMessageCallbackEiPFvPviR11MessageDataEPKN5Unity4TypeE
Sgj:__ZN6il2cpp2os4File9SetLengthEPNS0_10FileHandleExPi
gi:_gmtime
ni:_emscripten_glUniform3i
uya:__ZNK7ApiGLES10GetContextEv
pgd:_Single_System_IConvertible_ToInt16_m962677079_AdjustorThunk
zFb:__Z18Transfer_BlittableI14SafeBinaryReadLb1E5RectTIfEEvRK29SerializationCommandArgumentsR31RuntimeSerializationCommandInfo
Ldc:__Z25Input_CUSTOM_GetKeyStringP12Il2CppString
Xna:__ZN15TextureSettings14SetAnisoLimitsEii
NKb:__Z19TransferField_ArrayI24GenerateTypeTreeTransfer27Converter_SimpleNativeClassI10RectOffsetEEvRK23StaticTransferFieldInfoR31RuntimeSerializationCommandInfoRT0_
EZc:__ZN2UI6Canvas19GetProjectionMatrixEv
Qka:__ZN6prcoreL17RemapGenericFloatI18TexFormatARGBFloat15TexFormatRGHalfEEvPKNS_9InnerInfoE
POi:_Vector3__ctor_m2720820983
AYg:_Mesh_CheckCanAccessSubmeshIndices_m2098382465
Mdd:_String_memcpy2_m2338403668
PBh:_InternalEnumerator_1_get_Current_m4154615771_AdjustorThunk
JPg:_GUIUtility_Internal_GetGUIDepth_m1699616910
OY:__GLOBAL__sub_I_runtime_graphics_lod_lump_cpp
nfe:_Array_InternalArray__set_Item_TisDateTime_t693205669_m197118909_gshared
TIg:_ModuleBuilder_GetToken_m4190668737
y1j:_emscripten_glIsProgram__wrapper
W1b:__ZL22PrepareMeshRenderNodesILb1EEvR35RenderNodeQueuePrepareThreadContext
_hg:__ZL66NativeContainerAttribute_t269240268_CustomAttributesCacheGeneratorP21CustomAttributesCache
jX:__ZN20LocalFileSystemPosix5TouchER13FileEntryData
trc:__ZN9JSONWrite8TransferI13dynamic_arrayItLj2EEEEvRT_PKc17TransferMetaFlags
Q4g:_NativeEventCalls_SetEvent_internal_m2449488771
Di:_emscripten_glDrawElements
djf:_X509CertificateEnumerator_System_Collections_IEnumerator_MoveNext_m1064716431
Uad:_RSAPKCS1SignatureDeformatter_SetHashAlgorithm_m894366837
lif:_X509Certificate_get_DSA_m3959895595
sXg:_Mathf_Round_m227387340
kpd:_Boolean_System_IConvertible_ToDouble_m624978277
FId:_Delegate_get_Method_m2968370506
yUd:_Button__ctor_m975719067
jOi:_UnityException__ctor_m3650417185
gDc:__ZN20SpriteTilingProperty8TransferI14SafeBinaryReadEEvRT_
i7g:_TimeSpan_CompareTo_m2891128664
Ls:__ZN9BlobWriteD2Ev
dIi:_PKCS12_AddCertificate_m3637520737
XEa:__Z33GetMinimumTextureMipSizeForFormat13TextureFormat
KFb:__ZL26Transfer_SimpleNativeClassI14SafeBinaryRead8GradientLb0EEvRK29SerializationCommandArgumentsR31RuntimeSerializationCommandInfo
N0j:_emscripten_glClientActiveTexture__wrapper
R9i:__ZNK15dense_hashtableI10KeyWrapperIPK17Il2CppGenericInstES4_N6il2cpp8metadata21Il2CppGenericInstHashEN14dense_hash_setIS4_S7_NS4_14EqualsComparerINS6_24Il2CppGenericInstCompareEEENSt3__29allocatorIS4_EEE8IdentityESB_SE_E4findERKS4_
Zcf:_PrimalityTests_RabinMillerTest_m1376858197
I7c:_HMACSHA1__ctor_m2027292306
ezg:_SByte_System_IConvertible_ToUInt64_m2174352876_AdjustorThunk
lAg:_DES_Create_m2705450713
SIi:_X509CertificateCollection_Remove_m2722259192
qbe:_Array_InternalArray__IndexOf_TisSingle_t2076509932_m2151846718_gshared
Yca:__ZN13RenderTexture23VirtualRedirectTransferER18StreamedBinaryReadILb0EE
fXf:__ZL56StringBuilder_t1221177846_CustomAttributesCacheGeneratorP21CustomAttributesCache
cUe:_NumberFormatter_FormatHexadecimal_m1317851390
EPc:_UNITY_tt_face_lookup_table
TEf:_X509Certificate2Collection_AddRange_m1503879780
X0e:_StreamReader__ctor_m871771009
R1g:_Resources_GetBuiltinResource_m582410469
ITc:_cf2_stack_pushFixed
tBa:__ZN4crnd12crn_unpacker12unpack_dxt5aEPPhjjjjjj
ADi:_AnchorInfo_get_Length_m1721106162
YNi:_Transform_get_childCount_m881385315
qug:_RemotingConfiguration_RegisterActivatedClientType_m2207611714
dOa:__ZZ23InitPlayerLoopCallbacksvEN45EarlyUpdateScriptRunDelayedStartupFramestruct7ForwardEv
ZOg:_GameObject_GetComponentInChildren_m4263325740
Zfh:_Transform_1_Invoke_m1224512163_gshared
ULj:__ZN6il2cpp2os5Mutex4LockEb
TOb:__Z29Transfer_Blittable_ArrayFieldI18StreamedBinaryReadILb1EE8Vector2fEvRT_R9ArrayInfoRK23StaticTransferFieldInfo
$tj:__ZN6il2cpp2vm13LivenessState25FieldCanContainReferencesEP9FieldInfo
XQb:__ZL19RequireCorLibMethodPKcS0_S0_
JYg:_MonoBehaviour_IsInvoking_m1469271462
Ztb:__ZN15SerializeTraitsI13dynamic_arrayI10BlendShapeLj4EEE19ResizeSTLStyleArrayERS2_i18MemLabelIdentifier
w8c:_MD5_Create_m1572997499
Wjf:_AppDomain_LoadAssembly_m1537679648
Ela:__ZN6prcoreL26RemapGenericIntegerToFloatI17TexFormatARGB888817TexFormatRGBFloatEEvPKNS_9InnerInfoE
qGh:_InternalEnumerator_1_get_Current_m789289033_gshared
$gj:__ZN6il2cpp2vm14TypeNameParser26ParseTypeArgumentsOptionalERi
G1a:__ZN15LODGroupManager27GarbageCollectCameraLODDataEv
ifa:__ZN11NamedObjectC2E18MemLabelIdentifier18ObjectCreationMode
I6a:__ZN13ScreenManagerC2Ev
O9e:_OrdinalComparer_GetHashCode_m3400975772
Hjc:__ZN12GUIClipState20CalculateMouseValuesER10InputEvent
cKb:__Z18Transfer_BlittableI24GenerateTypeTreeTransferLb0E12PropertyNameEvRK29SerializationCommandArgumentsR31RuntimeSerializationCommandInfo
qya:__ZN7ApiGLES4InitERK14GfxContextGLESR16GfxDeviceLevelGL
t2c:__Z31CustomEventData_CUSTOM_AddSByteP12Il2CppObjectP12Il2CppStringa
Doa:__ZNK11LightProbes14LightProbeData33GetLightProbeInterpolationWeightsERK8Vector3fRiR8Vector4fRf
Rsg:_SoapServices_GetAssemblyName_m2037446159
zwe:_List_1_System_Collections_IList_IndexOf_m3828407883_gshared
Cbb:__ZN21UnityDefaultAllocatorI17LowLevelAllocatorED0Ev
Pah:_UInt32_System_IConvertible_ToInt64_m3091851828_AdjustorThunk
fCa:__Z14DecodeBC7BlockP9HDRColorAPKh
H1b:__ZNK24RendererAnimationBinding12GetPPtrValueERKN11UnityEngine9Animation10BoundCurveE
iPa:_UNITY_png_set_IHDR
Irf:_ClientSessionCache__cctor_m1134810266
wEi:_CharacterClass_GetIntervalCost_m2706255216
swg:_ObjectReader_ReadGenericArray_m788836286
gOg:_NeutralResourcesLanguageAttribute__ctor_m1145808404
lUi:_UnityAction_2_Invoke_m1528820797_gshared
_Ij:_GC_new_proc_inner
pc:invoke_fiiffi
zca:__ZN19RenderBufferManager13GetTempBufferE17RenderTextureDesc
ori:_AnimatorControllerPlayable_GetLayerIndexInternal_m696260605
JUc:_UNITY_FT_Init_Class_cff_service_glyph_dict
u9c:_RijndaelManagedTransform_TransformFinalBlock_m3663752599
Iid:_String_Format_m4262916296
Epa:__ZL24stbir__filter_catmullromff
kbf:_SimpleCollator_CompareInternal_m280569710
ERj:__ZNSt3__212basic_stringIcNS_11char_traitsIcEENS_9allocatorIcEEE6__initEPKcjj
mCc:__ZN10ClipperLib7Clipper8AddOutPtEPNS_5TEdgeERKNS_8IntPointE
lKc:__ZN20TextRenderingPrivate15GetFormatStringER11UTF16StringR13dynamic_arrayINS_16TextFormatChangeELj4EE
nF:__Z112Register_UnityEngine_Experimental_Director_AnimatorControllerPlayable_INTERNAL_CALL_CrossFadeInFixedTimeInternalv
oEf:_X509ExtensionEnumerator_get_Current_m3926549773
nUe:_NumberFormatter_IsZeroOnly_m3495795110
DIh:_InternalEnumerator_1_System_Collections_IEnumerator_get_Current_m3732729179_AdjustorThunk
tYe:_Int32_ValidDigit_m2682121722
Qx:__ZN7mecanim9animation12GetHumanPoseIfEEvRKNS0_18ClipMuscleConstantEPKT_RNS_5human9HumanPoseE
k:ABORT
Mxg:_SerializationInfo_AddValue_m2342806462
vIj:_GC_init_headers
lLj:__ZNSt3__26__treeINS_12__value_typeINS_12basic_stringIcNS_11char_traitsIcEENS_9allocatorIcEEEEPFvvEEENS_19__map_value_compareIS7_SA_NS_4lessIS7_EELb1EEENS5_ISA_EEE13__lower_boundIS7_EENS_15__tree_iteratorISA_PNS_11__tree_nodeISA_PvEEiEERKT_SM_SM_
sNc:_UNITY_FT_Init_Class_ft_outline_glyph_class
eBf:_IPv6Address_AsIPv4Int_m3565745471
qDf:_X509BasicConstraintsExtension__ctor_m4017912156
KWj:_glTexStorage3D__wrapper
rSc:_ft_get_adobe_glyph_index
fLj:__ZNSt3__26__treeINS_12__value_typeINS_12basic_stringIcNS_11char_traitsIcEENS_9allocatorIcEEEEPFvvEEENS_19__map_value_compareIS7_SA_NS_4lessIS7_EELb1EEENS5_ISA_EEE25__emplace_unique_key_argsIS7_JRKNS_21piecewise_construct_tENS_5tupleIJOS7_EEENSL_IJEEEEEENS_4pairINS_15__tree_iteratorISA_PNS_11__tree_nodeISA_PvEEiEEbEERKT_DpOT0_
thc:__Z47Register_UnityEngine_Texture_Internal_GetHeightv
yDb:__Z25scripting_field_get_flags17ScriptingFieldPtr
V$c:__Z50CanvasRenderer_CUSTOM_SplitUIVertexStreamsInternalP12Il2CppObjectS0_S0_S0_S0_S0_S0_
Hth:_Scrollbar_OnBeginDrag_m574021735
v5h:__Z68RuntimeInvoker_Boolean_t3825574718_Rect_t3681755626_SByte_t454417549PK10MethodInfoPvPS2_
FLg:_MonoEvent_GetObjectData_m4084431065
itc:__ZN8JSONRead8TransferIyEEvRT_PKc17TransferMetaFlagsb
uFb:__Z18Transfer_BlittableI14SafeBinaryReadLb0EtEvRK29SerializationCommandArgumentsR31RuntimeSerializationCommandInfo
Vzh:_U3CGetEnumeratorU3Ec__Iterator0_MoveNext_m2489948797_gshared
G9d:_Array_BinarySearch_TisIl2CppObject_m2457435347_gshared
ZU:__ZNK20DynamicHeapAllocatorI17LowLevelAllocatorE8ContainsEPKv
ild:_EncoderReplacementFallbackBuffer_Fallback_m4111893059
ugb:__ZNK13Lz4Compressor14CompressMemoryEPKvjPvPj16CompressionLevel
ytj:__ZN6il2cpp2vm14PlatformInvoke36MarshalCppStringToCSharpStringResultEPKc
r$a:__ZN8Material23GetStencilWriteMaterialEv
h6e:_Math_Log_m3325929366
Mba:__ZNK9ShaderLab11ShaderState16ApplyShaderStateEjPK19ShaderPropertySheetRK17ShaderPassContextP6ShaderPNS_4PassEPNS_11SubProgramsE
RCi:_Assertion__ctor_m1169129098
Rhb:__ZN10TagManager8TransferI24GenerateTypeTreeTransferEEvRT_
Ksh:_ReflectionMethodsCache_get_Singleton_m2330935729
aIf:_InterpreterFactory_get_GroupCount_m1785101782
OVi:_GameManager_PrepareGarbageNotShown_m969466450
Esd:_CharEnumerator_Clone_m3844021309
kef:_BlockProcessor_Initialize_m3476609078
S5b:__Z35AllocExtractMeshComponentFromScriptRK4Mesh30InternalScriptingShaderChannel34InternalScriptingVertexChannelTypei
yhb:__ZN10TagManager23VirtualRedirectTransferER24GenerateTypeTreeTransfer
cQe:_ReadOnlyCollection_1_System_Collections_IList_Remove_m688362945_gshared
ypa:__ZL23stbir__filter_trapezoidff
XGf:_Key_GetHashCode_m345804220
u7g:_TimeSpan_FromHours_m2521548378
lKd:_Double_System_IConvertible_ToUInt16_m286326038
GH:__ZNK13AudioListener26GetTypeInfoVirtualInternalEv
ZVa:__ZN23ScriptableRenderContextD2Ev
vBa:__ZN4crnd12crn_unpacker11unpack_dxt1EPPhjjjjjj
b7h:__Z153RuntimeInvoker_Vector2_t2243707579_BoundsU26_t1084128289_BoundsU26_t1084128289_SByte_t454417549_SByte_t454417549_Int32_t2071877448_Vector2U26_t3911752445PK10MethodInfoPvPS2_
Jhf:_PKCS12__ctor_m3492967071
qkj:__ZN15dense_hashtableINSt3__24pairIK10KeyWrapperINS1_IPK10MethodInfoP11Il2CppClassEEEjEES9_17ReflectionMapHashIS8_EN14dense_hash_mapIS9_jSD_NS9_14EqualsComparerINS0_8equal_toIS8_EEEENS0_9allocatorISB_EEE9SelectKeyESI_SK_E15insert_noresizeERKSB_
xXc:__Z32TextGenerator_CUSTOM_Dispose_cppP12Il2CppObject
zbe:_Array_InternalArray__IndexOf_TisContactPoint2D_t3659330976_m3961643896_gshared
Orj:__ZN6il2cpp6icalls8mscorlib6System19ExtractWidenedValueE14Il2CppTypeEnumPv
_Hh:_InternalEnumerator_1_get_Current_m2198364332_gshared
GIj:_GC_invoke_finalizers
yJh:_InternalEnumerator_1_get_Current_m1715820327_gshared
pAb:__ZNSt3__26vectorIN30RuntimeInitializeOnLoadManager9ClassInfoE13stl_allocatorIS2_L18MemLabelIdentifier12ELi16EEE6assignINS_11__wrap_iterIPS2_EEEENS_9enable_ifIXaasr21__is_forward_iteratorIT_EE5valuesr16is_constructibleIS2_NS_15iterator_traitsISC_E9referenceEEE5valueEvE4typeESC_SC_
EFb:__Z18Transfer_BlittableI14SafeBinaryReadLb0E8BitFieldEvRK29SerializationCommandArgumentsR31RuntimeSerializationCommandInfo
_Ig:_OpCode_GetHashCode_m2974727122_AdjustorThunk
LFg:_EnumBuilder_get_BaseType_m63295819
grd:_Byte_ToString_m1309661918_AdjustorThunk
MMh:_Comparer_1_System_Collections_IComparer_Compare_m1153499515_gshared
W$e:_Directory_CreateDirectoriesInternal_m2817848291
WYe:_Int32_System_IConvertible_ToInt64_m3790029067
ZCh:_InternalEnumerator_1_System_Collections_IEnumerator_get_Current_m3546309124_gshared
X3a:__ZNK10GameObject25QueryComponentByExactTypeEPKN5Unity4TypeE
O3g:_UTF7Encoding_GetDecoder_m396865028
zfa:__ZNK9ShaderLab22ShaderStencilStateDesc17ToGfxStencilStateEPK19ShaderPropertySheetS3_RK14GfxRasterStateR15GfxStencilState
tff:_SmallXmlParser_ReadContent_m4038164984
NJi:_X509Extension_WriteLine_m364247613
SPc:_tt_cmap0_char_next
Bab:__ZN15GUIEventManager10QueueEventERK10InputEvent
gCa:__Z15DecodeBC6HBlockP9HDRColorAPKh
lZe:_Int32_Equals_m753832628_AdjustorThunk
NIj:_GC_malloc_uncollectable
Svd:_CollectionBase_System_Collections_IList_get_IsReadOnly_m2883787483
R9a:__ZNK16MemoryFileSystem6ParentERK13FileEntryDataRN4core12basic_stringIcNS3_20StringStorageDefaultIcEEEE
jBb:__ZN20ArchiveStorageHeader13IsArchiveFileER12FileAccessor
k7:__ZN15LODGroupManagerD2Ev
bCg:_Assembly_IsDefined_m2841897391
Dgj:__GLOBAL__sub_I_File_cpp
tKa:__ZN12IFileAdapter9SetLengthER13FileEntryDatay
l2d:_InputField_set_lineType_m3589045448
Lgc:__Z39SortingLayer_CUSTOM_GetLayerValueFromIDi
le:_Mix_PlayMusic
UUc:_cff_cmap_encoding_init
rph:_EqualityComparer_1_System_Collections_IEqualityComparer_GetHashCode_m2460068977_gshared
Ola:__ZN19RuntimeSceneManager24PrepareNewBootstrapSceneEv
tmd:_Array_GetLongLength_m3005360186
e3a:__ZN10SpookyHash7Hash128EPKvjPyS2_
W0a:__ZL60CombineDirectionalShadowCasterCullingIndexListsAndDestroyJobP20ShadowCullingJobData
tXe:_Guid_ToString_m3858592945_AdjustorThunk
aFh:_InternalEnumerator_1_get_Current_m3206960238_gshared
Rri:_AnimatorControllerPlayable_GetNextAnimatorClipInfoInternal_m2063705906
Eed:_Hash_GetData_m3416116641
zBg:_HMAC_get_Block_m1367204253
ZE:__Z104Register_UnityEngine_Experimental_Director_AnimatorControllerPlayable_INTERNAL_CALL_GetLayerNameInternalv
VTb:__ZN9ShaderLab18SerializedPropertyC2ERKS0_
tSc:_cff_driver_init
FYd:_Dropdown_AlphaFadeList_m511547679
Qvb:__ZN14SpriteRenderer10SmartResetEv
vOg:_ResourceReader_LoadResourceValues_m1346096618
Zae:_Array_InternalArray__IndexOf_TisDateTime_t693205669_m2327436641_gshared
kUe:_NumberFormatter_RoundDecimal_m176606570
yIf:_Interval_Contains_m3209397137_AdjustorThunk
Mrb:__ZN16SpriteRenderData8TransferI14SafeBinaryReadEEvRT_
bCd:_Convert_ToDouble_m1714698801
RPa:_init_block
PRh:__Z88RuntimeInvoker_Int32_t2071877448_Il2CppObject_Il2CppObject_Il2CppObject_SByte_t454417549PK10MethodInfoPvPS2_
iIh:_InternalEnumerator_1_get_Current_m35328337_gshared
vnf:_MD4Managed_Encode_m2097839378
R2b:__ZN6CameraC2E18MemLabelIdentifier18ObjectCreationMode
$Ti:_UnityAction_1_Invoke_m3061904506_gshared
F_e:_Int64_ToString_m1544341651
i$a:__ZL31SetRenderStateForStencilMarkingR9GfxDeviceR17ShaderPassContextjj
dNa:__ZN20ArchiveStorageReader20FillChunkCachedBlockEPNS_11CachedBlockE
A1c:__ZNSt3__26__treeINS_12__value_typeIN4core12basic_stringIcNS2_20StringStorageDefaultIcEEEEN11UnityEngine9Analytics15UserCustomEvent11CustomValueEEENS_19__map_value_compareIS6_SB_NS_4lessIS6_EELb1EEE13stl_allocatorISB_L18MemLabelIdentifier5ELi16EEE7destroyEPNS_11__tree_nodeISB_PvEE
$M:__ZN10AudioMixer16ResumeProcessingEv
mJe:_Collection_1_ConvertItem_m2559468638_gshared
hHb:__ZNSt3__26vectorI17AnimationCurveTplIfE13stl_allocatorIS2_L18MemLabelIdentifier1ELi16EEE7reserveEj
JRd:_PointerEventData_get_dragging_m220490640
f6e:_Math_Ceiling_m614624719
Olf:_BigInteger_op_Inequality_m4286929594
epg:__ZL80CanvasScaler_t2574720772_CustomAttributesCacheGenerator_m_ReferencePixelsPerUnitP21CustomAttributesCache
vfd:_SecurityException__ctor_m230238597
x_c:__ZN2UI13CanvasManager21EmitGeometryForCameraEP6Camera
kDj:__GLOBAL__sub_I_Thread_cpp_42429
Od:_glClearColor
fUe:_CustomInfo_Parse_m3558073058
Ile:_KeyValuePair_2_get_Value_m1916631176_gshared
TUb:__ZN9ShaderLab16SerializedTagMap8TransferI19StreamedBinaryWriteILb0EEEEvRT_
sih:_Dictionary_2_InitArrays_m3810830177_gshared
LFc:__ZN17Physics2DSettings16CheckConsistencyEv
dsj:__ZN6il2cpp6icalls8mscorlib6System9Threading6Thread25SetCachedCurrentUICultureEP12Il2CppThreadP12Il2CppObject
k1j:_glIsVertexArray__wrapper
Stg:_RemotingServices_DisposeIdentity_m266836454
Kad:_RSAPKCS1KeyExchangeFormatter_SetRSAKey_m3575964424
GKc:_UNITY_FT_Bitmap_Convert
GAd:_DateTimeUtils_GetStandardPattern_m4198947977
X0a:__Z22CullDirectionalShadowsR9IndexListPK9SceneNodePK4AABBR22DirectionalCullContext
jke:_Array_InternalArray__get_Item_TisUInt16_t986882611_m2599215710_gshared
qNh:_Enumerator_System_Collections_IEnumerator_Reset_m2828524109_gshared
lDg:_Default_IsArrayAssignable_m3862319150
kaj:__ZN15dense_hashtableINSt3__24pairIK10KeyWrapperIPK11Il2CppClassEPKcEES6_N6il2cpp5utils11PointerHashIS3_EEN14dense_hash_mapIS6_S9_SE_NS6_14EqualsComparerINS0_8equal_toIS5_EEEENS0_9allocatorISA_EEE9SelectKeyESJ_SL_E4findERS7_
WHc:__Z45Register_UnityEngine_Collider2D_set_isTriggerv
PTe:_NumberFormatter_FastAppendDigits_m2324805728
RS:__ZN11UnityEngine15CloudWebService14RestDownloader7OnAbortEv
Jwg:_FormatterServices_GetUninitializedObject_m1786947853
OZc:__ZN2UI6Canvas16UpdateBatchOrderEv
MXi:_IndexedSet_1_Add_m4044765907_gshared
Hma:__ZN13MonoBehaviour26WillUnloadScriptableObjectEv
SWc:_UNITY_FT_Get_Glyph_Name
TSa:__Z13VFormatBufferPciPKcPi
OKb:__Z19TransferField_ArrayI24GenerateTypeTreeTransfer27Converter_SimpleNativeClassI8GradientEEvRK23StaticTransferFieldInfoR31RuntimeSerializationCommandInfoRT0_
uti:_ResourceEnumerator_get_Value_m2384033057
tuh:_ScrollRect_get_vertical_m3957330783
V7c:_KeyedHashAlgorithm__ctor_m2868676404
UQ:__ZN11UnityEngine15CloudWebService16SessionContainer16MarkAsDispatchedERKN4core12basic_stringIcNS2_20StringStorageDefaultIcEEEE
Wzj:__ZN6il2cpp2vm12GenericClass6IsEnumEP18Il2CppGenericClass
WFc:__ZN17Physics2DSettings8TransferI19StreamedBinaryWriteILb0EEEEvRT_
$hc:__Z26Transform_CUSTOM_IsChildOfP12Il2CppObjectS0_
GMj:__ZNSt3__26vectorINS_12basic_stringIDsNS_11char_traitsIDsEENS_9allocatorIDsEEEENS4_IS6_EEE18__construct_at_endEj
phi:_AnimatorStateInfo_IsTag_m1529621725
lTg:_GUIStyle__ctor_m2210993436
Kcf:_BigInteger_op_Subtraction_m2941563507
K1b:__ZN13ProduceHelperI11PreloadDataLb0EE7ProduceE18MemLabelIdentifier18ObjectCreationMode
neh:_Enumerator_Reset_m3129803197_gshared
tua:__ZNK13GfxDeviceGLES11GetViewportEv
Wfa:__ZNK9ShaderLab11ShaderState34ShouldRemoveAnyUnsupportedProgramsEv
PWc:_UNITY_tt_face_load_cvt
HSa:__ZN19ShaderPropertySheet29PreallocateArrayUninitializedEN9ShaderLab16FastPropertyNameENS_12PropertyTypeEj
dwi:_CrossAppDomainData__ctor_m899931420
ebj:__ZL32InitializeCustomAttributesCachesPv
bLa:__ZN20ArchiveStorageReaderD0Ev
vRb:__ZN6Shader23VirtualRedirectTransferER19StreamedBinaryWriteILb0EE
wtd:_ArrayListWrapper__ctor_m3783588291
Rzi:_MethodCall_get_MethodBase_m688041003
lob:__ZNK9Texture2D26GetTypeInfoVirtualInternalEv
FAi:_Match_NextMatch_m1088868049
pQh:__Z63RuntimeInvoker_Il2CppObject_Int16_t4041245914_Int16_t4041245914PK10MethodInfoPvPS2_
Kyh:_Text_OnPopulateMesh_m835520031
Ckf:_ArgumentOutOfRangeException__ctor_m15523695
kxb:__ZNSt3__214__split_bufferI9InputAxisRNS_9allocatorIS1_EEED2Ev
Coi:_InvokableCall_add_Delegate_m1598143083
nX:__ZNK20LocalFileSystemPosix20GetApplicationFolderEv
WQ:__ZN11UnityEngine15CloudWebService14DataDispatcher31SetupSessionContainerToDispatchEv
Ric:__Z68Register_UnityEngine_Object_INTERNAL_CALL_Internal_InstantiateSinglev
SQb:__Z29Transfer_Blittable_ArrayFieldI18StreamedBinaryReadILb0EE8Vector3fEvRT_R9ArrayInfoRK23StaticTransferFieldInfo
y7d:_Array_InternalArray__ICollection_Remove_TisResourceInfo_t3933049236_m1768394498_gshared
rof:_RSAManaged_get_KeySize_m3478823737
dsh:_Shadow_ApplyShadowZeroAlloc_m2132231878
Kfa:__ZN9ShaderLab11shaderprops9GetVectorEPK19ShaderPropertySheetS3_NS_16FastPropertyNameE
HI:__ZN4FMOD12ChannelGroup10getDSPHeadEPPNS_3DSPE
Fme:_Enumerator_System_Collections_IEnumerator_Reset_m610822832_gshared
zAc:__ZN10Collider2D9SetOffsetERK8Vector2f
YH:__ZN12AudioManager17MainThreadCleanupEv
t3g:_UTF32Encoding_GetByteCount_m77034086
MZa:__ZNK6Camera18ScreenToWorldPointERK8Vector3f
Srj:__ZN6il2cpp6icalls8mscorlib6System9Threading6Thread11GetDomainIDEv
o0g:_Rect_Overlaps_m4145874649_AdjustorThunk
ULa:__ZN17ArchiveFileSystemD0Ev
s5g:_Thread_get_CurrentContext_m3123598616
CXi:__ZL22div192by96to32withRestPyS_S_jjj
VZa:__ZN14qsort_internal5QSortIP20ShadowCasterSortDatai26ShadowCasterSortDataSorterEEvT_S4_T0_T1_
aT:__ZN11UnityEngine15CloudWebService19SessionEventManager5StartERKN4core12basic_stringIcNS2_20StringStorageDefaultIcEEEEii
cHb:__Z22TransferField_NonArrayI14SafeBinaryRead27Converter_SimpleNativeClassI8GradientEEvRK23StaticTransferFieldInfoR31RuntimeSerializationCommandInfoRT0_
Hf:_emscripten_glBufferData
Lf:_glUniform3iv
L0d:_Image_OnAfterDeserialize_m457193290
QPj:___fseeko
kDc:__ZN20SpriteTilingProperty8TransferI18StreamedBinaryReadILb0EEEEvRT_
Q5g:_Thread_GetHashCode_m2038641494
sRb:__ZNK6Shader26GetTypeInfoVirtualInternalEv
nce:_Array_InternalArray__ICollection_Add_TisInt16_t4041245914_m321723604_gshared
C5g:_Thread_SetCachedCurrentUICulture_m1504514384
PXg:_Matrix4x4_ToString_m1982554457
uQj:_fwrite
sOd:_BaseInput_get_compositionCursorPos_m3148596268
bOd:_AxisEventData_set_moveVector_m3227339885
JXg:_Matrix4x4_GetHashCode_m3649708037_AdjustorThunk
ugh:_Enumerator_MoveNext_m1212551889_gshared
JCb:__ZN13MonoBehaviourD0Ev
fjf:_X509CertificateEnumerator_Reset_m3421070487
RZc:__ZN2UI6Canvas18UpdateEventIndexesEv
Bsd:_CharEnumerator_System_Collections_IEnumerator_get_Current_m1338581333
tXi:__ZL7log2_64y
vkd:_DecoderFallback__cctor_m215821245
fTe:_Func_2_Invoke_m2968608789_gshared
nPd:_EventSystem_set_current_m1323649628
dgc:__Z50RectTransform_CUSTOM_INTERNAL_set_anchoredPositionP12Il2CppObjectRK13Vector2fIcall
LTb:__ZNSt3__26vectorIN9ShaderLab19SerializedSubShaderENS_9allocatorIS2_EEE6resizeEj
fId:_Decimal_Multiply_m1884379383
cWi:_GarbagePickup_OnCollisionEnter2D_m207520068
k7a:__ZN4FileC2Ev
Vxi:_Context_GetNamedDataSlot_m372993642
iFg:_DerivedType_GetAttributeFlagsImpl_m876862795
wkj:__ZN15dense_hashtableINSt3__24pairIK10KeyWrapperINS1_IPK10MethodInfoP11Il2CppClassEEEjEES9_17ReflectionMapHashIS8_EN14dense_hash_mapIS9_jSD_NS9_14EqualsComparerINS0_8equal_toIS8_EEEENS0_9allocatorISB_EEE9SelectKeyESI_SK_E12maybe_shrinkEv
wqa:__ZN14BatchAllocator16AllocateInternalEPPvijjj
AZb:__Z13RegisterClassI6SpriteEvv
IGj:_min_bytes_allocd
sOb:__ZN17AnimationCurveTplIfE15InvalidateCacheEv
Hec:__Z29Mesh_Get_Custom_PropCanAccessP12Il2CppObject
psb:__ZN6Sprite8TransferI19StreamedBinaryWriteILb0EEEEvRT_
IZg:_Object_get_hideFlags_m4158950869
SXi:_IndexedSet_1_Contains_m4188067325_gshared
uGc:__ZN10Collider2D27UpdateColliderMaterialStateEv
Akg:__ZL58BaseInputModule_t1295781545_CustomAttributesCacheGeneratorP21CustomAttributesCache
eC:__ZN7mecanim9animation18ControllerConstant15InitializeClassEv
Dfa:__ZNK9ShaderLab6TexEnv11PrepareDataEiiP15GfxTextureParam
_Md:_CompareInfo_internal_compare_managed_m1173317301
Co:FUNCTION_TABLE_iiiiiiiffiiiiiiiiiffffiiii
W1d:_InputField_get_customCaretColor_m2991404035
vea:__ZNK19StereoRenderTexture7IsEmptyEv
cXe:_Guid_Equals_m2346664749_AdjustorThunk
pK:__ZN29AudioEffectInternalDefinition9CreateDSPEPN4FMOD6SystemEPvPfPP25UnityAudioSpatializerData
Vu:__ZN7mecanim12statemachine20EvaluateStateMachineERKNS0_20StateMachineConstantERKNS0_17StateMachineInputERNS0_18StateMachineOutputERNS0_18StateMachineMemoryERNS0_21StateMachineWorkspaceE
QOi:_Vector3__ctor_m2720820983_AdjustorThunk
otf:_SslHandshakeHash_CreateSignature_m3001618400
_La:__ZN17ArchiveFileSystem5CloseER13FileEntryData
EIj:_GC_notify_or_invoke_finalizers
TNa:__ZZ23InitPlayerLoopCallbacksvEN35PostLateUpdateBatchModeUpdatestruct7ForwardEv
tef:_CryptoConvert_ToCapiPrivateKeyBlob_m850465939
ADj:__ZN6il2cpp2os6Thread5SleepEjb
YNb:__ZN18StreamedBinaryReadILb1EE21TransferSTLStyleArrayIN4core12basic_stringIcNS2_20StringStorageDefaultIcEEEEEEvRT_17TransferMetaFlags
X_:__ZN15DirectorManagerC2Ev
VHd:_Decimal_Add_m1535064574
GWj:_emscripten_glUniform3f__wrapper
Mn:FUNCTION_TABLE_viiiifii
bgi:_CustomEventData_Add_m2190835956
$Gi:_SubjectAltNameExtension_Decode_m3676245240
lEj:__ZN15dense_hashtableINSt3__24pairIK10KeyWrapperIPK19Il2CppGenericMethodEP10MethodInfoEES6_N6il2cpp8metadata23Il2CppGenericMethodHashEN14dense_hash_mapIS6_S9_SD_NS6_14EqualsComparerINSC_26Il2CppGenericMethodCompareEEENS0_9allocatorISA_EEE9SelectKeyESH_SJ_E4findERS7_
jRg:_RectOffset_set_right_m1671272302
iYe:_Int16_Parse_m4244889614
Fhb:__ZN10TagManager23AddDefaultLayerIfNeededEv
ijb:__ZN10FlareLayer12AddToManagerEv
lJe:_Collection_1_IsValidItem_m1082009684_gshared
KEj:__ZN6il2cpp6icalls8mscorlib6System10Reflection10MethodBase31GetMethodFromHandleInternalTypeE12Il2CppIntPtrS5_
T9c:_RIPEMD160Managed_HHH_m1385141959
Oqj:__ZNK15dense_hashtableINSt3__24pairIK10KeyWrapperINS1_IP11Il2CppClassjEEES4_EES6_N6il2cpp8metadata14ArrayClassHashEN14dense_hash_mapIS6_S4_SB_NS6_14EqualsComparerINSA_17ArrayClassCompareEEENS0_9allocatorIS8_EEE9SelectKeyESF_SH_E12test_deletedEj
t1f:__ZL79X509Chain_t777637347_CustomAttributesCacheGenerator_X509Chain_Build_m2341271288P21CustomAttributesCache
Uxb:__ZN13BuildSettings23VirtualRedirectTransferER24GenerateTypeTreeTransfer
EKb:__ZN24GenerateTypeTreeTransfer21TransferSTLStyleArrayINSt3__26vectorI8GUIStyle13stl_allocatorIS3_L18MemLabelIdentifier1ELi16EEEEEEvRT_17TransferMetaFlags
b$:__ZZN15DirectorManager15InitializeClassEvEN26UpdateDirectorUpdatestruct7ForwardEv
iYa:__Z16ApplySHConstantsI28ApplyBuiltinInstancePropertyEvRT_RK20SphericalHarmonicsL2
Wrc:__Z18Transfer_BlittableI8JSONReadLb1E8Vector2fEvRK29SerializationCommandArgumentsR31RuntimeSerializationCommandInfo
_Ma:__ZN20ArchiveStorageReader15ReadFromStorageEyyPvPy
Xha:__ZN8Material43AddDefaultShaderPropertiesToSavedPropertiesEv
LEc:__ZNSt3__27__sort4IRN14Raycast2DQuery31RaycastHitsByFractionComparitorEP12RaycastHit2DEEjT0_S6_S6_S6_T_
gXa:__Z19DoPrePassRenderLoopR17RenderLoopContextR13dynamic_arrayI16RenderObjectDataLj4EES4_RK11CullResultsRP13RenderTextureSA_Pb
uV:__ZN13MemoryManager12LowLevelFreeEPvj
bZc:__ZN2UI14CanvasRenderer23VirtualRedirectTransferER24GenerateTypeTreeTransfer
HOa:__Z16PresentAfterDrawN9GfxDevice11PresentModeE
SAa:__ZN10DynamicVBO19FillQuadIndexBufferER21DynamicVBOChunkHandle
VNi:_Transform_INTERNAL_CALL_TransformPoint_m4114689647
ueh:_Enumerator_System_Collections_IDictionaryEnumerator_get_Value_m2325383168_gshared
EWi:_PlayerOneAnimation_Update_m330663615
RYj:_glGenFramebuffers__wrapper
p$j:_glBindBufferBase__wrapper
qAg:_DESCryptoServiceProvider__ctor_m3979608654
tR:__ZN9JSONWrite8TransferIyEEvRT_PKc17TransferMetaFlags
jDg:_Default_CompareCloserType_m1367126249
xRi:_Nullable_1_GetHashCode_m1791015856_gshared
BXa:__ZN22MotionVectorRenderLoop16PerformRenderingER8JobFence
IAe:_List_1_Find_m1809770055_gshared
Nef:_DSAManaged_ImportParameters_m987307570
zS:__ZN11UnityEngine15CloudWebService18RestFileDownloader13OnReceiveDataEPKvj
PVc:_UNITY_TT_RunIns
SVc:_Current_Ppem
_qh:_StencilMaterial_Add_m2540251346
rvh:_ScrollRect_CalculateOffset_m1659273054
_df:_ASN1Convert_ToInt32_m2828871616
jCf:_AsnEncodedData__ctor_m1211934482
XDh:_InternalEnumerator_1_System_Collections_IEnumerator_get_Current_m1025729343_AdjustorThunk
AVj:dynCall_iiiiiiiii
hZ:__ZL25InitializeUnityWebStreamsPv
oRb:__ZN6ShaderD0Ev
wId:_Decimal_ToString_m759431975_AdjustorThunk
VQa:__ZN25CameraStackRenderingState18EndStereoRenderingEv
JW:__ZN20LocalFileSystemPosix9SetLengthER13FileEntryDatay
MKd:_Enum__cctor_m3214832791
oyf:_HybridDictionary_set_Item_m4049906479
rBh:_InternalEnumerator_1_System_Collections_IEnumerator_get_Current_m1335784110_AdjustorThunk
Ihd:_String_IndexOf_m1887352430
Nyb:__ZN26PlayerSettingsSplashScreen8TransferI24GenerateTypeTreeTransferEEvRT_
W_d:_Graphic_UnregisterDirtyMaterialCallback_m819829270
QCg:_AssemblyName_SetPublicKey_m1491402438
Fg:_glScissor
D7a:__ZNSt3__26vectorI10vector_mapIiiNS_4lessIiEE13stl_allocatorINS_4pairIiiEEL18MemLabelIdentifier37ELi16EEES4_IS9_LS7_37ELi16EEE21__push_back_slow_pathIKS9_EEvRT_
SAg:_DSACryptoServiceProvider_ExportParameters_m2503144019
mCg:_Assembly_GetName_m790410837
dQ:__Z6simd4fIN6detail9FourTupleEE13Simd4fFactoryIT_ERK13Simd4iFactoryIS3_E
LRc:_UNITY_ft_corner_is_flat
Iva:__ZN13GfxDeviceGLES21RegisterNativeTextureE9TextureIDi16TextureDimension
Kgc:__Z44Register_UnityEngine_Material_DisableKeywordv
on:FUNCTION_TABLE_iiiiiiif
tPg:_Gradient_Init_m4156899649
kkd:_DecoderExceptionFallback__ctor_m3330792769
rDh:_InternalEnumerator_1_System_Collections_IEnumerator_get_Current_m4259662004_gshared
N$j:_emscripten_glUniform4fv__wrapper
kn:FUNCTION_TABLE_iiiiiiii
p9c:_RijndaelManaged_CreateEncryptor_m315737265
_Id:_DelegateEntry__ctor_m2996191962
PLh:_DefaultComparer_Compare_m2804119458_gshared
Jfe:_Array_InternalArray__set_Item_TisUInt16_t986882611_m59367493_gshared
qIc:__ZN19ControllerHitReportD2Ev
Sri:_AnimatorControllerPlayable_INTERNAL_CALL_GetNextAnimatorClipInfoInternal_m4165249349
Zgi:_Animator_SetTriggerString_m2002790359
yja:__ZN6prcoreL12RemapGenericI11TexFormatI817TexFormatARGB4444EEvPKNS_9InnerInfoE
tZi:_GenericEqualityComparer_1_Equals_m2469044952_gshared
qFd:_DateTime_System_IConvertible_ToUInt64_m2788957482
sRc:_Bezier_Up
yQi:_SymmetricTransform_CheckInput_m1287204652
U8g:_Type_GetProperty_m1510204374
Qvd:_CollectionBase_System_Collections_IList_Remove_m2931078938
fCi:_Parser__ctor_m1719025083
Lyj:__ZN15dense_hashtableINSt3__24pairIK10KeyWrapperINS1_IPKcS4_EEEiEES6_24NamespaceAndNamePairHashN14dense_hash_mapIS6_iS9_NS6_14EqualsComparerI26NamespaceAndNamePairEqualsEENS0_9allocatorIS8_EEE9SelectKeyESD_SF_EC2ERKSI_j
Ouh:_ScrollRect_set_horizontalScrollbarVisibility_m3790647510
KZ:__ZN15DirectorManager12RegisterJobsEP13PlayableGraph
rlc:__Z38Event_CUSTOM_Internal_GetMousePositionP12Il2CppObjectP13Vector2fIcall
XS:__ZN11UnityEngine15CloudWebService14DataDispatcher10InitializeERKN4core12basic_stringIcNS2_20StringStorageDefaultIcEEEEPvjRNS0_18ICloudJobSchedulerE
Z6c:__ZN22CrashReportingSettingsC2Ev
_Tc:_cff_free_glyph_data
Sqc:__ZN9JSONWrite8TransferI13dynamic_arrayIdLj8EEEEvRT_PKc17TransferMetaFlags
MT:__ZN11UnityEngine15CloudWebService14DataDispatcher17PlayerLoopHandlerEv
Kx:__ZN7mecanim13ValueArraySubERKNS_10ValueArrayERS0_PKNS_14ValueArrayMaskE
MKi:_Sprite_get_pixelsPerUnit_m1785791149
SHd:_Decimal_System_IConvertible_ToUInt64_m2457277336
j3c:__ZN11UnityEngine7Connect15AppRunningEventC2Ejjjj
gTj:dynCall_iiiiifii
C3:__Z26GetManagedAttributeManagerv
oeh:_Enumerator_System_Collections_IEnumerator_Reset_m3225937576_AdjustorThunk
laf:_MSCompatUnicodeTable_Category_m3854768527
GNj:__ZN6il2cpp6icalls8mscorlib6System8DateTime16GetTimeMonotonicEv
ySa:__ZN19ComputeShaderKernelC2ERKS_
c6g:_Timer__cctor_m3277205579
Nub:__ZN4Mesh14ClearSkinCacheEv
zLa:__ZNK12HandlerChain12LastModifiedERK13FileEntryData
mqc:__Z18Transfer_BlittableI9JSONWriteLb0EjEvRK29SerializationCommandArgumentsR31RuntimeSerializationCommandInfo
gVb:__ZL15GetIndexForNameRNSt3__23mapIN4core12basic_stringIcNS1_20StringStorageDefaultIcEEEEiNS_4lessIS5_EENS_9allocatorINS_4pairIKS5_iEEEEEERSA_
Ug:__exit
_L:__ZN11AudioSource13AwakeFromLoadE17AwakeFromLoadMode
moi:_Event_get_rawType_m1373640154
jU:__ZNK13EmscriptenWWW6GetETAEv
LIi:_X509CertificateCollection_AddRange_m3644738604
F6c:__ZN11UnityEngine7Connect13ConnectConfigC2Ev
Vbb:__ZL31FindActiveTransformWithPathImplPKcR10GameObjectb
bef:_BitConverterLE_UShortFromBytes_m2795078058
FXj:_glViewport__wrapper
PTj:dynCall_viffi
jhg:__ZL68SerializePrivateVariables_t2241034664_CustomAttributesCacheGeneratorP21CustomAttributesCache
Rfh:_Transform_1_Invoke_m2770612589_gshared
GVj:b4
JVj:b5
KVj:b6
LVj:b7
CVj:b0
DVj:b1
EVj:b2
bub:__ZN4Mesh8TransferI24GenerateTypeTreeTransferEEvRT_
Brc:__ZN9JSONWrite8TransferI13dynamic_arrayI10ColorRGBAfLj4EEEEvRT_PKc17TransferMetaFlags
MVj:b8
NVj:b9
ecj:__ZN6il2cpp2vm21ThreadPoolCompartmentC2Ev
xha:__Z14resize_trimmedINSt3__26vectorIN4core12basic_stringIcNS2_20StringStorageDefaultIcEEEE13stl_allocatorIS6_L18MemLabelIdentifier1ELi16EEEEEvRT_j
SQ:__ZN11UnityEngine15CloudWebService16SessionContainer13DeleteArchiveERKN4core12basic_stringIcNS2_20StringStorageDefaultIcEEEE
jtd:_ArrayList_CopyTo_m1348662971
iRc:_Vertical_Sweep_Step
_2d:_InputField_AssignPositioningIfNeeded_m735749913
$Xe:_Int16_System_IConvertible_ToUInt64_m2064691861
Xjj:__ZN15dense_hashtableINSt3__24pairIK10KeyWrapperIPK10Il2CppTypeEjEES6_N6il2cpp8metadata14Il2CppTypeHashEN14dense_hash_mapIS6_jSB_NS6_14EqualsComparerINSA_26Il2CppTypeEqualityComparerEEENS0_9allocatorIS8_EEE9SelectKeyESF_SH_E9copy_fromERKSK_j
aRi:_AesTransform__cctor_m619532760
bT:__ZN19CloudServiceHandler17PauseEventHandlerEb
o8i:__ZN15dense_hashtableINSt3__24pairIK10KeyWrapperI13dynamic_arrayIPK10Il2CppTypeLj4EEEPFvvEEES8_N6il2cpp8metadata19Il2CppSignatureHashEN14dense_hash_mapIS8_SB_SF_NS8_14EqualsComparerINSE_22Il2CppSignatureCompareEEENS0_9allocatorISC_EEE9SelectKeyESJ_SL_E3endEv
zZc:__ZN2UI6Canvas29EncapsulateChildrenMeshBoundsEv
ohe:_Array_Sort_TisCustomAttributeNamedArgument_t94157543_m2435281169_gshared
D6d:_Array_InternalArray__ICollection_Contains_TisTimeSpan_t3430258949_m802614527_gshared
Znb:__ZN17SharedTextureDataC2E18MemLabelIdentifierii13TextureFormatiiibb
Eac:__Z50AsyncOperation_Get_Custom_PropAllowSceneActivationP12Il2CppObject
wtf:_TlsClientFinished_ProcessAsSsl3_m1576972610
zQ:__ZN11UnityEngine15CloudWebService18CloudServiceConfigD2Ev
Zka:__ZN6prcoreL17RemapGenericFloatI15TexFormatRGHalf15TexFormatRFloatEEvPKNS_9InnerInfoE
uXb:__ZN2UI13RectTransform8TransferI19StreamedBinaryWriteILb0EEEEvRT_
Mif:_PKCS12_Clone_m4018301141
V2c:__Z72Register_UnityEngine_Analytics_UnityAnalyticsHandler_SendCustomEventNamev
